##############################################################################
#                                                                            #
# IAR ARM ANSI C/C++ Compiler V4.42A/W32 EVALUATION    23/Sep/2008  14:34:22 #
# Copyright 1999-2005 IAR Systems. All rights reserved.                      #
#                                                                            #
#    Cpu mode        =  interwork                                            #
#    Endian          =  little                                               #
#    Stack alignment =  4                                                    #
#    Source file     =  D:\Pasha\elf\_MY_PROJECT_\naticq_mod2\player_tags.c  #
#    Command line    =  D:\Pasha\elf\_MY_PROJECT_\naticq_mod2\player_tags.c  #
#                       -D NEWSGOLD -D ELKA -D kluchnik -D BCFGGEN           #
#                       --preprocess D:\Pasha\elf\_MY_PROJECT_\naticq_mod2\k #
#                       luchnik\List\ -lC D:\Pasha\elf\_MY_PROJECT_\naticq_m #
#                       od2\kluchnik\List\ -o D:\Pasha\elf\_MY_PROJECT_\nati #
#                       cq_mod2\kluchnik\Obj\ -s9 --cpu_mode arm --endian    #
#                       little --cpu ARM926EJ-S --stack_align 4 --interwork  #
#                       -e --fpu None --dlib_config "D:\Pasha\Embedded       #
#                       Workbench 4.0 Evaluation2\ARM\LIB\dl5tpainl8n.h" -I  #
#                       "D:\Pasha\Embedded Workbench 4.0                     #
#                       Evaluation2\ARM\INC\" --inline_threshold=2           #
#    List file       =  D:\Pasha\elf\_MY_PROJECT_\naticq_mod2\kluchnik\List\ #
#                       player_tags.lst                                      #
#    Object file     =  D:\Pasha\elf\_MY_PROJECT_\naticq_mod2\kluchnik\Obj\p #
#                       layer_tags.r79                                       #
#                                                                            #
#                                                                            #
##############################################################################

D:\Pasha\elf\_MY_PROJECT_\naticq_mod2\player_tags.c
      1          #ifdef NEWSGOLD
      2          #include "..\inc\swilib.h"
      3          #include "swilib2.h"
      4          #include "player_tags.h"
      5          #include "strings.h"
      6          #include "NatICQ.h"
      7          #include "main.h"

   \                                 In segment DATA_Z, align 4, align-sorted
      8          int scr_w;
   \                     scr_w:
   \   00000000                      DS8 4
      9          extern unsigned long  strtoul (const char *nptr,char **endptr,int base); //must overwrite

   \                                 In segment DATA_I, align 4, align-sorted
     10          unsigned int pcsmid=0;
     11          extern unsigned int cfnt;
     12          extern int Is_Id3tag_Enabled;
     13          extern char CsmAdr[];
     14          unsigned int cfnt=FONT_SMALL_BOLD;
     15          char teast2[256];
     16          char teast3[256];
     17          
     18          void *pcsmadr=NULL;
     19          WSHDR *wstag=NULL;
     20          word tagw=0;
   \                     tagw:
   \   00000000                      DS8 2
   \   00000002                      REQUIRE `?<Initializer for tagw>`
   \   00000002                      DS8 2
   \                     teast3:
   \   00000004                      DS8 256
   \   00000104                      REQUIRE `?<Initializer for teast3>`
   \                     pcsmid:
   \   00000104                      DS8 4
   \   00000108                      REQUIRE `?<Initializer for pcsmid>`
   \                     cfnt:
   \   00000108                      DS8 4
   \   0000010C                      REQUIRE `?<Initializer for cfnt>`
   \                     pcsmadr:
   \   0000010C                      DS8 4
   \   00000110                      REQUIRE `?<Initializer for pcsmadr>`
   \                     wstag:
   \   00000110                      DS8 4
   \   00000114                      REQUIRE `?<Initializer for wstag>`
   \                     teast2:
   \   00000114                      DS8 256
   \   00000214                      REQUIRE `?<Initializer for teast2>`
     21            
     22          //------------------------------------
     23          
     24          extern int CurrentXStatus;
     25          extern int Is_ID3_ANY_STATUS;

   \                                 In segment CODE, align 4, keep-with-next
     26          void  initTags()
     27          {
     28            pcsmadr=(void *)strtoul(CsmAdr,NULL,16);
   \                     initTags:
   \   00000000   30009FE5           LDR      R0,??initTags_0  ;; CsmAdr
   \   00000004   10402DE9           PUSH     {R4,LR}
   \   00000008   2C409FE5           LDR      R4,??initTags_0+0x4  ;; tagw
   \   0000000C   1020A0E3           MOV      R2,#+16
   \   00000010   0010A0E3           MOV      R1,#+0
   \   00000014   ........           _BLF     strtoul,??strtoul??rA
   \   00000018   0C0184E5           STR      R0,[R4, #+268]
     29            if (!wstag)    wstag=AllocWS(256);
   \   0000001C   100194E5           LDR      R0,[R4, #+272]
   \   00000020   000050E3           CMP      R0,#+0
   \   00000024   1080BD18           POPNE    {R4,PC}
   \   00000028   400FA0E3           MOV      R0,#+256
   \   0000002C   250100EF           SWI      +293
   \   00000030   100184E5           STR      R0,[R4, #+272]
     30          };
   \   00000034   1080BDE8           POP      {R4,PC}          ;; return
   \                     ??initTags_0:
   \   00000038   ........           DC32     CsmAdr
   \   0000003C   ........           DC32     tagw
     31          
     32          //------------------------------------
     33          

   \                                 In segment CODE, align 4, keep-with-next
     34          void GetTags()
     35          {
   \                     GetTags:
   \   00000000   F0432DE9           PUSH     {R4-R9,LR}
     36            if((CurrentXStatus!=11 || !Is_ID3_ANY_STATUS)||(!Is_Id3tag_Enabled))
   \   00000004   A0629FE5           LDR      R6,??GetTags_0+0x4  ;; CurrentXStatus
   \   00000008   A0429FE5           LDR      R4,??GetTags_0+0x8  ;; `?<Constant "Unknown">`
   \   0000000C   A0529FE5           LDR      R5,??GetTags_0+0xC  ;; tagw
   \   00000010   10D04DE2           SUB      SP,SP,#+16
   \   00000014   000096E5           LDR      R0,[R6, #+0]
   \   00000018   0B0050E3           CMP      R0,#+11
   \   0000001C   0700001A           BNE      ??GetTags_1
   \   00000020   90029FE5           LDR      R0,??GetTags_0+0x10  ;; Is_ID3_ANY_STATUS
   \   00000024   000090E5           LDR      R0,[R0, #+0]
   \   00000028   000050E3           CMP      R0,#+0
   \   0000002C   0300000A           BEQ      ??GetTags_1
   \   00000030   84029FE5           LDR      R0,??GetTags_0+0x14  ;; Is_Id3tag_Enabled
   \   00000034   000090E5           LDR      R0,[R0, #+0]
   \   00000038   000050E3           CMP      R0,#+0
   \   0000003C   0900001A           BNE      ??GetTags_2
     37            {
     38              sprintf(teast3, "zaebaloaq");
   \                     ??GetTags_1:
   \   00000040   081084E2           ADD      R1,R4,#+8
   \   00000044   040085E2           ADD      R0,R5,#+4
   \   00000048   160000EF           SWI      +22
   \   0000004C   FF83BDE8           POP      {R0-R9,PC}
     39            }
     40            else
     41              if(Is_Id3tag_Enabled)
     42               {
     43                {
     44                 L1://Respect to Rst7
     45                  if (pcsmid)
     46                  {
     47                    CSM_RAM *csmp=FindCSMbyID(pcsmid);
     48                    if (csmp)
     49                    {
     50                      WSHDR *fn=((WSHDR **)csmp)[0x2C/4];
     51                      if (!fn)return;
     52                      if (!fn->wsbody) return;
     53                      if (fn->wsbody[0]);
     54              #ifdef ELKA
     55                      WSHDR **wws=((WSHDR ***)csmp)[(0x18C/4)]-1;
     56              #else
     57                      WSHDR **wws=((WSHDR ***)csmp)[(0x170/4)]-1;
     58              #endif
     59                      if (wws)        
     60                      {
     61                        WSHDR *tws;
     62                        const char unk[]="Unknown";
     63                        const char pr[]="%w - %w";
     64                        if (!(tws=wws[2]));
     65                        else
     66                          if (!(tws->wsbody));
     67                        else
     68                          if (tws->wsbody[0])      
     69                            wstrcpy(wstag,tws);
     70                        else  wsprintf(wstag,"%t",unk);
     71                          if (!(tws=wws[1]));
     72                        else
     73                          if (!(tws->wsbody));
     74                        else
     75                           if (tws->wsbody[0])     
     76                              wsprintf(wstag,pr,wstag,tws);
     77                         else
     78                           wstrcpy(wstag,fn);            
     79                           //Патчим строку на предмет win1251
     80                          int i=1;
     81                          int c;
     82                          tagw=0;
     83                          while(i<=wstag->wsbody[0])		{
     84                            c=wstag->wsbody[i];
     85                            if (c==0xA8) c=0x401;
     86                            if (c==0xAA) c=0x404;
     87                            if (c==0xAF) c=0x407;
     88                            if (c==0xB8) c=0x451;
     89                            if (c==0xBA) c=0x454;
     90                            if (c==0xBF) c=0x457;
     91                            if ((c>=0xC0)&&(c<0x100)) c+=0x350;
     92                            wstag->wsbody[i++]=c;
     93                            tagw+=GetSymbolWidth(c,cfnt);
     94                          }
     95                        }
     96                        else;
     97                    }
     98                    else pcsmid=0;
     99                  }
    100                  else  
    101                  {
    102                    CSM_RAM *p=((void **)CSM_root()->csm_q)[2];
    103                    while(p)
    104                    {
    105                      if (p->constr==pcsmadr) break;
   \                     ??GetTags_3:
   \   00000050   081090E5           LDR      R1,[R0, #+8]
   \   00000054   0C2195E5           LDR      R2,[R5, #+268]
   \   00000058   020051E1           CMP      R1,R2
   \   0000005C   6A00001A           BNE      ??GetTags_4
    106                      p=p->next;
    107                    }
    108                    if (p)
    109                    {
    110                      pcsmid=p->id;
   \   00000060   0C0090E5           LDR      R0,[R0, #+12]
   \   00000064   040185E5           STR      R0,[R5, #+260]
    111                    goto L1;
    112                    }
   \                     ??GetTags_2:
   \   00000068   040195E5           LDR      R0,[R5, #+260]
   \   0000006C   000050E3           CMP      R0,#+0
   \   00000070   6100000A           BEQ      ??GetTags_5
   \   00000074   080100EF           SWI      +264
   \   00000078   0070A0E3           MOV      R7,#+0
   \   0000007C   000050E3           CMP      R0,#+0
   \   00000080   5B00000A           BEQ      ??GetTags_6
   \   00000084   2C8090E5           LDR      R8,[R0, #+44]
   \   00000088   000058E3           CMP      R8,#+0
   \   0000008C   00109815           LDRNE    R1,[R8, #+0]
   \   00000090   00005113           CMPNE    R1,#+0
   \   00000094   FF83BD08           POPEQ    {R0-R9,PC}
   \   00000098   8C0190E5           LDR      R0,[R0, #+396]
   \   0000009C   049050E2           SUBS     R9,R0,#+4
   \   000000A0   5C00000A           BEQ      ??GetTags_7
   \   000000A4   0C0094E8           LDM      R4,{R2,R3}
   \   000000A8   10129FE5           LDR      R1,??GetTags_0+0x18  ;; `?<Constant "%w - %w">`
   \   000000AC   0D00A0E1           MOV      R0,SP
   \   000000B0   0C0080E8           STM      R0,{R2,R3}
   \   000000B4   0C0091E8           LDM      R1,{R2,R3}
   \   000000B8   08008DE2           ADD      R0,SP,#+8
   \   000000BC   0C0080E8           STM      R0,{R2,R3}
   \   000000C0   081099E5           LDR      R1,[R9, #+8]
   \   000000C4   000051E3           CMP      R1,#+0
   \   000000C8   00209115           LDRNE    R2,[R1, #+0]
   \   000000CC   00005213           CMPNE    R2,#+0
   \   000000D0   0800000A           BEQ      ??GetTags_8
   \   000000D4   B020D2E1           LDRH     R2,[R2, #+0]
   \   000000D8   100195E5           LDR      R0,[R5, #+272]
   \   000000DC   000052E3           CMP      R2,#+0
   \   000000E0   0100000A           BEQ      ??GetTags_9
   \   000000E4   1F0100EF           SWI      +287
   \   000000E8   020000EA           B        ??GetTags_8
   \                     ??GetTags_9:
   \   000000EC   0D20A0E1           MOV      R2,SP
   \   000000F0   6C1F8FE2           ADR      R1,??GetTags_0   ;; "%t"
   \   000000F4   240100EF           SWI      +292
   \                     ??GetTags_8:
   \   000000F8   043099E5           LDR      R3,[R9, #+4]
   \   000000FC   000053E3           CMP      R3,#+0
   \   00000100   00109315           LDRNE    R1,[R3, #+0]
   \   00000104   00005113           CMPNE    R1,#+0
   \   00000108   0900000A           BEQ      ??GetTags_10
   \   0000010C   B010D1E1           LDRH     R1,[R1, #+0]
   \   00000110   100195E5           LDR      R0,[R5, #+272]
   \   00000114   000051E3           CMP      R1,#+0
   \   00000118   0300000A           BEQ      ??GetTags_11
   \   0000011C   0020A0E1           MOV      R2,R0
   \   00000120   08108DE2           ADD      R1,SP,#+8
   \   00000124   240100EF           SWI      +292
   \   00000128   010000EA           B        ??GetTags_10
   \                     ??GetTags_11:
   \   0000012C   0810A0E1           MOV      R1,R8
   \   00000130   1F0100EF           SWI      +287
   \                     ??GetTags_10:
   \   00000134   100195E5           LDR      R0,[R5, #+272]
   \   00000138   B070C5E1           STRH     R7,[R5, #+0]
   \   0000013C   000090E5           LDR      R0,[R0, #+0]
   \   00000140   0180A0E3           MOV      R8,#+1
   \   00000144   B000D0E1           LDRH     R0,[R0, #+0]
   \   00000148   000050E3           CMP      R0,#+0
   \   0000014C   0B00001A           BNE      ??GetTags_12
   \   00000150   300000EA           B        ??GetTags_7
   \                     ??GetTags_13:
   \   00000154   C00050E3           CMP      R0,#+192
   \   00000158   010000BA           BLT      ??GetTags_14
   \   0000015C   400F50E3           CMP      R0,#+256
   \   00000160   D40F80B2           ADDLT    R0,R0,#+848
   \                     ??GetTags_14:
   \   00000164   B000C1E1           STRH     R0,[R1, #+0]
   \   00000168   081195E5           LDR      R1,[R5, #+264]
   \   0000016C   018088E2           ADD      R8,R8,#+1
   \   00000170   E10100EF           SWI      +481
   \   00000174   B010D5E1           LDRH     R1,[R5, #+0]
   \   00000178   010080E0           ADD      R0,R0,R1
   \   0000017C   B000C5E1           STRH     R0,[R5, #+0]
   \                     ??GetTags_12:
   \   00000180   100195E5           LDR      R0,[R5, #+272]
   \   00000184   000090E5           LDR      R0,[R0, #+0]
   \   00000188   B010D0E1           LDRH     R1,[R0, #+0]
   \   0000018C   080051E1           CMP      R1,R8
   \   00000190   200000BA           BLT      ??GetTags_7
   \   00000194   881080E0           ADD      R1,R0,R8, LSL #+1
   \   00000198   B000D1E1           LDRH     R0,[R1, #+0]
   \   0000019C   A80050E3           CMP      R0,#+168
   \   000001A0   0200001A           BNE      ??GetTags_15
   \   000001A4   0100A0E3           MOV      R0,#+1
   \                     ??GetTags_16:
   \   000001A8   400E80E3           ORR      R0,R0,#0x400
   \   000001AC   ECFFFFEA           B        ??GetTags_14
   \                     ??GetTags_15:
   \   000001B0   AA0050E3           CMP      R0,#+170
   \   000001B4   0400A003           MOVEQ    R0,#+4
   \   000001B8   FAFFFF0A           BEQ      ??GetTags_16
   \   000001BC   AF0050E3           CMP      R0,#+175
   \   000001C0   0100001A           BNE      ??GetTags_17
   \   000001C4   0700A0E3           MOV      R0,#+7
   \                     ??GetTags_18:
   \   000001C8   F6FFFFEA           B        ??GetTags_16
   \                     ??GetTags_17:
   \   000001CC   B80050E3           CMP      R0,#+184
   \   000001D0   5100A003           MOVEQ    R0,#+81
   \   000001D4   F3FFFF0A           BEQ      ??GetTags_16
   \   000001D8   BA0050E3           CMP      R0,#+186
   \   000001DC   5400A003           MOVEQ    R0,#+84
   \   000001E0   F0FFFF0A           BEQ      ??GetTags_16
   \   000001E4   BF0050E3           CMP      R0,#+191
   \   000001E8   D9FFFF1A           BNE      ??GetTags_13
   \   000001EC   5700A0E3           MOV      R0,#+87
   \   000001F0   ECFFFFEA           B        ??GetTags_16
   \                     ??GetTags_6:
   \   000001F4   047185E5           STR      R7,[R5, #+260]
   \   000001F8   060000EA           B        ??GetTags_7
   \                     ??GetTags_5:
   \   000001FC   068100EF           SWI      +33030
   \   00000200   080090E5           LDR      R0,[R0, #+8]
   \   00000204   080090E5           LDR      R0,[R0, #+8]
   \   00000208   000000EA           B        ??GetTags_19
   \                     ??GetTags_4:
   \   0000020C   000090E5           LDR      R0,[R0, #+0]
   \                     ??GetTags_19:
   \   00000210   000050E3           CMP      R0,#+0
   \   00000214   8DFFFF1A           BNE      ??GetTags_3
    113                  }
    114                convWS_to_ANSI(wstag, teast2);
   \                     ??GetTags_7:
   \   00000218   100195E5           LDR      R0,[R5, #+272]
   \   0000021C   458FA0E3           MOV      R8,#+276
   \   00000220   051088E0           ADD      R1,R8,R5
   \   00000224   ........           _BLF     convWS_to_ANSI,??convWS_to_ANSI??rA
    115                if(_GetPlayStatus()==2)
   \   00000228   0070A0E3           MOV      R7,#+0
   \   0000022C   0B90A0E3           MOV      R9,#+11
   \   00000230   F80100EF           SWI      +504
   \   00000234   020050E3           CMP      R0,#+2
   \   00000238   0700001A           BNE      ??GetTags_20
    116                {
    117                  if(strcmp(teast2,teast3)) 
   \   0000023C   041085E2           ADD      R1,R5,#+4
   \   00000240   050088E0           ADD      R0,R8,R5
   \   00000244   190000EF           SWI      +25
   \   00000248   000050E3           CMP      R0,#+0
   \   0000024C   FF83BD08           POPEQ    {R0-R9,PC}
    118                  {
    119                  //  ShowMSG(1,(int)teast2);
    120                    CurrentXStatus=0;
   \   00000250   007086E5           STR      R7,[R6, #+0]
    121                    set_my_xstatus();  
   \   00000254   ........           _BLF     set_my_xstatus,??set_my_xstatus??rA
    122                    set_my_xstatus2();
   \   00000258   0C0000EA           B        ??GetTags_21
    123                    strcpy(teast3, teast2);
    124                    CurrentXStatus=11;
    125                  }
    126                 }
    127                else
    128                {
    129                  if((teast3[0]!='N'&&teast3[8]!='P')&&(_GetPlayStatus()!=1)) 
   \                     ??GetTags_20:
   \   0000025C   0400D5E5           LDRB     R0,[R5, #+4]
   \   00000260   4E0050E3           CMP      R0,#+78
   \   00000264   0C00D515           LDRBNE   R0,[R5, #+12]
   \   00000268   50005013           CMPNE    R0,#+80
   \   0000026C   FF83BD08           POPEQ    {R0-R9,PC}
   \   00000270   F80100EF           SWI      +504
   \   00000274   010050E3           CMP      R0,#+1
   \   00000278   FF83BD08           POPEQ    {R0-R9,PC}
    130                  {
    131                    CurrentXStatus=0;
   \   0000027C   007086E5           STR      R7,[R6, #+0]
    132                    set_my_xstatus();
   \   00000280   ........           _BLF     set_my_xstatus,??set_my_xstatus??rA
    133                    sprintf(teast2, "Nothing Played"); 
   \   00000284   141084E2           ADD      R1,R4,#+20
   \   00000288   050088E0           ADD      R0,R8,R5
   \   0000028C   160000EF           SWI      +22
    134                    set_my_xstatus2();
   \                     ??GetTags_21:
   \   00000290   ........           _BLF     set_my_xstatus2,??set_my_xstatus2??rA
    135                    strcpy(teast3, teast2);
   \   00000294   051088E0           ADD      R1,R8,R5
   \   00000298   040085E2           ADD      R0,R5,#+4
   \   0000029C   1A0000EF           SWI      +26
    136                    CurrentXStatus=11;
   \   000002A0   009086E5           STR      R9,[R6, #+0]
   \   000002A4   FF83BDE8           POP      {R0-R9,PC}       ;; return
   \                     ??GetTags_0:
   \   000002A8   25740000           DC8      "%t",+0
   \   000002AC   ........           DC32     CurrentXStatus
   \   000002B0   ........           DC32     `?<Constant "Unknown">`
   \   000002B4   ........           DC32     tagw
   \   000002B8   ........           DC32     Is_ID3_ANY_STATUS
   \   000002BC   ........           DC32     Is_Id3tag_Enabled
   \   000002C0   ........           DC32     `?<Constant "%w - %w">`
    137                  }
    138                 }
    139               }
    140             }  
    141          };  

   \                                 In segment DATA_ID, align 4, align-sorted
   \                     `?<Initializer for tagw>`:
   \   00000000   0000               DC16 0
   \   00000002   0000               DC8 0, 0
   \                     `?<Initializer for teast3>`:
   \   00000004   000000000000       DC8 0, 0, 0, 0, 0, 0, 0, 0, 0, 0, 0, 0, 0, 0, 0, 0
   \              000000000000
   \              00000000    
   \   00000014   000000000000       DC8 0, 0, 0, 0, 0, 0, 0, 0, 0, 0, 0, 0, 0, 0, 0, 0
   \              000000000000
   \              00000000    
   \   00000024   000000000000       DC8 0, 0, 0, 0, 0, 0, 0, 0, 0, 0, 0, 0, 0, 0, 0, 0
   \              000000000000
   \              00000000    
   \   00000034   000000000000       DC8 0, 0, 0, 0, 0, 0, 0, 0, 0, 0, 0, 0, 0, 0, 0, 0
   \              000000000000
   \              00000000    
   \   00000044   000000000000       DC8 0, 0, 0, 0, 0, 0, 0, 0, 0, 0, 0, 0, 0, 0, 0, 0
   \              000000000000
   \              00000000    
   \   00000054   000000000000       DC8 0, 0, 0, 0, 0, 0, 0, 0, 0, 0, 0, 0, 0, 0, 0, 0
   \              000000000000
   \              00000000    
   \   00000064   000000000000       DC8 0, 0, 0, 0, 0, 0, 0, 0, 0, 0, 0, 0, 0, 0, 0, 0
   \              000000000000
   \              00000000    
   \   00000074   000000000000       DC8 0, 0, 0, 0, 0, 0, 0, 0, 0, 0, 0, 0, 0, 0, 0, 0
   \              000000000000
   \              00000000    
   \   00000084   000000000000       DC8 0, 0, 0, 0, 0, 0, 0, 0, 0, 0, 0, 0, 0, 0, 0, 0
   \              000000000000
   \              00000000    
   \   00000094   000000000000       DC8 0, 0, 0, 0, 0, 0, 0, 0, 0, 0, 0, 0, 0, 0, 0, 0
   \              000000000000
   \              00000000    
   \   000000A4   000000000000       DC8 0, 0, 0, 0, 0, 0, 0, 0, 0, 0, 0, 0, 0, 0, 0, 0
   \              000000000000
   \              00000000    
   \   000000B4   000000000000       DC8 0, 0, 0, 0, 0, 0, 0, 0, 0, 0, 0, 0, 0, 0, 0, 0
   \              000000000000
   \              00000000    
   \   000000C4   000000000000       DC8 0, 0, 0, 0, 0, 0, 0, 0, 0, 0, 0, 0, 0, 0, 0, 0
   \              000000000000
   \              00000000    
   \   000000D4   000000000000       DC8 0, 0, 0, 0, 0, 0, 0, 0, 0, 0, 0, 0, 0, 0, 0, 0
   \              000000000000
   \              00000000    
   \   000000E4   000000000000       DC8 0, 0, 0, 0, 0, 0, 0, 0, 0, 0, 0, 0, 0, 0, 0, 0
   \              000000000000
   \              00000000    
   \   000000F4   000000000000       DC8 0, 0, 0, 0, 0, 0, 0, 0, 0, 0, 0, 0, 0, 0, 0, 0
   \              000000000000
   \              00000000    
   \                     `?<Initializer for pcsmid>`:
   \   00000104   00000000           DC32 0
   \                     `?<Initializer for cfnt>`:
   \   00000108   09000000           DC32 9
   \                     `?<Initializer for pcsmadr>`:
   \   0000010C   00000000           DC32 0H
   \                     `?<Initializer for wstag>`:
   \   00000110   00000000           DC32 0H
   \                     `?<Initializer for teast2>`:
   \   00000114   000000000000       DC8 0, 0, 0, 0, 0, 0, 0, 0, 0, 0, 0, 0, 0, 0, 0, 0
   \              000000000000
   \              00000000    
   \   00000124   000000000000       DC8 0, 0, 0, 0, 0, 0, 0, 0, 0, 0, 0, 0, 0, 0, 0, 0
   \              000000000000
   \              00000000    
   \   00000134   000000000000       DC8 0, 0, 0, 0, 0, 0, 0, 0, 0, 0, 0, 0, 0, 0, 0, 0
   \              000000000000
   \              00000000    
   \   00000144   000000000000       DC8 0, 0, 0, 0, 0, 0, 0, 0, 0, 0, 0, 0, 0, 0, 0, 0
   \              000000000000
   \              00000000    
   \   00000154   000000000000       DC8 0, 0, 0, 0, 0, 0, 0, 0, 0, 0, 0, 0, 0, 0, 0, 0
   \              000000000000
   \              00000000    
   \   00000164   000000000000       DC8 0, 0, 0, 0, 0, 0, 0, 0, 0, 0, 0, 0, 0, 0, 0, 0
   \              000000000000
   \              00000000    
   \   00000174   000000000000       DC8 0, 0, 0, 0, 0, 0, 0, 0, 0, 0, 0, 0, 0, 0, 0, 0
   \              000000000000
   \              00000000    
   \   00000184   000000000000       DC8 0, 0, 0, 0, 0, 0, 0, 0, 0, 0, 0, 0, 0, 0, 0, 0
   \              000000000000
   \              00000000    
   \   00000194   000000000000       DC8 0, 0, 0, 0, 0, 0, 0, 0, 0, 0, 0, 0, 0, 0, 0, 0
   \              000000000000
   \              00000000    
   \   000001A4   000000000000       DC8 0, 0, 0, 0, 0, 0, 0, 0, 0, 0, 0, 0, 0, 0, 0, 0
   \              000000000000
   \              00000000    
   \   000001B4   000000000000       DC8 0, 0, 0, 0, 0, 0, 0, 0, 0, 0, 0, 0, 0, 0, 0, 0
   \              000000000000
   \              00000000    
   \   000001C4   000000000000       DC8 0, 0, 0, 0, 0, 0, 0, 0, 0, 0, 0, 0, 0, 0, 0, 0
   \              000000000000
   \              00000000    
   \   000001D4   000000000000       DC8 0, 0, 0, 0, 0, 0, 0, 0, 0, 0, 0, 0, 0, 0, 0, 0
   \              000000000000
   \              00000000    
   \   000001E4   000000000000       DC8 0, 0, 0, 0, 0, 0, 0, 0, 0, 0, 0, 0, 0, 0, 0, 0
   \              000000000000
   \              00000000    
   \   000001F4   000000000000       DC8 0, 0, 0, 0, 0, 0, 0, 0, 0, 0, 0, 0, 0, 0, 0, 0
   \              000000000000
   \              00000000    
   \   00000204   000000000000       DC8 0, 0, 0, 0, 0, 0, 0, 0, 0, 0, 0, 0, 0, 0, 0, 0
   \              000000000000
   \              00000000    

   \                                 In segment DATA_C, align 4, align-sorted
   \                     `?<Constant "Unknown">`:
   \   00000000   556E6B6E6F77       DC8 "Unknown"
   \              6E00        
   \   00000008   7A616562616C       DC8 "zaebaloaq"
   \              6F617100    
   \   00000012   0000               DC8 0, 0
   \   00000014   4E6F7468696E       DC8 "Nothing Played"
   \              6720506C6179
   \              656400      
   \   00000023   00                 DC8 0

   \                                 In segment DATA_C, align 4, align-sorted
   \                     `?<Constant "%w - %w">`:
   \   00000000   2577202D2025       DC8 "%w - %w"
   \              7700        

   \                                 In segment DATA_C, align 1, align-sorted
   \   00000000   257400             DC8 "%t"
    142          
    143          /*
    144          int  ShowTag(void){
    145            if (pcsmadr&&((_GetPlayStatus()==2)));else return 2;
    146            GUI *igui;
    147            if (!TopG(DISPLACE_OF_IDLEGUI_ID))return 0;
    148            
    149            if (!(igui=GetTopGUI())) return 0;
    150            if (igui){
    151          #ifdef ELKA
    152              {
    153                void *canvasdata = BuildCanvas();
    154          #else
    155              void *idata = GetDataOfItemByID(igui, 2);
    156              if (idata)
    157              {
    158                void *canvasdata = ((void **)idata)[DISPLACE_OF_IDLECANVAS / 4];        
    159          #endif        
    160                
    161                DrawCanvas(canvasdata,cTgr.x, cTgr.y,cTgr.x2, cTgr.y+GetFontYSIZE(cfnt), 1);  
    162          
    163                if (tagw<scr_w)
    164                  DrawString(wstag,cTgr.x,cTgr.y,cTgr.x2,cTgr.y+GetFontYSIZE(cfnt),cfnt,TEXT_ALIGNMIDDLE,(char*)clr,GetPaletteAdrByColorIndex(23));
    165                else{
    166                  static byte dir=0;
    167                  int dif=tagw-scr_w;
    168                  static short sm=0;
    169          //        int step=(7*tagw)/scr_w;
    170                  int step=4+(3*tagw)/scr_w;        
    171                  sm+=step*(dir?-1:1);
    172                  
    173                  DrawScrollString(wstag,cTgr.x,cTgr.y,cTgr.x2,cTgr.y+GetFontYSIZE(cfnt)+10,sm+1,cfnt,TEXT_ALIGNLEFT,(char*)clr,GetPaletteAdrByColorIndex(23));
    174                  if ((sm-step)<0)dir=0;else
    175                   if ((sm)>dif)dir=1;
    176                }
    177              }
    178            }
    179            return 1;
    180          } ;
    181          */
    182          #endif

   Maximum stack usage in bytes:

     Function CSTACK
     -------- ------
     GetTags     44
     initTags     8


   Segment part sizes:

     Function/Label          Bytes
     --------------          -----
     scr_w                      4
     tagw                     532
     initTags                  64
     GetTags                  708
     ?<Initializer for tagw>  532
     ?<Constant "Unknown">     36
     ?<Constant "%w - %w">      8
     ?<Constant "%t">           3
      Others                   80

 
 828 bytes in segment CODE
  47 bytes in segment DATA_C
 532 bytes in segment DATA_I
 532 bytes in segment DATA_ID
   4 bytes in segment DATA_Z
  24 bytes in segment INITTAB
 
 772 bytes of CODE  memory (+ 80 bytes shared)
 579 bytes of CONST memory
 536 bytes of DATA  memory

Errors: none
Warnings: none
