##############################################################################
#                                                                            #
# IAR ARM ANSI C/C++ Compiler V4.42A/W32 EVALUATION    23/Sep/2008  14:34:28 #
# Copyright 1999-2005 IAR Systems. All rights reserved.                      #
#                                                                            #
#    Cpu mode        =  interwork                                            #
#    Endian          =  little                                               #
#    Stack alignment =  4                                                    #
#    Source file     =  D:\Pasha\elf\_MY_PROJECT_\naticq_mod2\smiles_loader. #
#                       c                                                    #
#    Command line    =  D:\Pasha\elf\_MY_PROJECT_\naticq_mod2\smiles_loader. #
#                       c -D NEWSGOLD -D ELKA -D kluchnik -D BCFGGEN         #
#                       --preprocess D:\Pasha\elf\_MY_PROJECT_\naticq_mod2\k #
#                       luchnik\List\ -lC D:\Pasha\elf\_MY_PROJECT_\naticq_m #
#                       od2\kluchnik\List\ -o D:\Pasha\elf\_MY_PROJECT_\nati #
#                       cq_mod2\kluchnik\Obj\ -s9 --cpu_mode arm --endian    #
#                       little --cpu ARM926EJ-S --stack_align 4 --interwork  #
#                       -e --fpu None --dlib_config "D:\Pasha\Embedded       #
#                       Workbench 4.0 Evaluation2\ARM\LIB\dl5tpainl8n.h" -I  #
#                       "D:\Pasha\Embedded Workbench 4.0                     #
#                       Evaluation2\ARM\INC\" --inline_threshold=2           #
#    List file       =  D:\Pasha\elf\_MY_PROJECT_\naticq_mod2\kluchnik\List\ #
#                       smiles_loader.lst                                    #
#    Object file     =  D:\Pasha\elf\_MY_PROJECT_\naticq_mod2\kluchnik\Obj\s #
#                       miles_loader.r79                                     #
#                                                                            #
#                                                                            #
##############################################################################

D:\Pasha\elf\_MY_PROJECT_\naticq_mod2\smiles_loader.c
      1          #include "../inc/swilib.h"
      2          #include "../inc/pnglist.h"
      3          #include "naticq_ipc.h"
      4          #include "smiles.h"
      5          #include "naticq.h"
      6          

   \                                 In segment DATA_Z, align 4, align-sorted
      7          S_SMILES *s_top=0;
      8          
      9          DYNPNGICONLIST *SmilesImgList;
     10          DYNPNGICONLIST *XStatusesImgList;
     11          
     12          int *XStatusesIconArray;
     13          
     14          volatile int total_smiles;
     15          volatile int total_xstatuses;
     16          volatile int xstatuses_load;
     17          volatile int pictures_max; //2026
     18          volatile int pictures_loaded; //2026
     19          
     20          extern char SMILE_FILE[];
     21          extern char SMILE_PATH[];
     22          extern char XSTATUSES_PATH[];
     23          extern const char ipc_my_name[];
     24          extern int S_ICONS[];
     25          
     26          static IPC_REQ gipc;
   \                     gipc:
   \   00000000                      DS8 12
   \                     s_top:
   \   0000000C                      DS8 4
   \                     SmilesImgList:
   \   00000010                      DS8 4
   \                     XStatusesImgList:
   \   00000014                      DS8 4
   \                     XStatusesIconArray:
   \   00000018                      DS8 4
   \                     total_smiles:
   \   0000001C                      DS8 4
   \                     total_xstatuses:
   \   00000020                      DS8 4
   \                     xstatuses_load:
   \   00000024                      DS8 4
   \                     pictures_max:
   \   00000028                      DS8 4
   \                     pictures_loaded:
   \   0000002C                      DS8 4
   \   00000030                      DS8 4
   \   00000034                      DS8 4
   \   00000038                      DS8 4
   \   0000003C                      DS8 4
     27          static char *p_buf;
     28          static char *s_buf;
     29          static S_SMILES *s_bot;
     30          static int n_pic;
     31          

   \                                 In segment CODE, align 4, keep-with-next
     32          S_SMILES *FindSmileById(int n)
     33          {
     34            int i=0;
     35            S_SMILES *sl=(S_SMILES *)s_top;
   \                     FindSmileById:
   \   00000000   ........           LDR      R1,??DataTable1  ;; gipc + 12
   \   00000004   0020A0E3           MOV      R2,#+0
   \   00000008   001091E5           LDR      R1,[R1, #+0]
   \   0000000C   010000EA           B        ??FindSmileById_0
     36            while(sl && i!=n)
     37            {
     38              sl=sl->next;
   \                     ??FindSmileById_1:
   \   00000010   001091E5           LDR      R1,[R1, #+0]
     39              i++;
   \   00000014   012082E2           ADD      R2,R2,#+1
     40            }
   \                     ??FindSmileById_0:
   \   00000018   000051E3           CMP      R1,#+0
   \   0000001C   00005211           CMPNE    R2,R0
   \   00000020   FAFFFF1A           BNE      ??FindSmileById_1
     41            return sl;
   \   00000024   0100A0E1           MOV      R0,R1
   \   00000028   1EFF2FE1           BX       LR               ;; return
     42          }
     43          

   \                                 In segment CODE, align 4, keep-with-next
     44          S_SMILES *FindSmileByUni(int wchar)
     45          {
     46            S_SMILES *sl=(S_SMILES *)s_top;
   \                     FindSmileByUni:
   \   00000000   ........           LDR      R1,??DataTable1  ;; gipc + 12
     47            while(sl)
     48            {
     49              if (sl->uni_smile == wchar) return (sl);
     50              sl=sl->next;
   \                     ??FindSmileByUni_0:
   \   00000004   001091E5           LDR      R1,[R1, #+0]
   \   00000008   000051E3           CMP      R1,#+0
   \   0000000C   0400000A           BEQ      ??FindSmileByUni_1
   \   00000010   042091E5           LDR      R2,[R1, #+4]
   \   00000014   000052E1           CMP      R2,R0
   \   00000018   F9FFFF1A           BNE      ??FindSmileByUni_0
   \   0000001C   0100A0E1           MOV      R0,R1
   \   00000020   1EFF2FE1           BX       LR
     51            }
     52            return (0);
   \                     ??FindSmileByUni_1:
   \   00000024   0000A0E3           MOV      R0,#+0
   \   00000028   1EFF2FE1           BX       LR               ;; return
     53          }
     54          

   \                                 In segment CODE, align 4, keep-with-next
     55          void FreeSmiles(void)
     56          {
   \                     FreeSmiles:
   \   00000000   F0412DE9           PUSH     {R4-R8,LR}
     57            S_SMILES *s_smile;
     58            STXT_SMILES *n;
     59            STXT_SMILES *st;
     60            DYNPNGICONLIST *d;
     61            DYNPNGICONLIST *nd;
     62            LockSched();
     63            total_smiles=0;
   \   00000004   ........           LDR      R4,??DataTable10  ;; gipc
   \   00000008   04D04DE2           SUB      SP,SP,#+4
   \   0000000C   0050A0E3           MOV      R5,#+0
   \   00000010   460100EF           SWI      +326
   \   00000014   1C5084E5           STR      R5,[R4, #+28]
     64            s_smile=(S_SMILES *)s_top;
   \   00000018   0C6094E5           LDR      R6,[R4, #+12]
     65            s_top=0;
   \   0000001C   0C5084E5           STR      R5,[R4, #+12]
     66            s_bot=0;
   \   00000020   385084E5           STR      R5,[R4, #+56]
     67            UnlockSched();
   \   00000024   470100EF           SWI      +327
   \   00000028   000056E3           CMP      R6,#+0
   \   0000002C   1300000A           BEQ      ??FreeSmiles_0
     68            while(s_smile)
     69            {
     70              S_SMILES *s;
     71              s=s_smile;
   \                     ??FreeSmiles_1:
   \   00000030   0670A0E1           MOV      R7,R6
     72              st=s->lines;
   \   00000034   080097E5           LDR      R0,[R7, #+8]
   \   00000038   000050E3           CMP      R0,#+0
   \   0000003C   0A00000A           BEQ      ??FreeSmiles_2
     73              while(st)
     74              {
     75                n=st->next;
   \                     ??FreeSmiles_3:
   \   00000040   0010A0E3           MOV      R1,#+0
   \   00000044   0D20A0E1           MOV      R2,SP
   \                     ??FreeSmiles_4:
   \   00000048   0030D1E7           LDRB     R3,[R1, +R0]
   \   0000004C   0230C1E7           STRB     R3,[R1, +R2]
   \   00000050   011081E2           ADD      R1,R1,#+1
   \   00000054   040051E3           CMP      R1,#+4
   \   00000058   FAFFFFBA           BLT      ??FreeSmiles_4
   \   0000005C   00809DE5           LDR      R8,[SP, #+0]
     76                mfree(st);
   \   00000060   150000EF           SWI      +21
     77                st=n;
   \   00000064   0800B0E1           MOVS     R0,R8
     78              }
   \   00000068   F4FFFF1A           BNE      ??FreeSmiles_3
     79              s_smile=(S_SMILES *)(s_smile->next);
   \                     ??FreeSmiles_2:
   \   0000006C   006096E5           LDR      R6,[R6, #+0]
     80              mfree(s);
   \   00000070   0700A0E1           MOV      R0,R7
   \   00000074   150000EF           SWI      +21
     81            }
   \   00000078   000056E3           CMP      R6,#+0
   \   0000007C   EBFFFF1A           BNE      ??FreeSmiles_1
     82            LockSched();
   \                     ??FreeSmiles_0:
   \   00000080   460100EF           SWI      +326
     83            d=SmilesImgList;
   \   00000084   106094E5           LDR      R6,[R4, #+16]
     84            SmilesImgList=0;
   \   00000088   105084E5           STR      R5,[R4, #+16]
     85            UnlockSched();
   \   0000008C   470100EF           SWI      +327
   \   00000090   000056E3           CMP      R6,#+0
   \   00000094   0B00000A           BEQ      ??FreeSmiles_5
     86            while(d)
     87            {
     88              if (d->img)
   \                     ??FreeSmiles_6:
   \   00000098   080096E5           LDR      R0,[R6, #+8]
   \   0000009C   000050E3           CMP      R0,#+0
   \   000000A0   0300000A           BEQ      ??FreeSmiles_7
     89              {
     90                mfree(d->img->bitmap);
   \   000000A4   080090E5           LDR      R0,[R0, #+8]
   \   000000A8   150000EF           SWI      +21
     91                mfree(d->img);
   \   000000AC   080096E5           LDR      R0,[R6, #+8]
   \   000000B0   150000EF           SWI      +21
     92              }
     93              nd=d->next;
   \                     ??FreeSmiles_7:
   \   000000B4   005096E5           LDR      R5,[R6, #+0]
     94              mfree(d);
   \   000000B8   0600A0E1           MOV      R0,R6
   \   000000BC   150000EF           SWI      +21
     95              d=nd;
   \   000000C0   0560B0E1           MOVS     R6,R5
     96            }
   \   000000C4   F3FFFF1A           BNE      ??FreeSmiles_6
     97            mfree(s_buf);
   \                     ??FreeSmiles_5:
   \   000000C8   340094E5           LDR      R0,[R4, #+52]
   \   000000CC   150000EF           SWI      +21
     98          }
   \   000000D0   F181BDE8           POP      {R0,R4-R8,PC}    ;; return
     99          

   \                                 In segment CODE, align 4, keep-with-next
    100          void InitSmiles(void)
    101          {
   \                     InitSmiles:
   \   00000000   F0412DE9           PUSH     {R4-R8,LR}
    102            int f;
    103            unsigned int err;
    104            int fsize;
    105            char *buf;
    106            FSTATS stat;
    107          
    108            FreeSmiles();
    109          
    110            n_pic=FIRST_UCS2_BITMAP;
   \   00000004   ........           LDR      R4,??DataTable16  ;; gipc
    111            if (GetFileStats(SMILE_FILE,&stat,&err)==-1)
   \   00000008   ........           LDR      R6,??DataTable6  ;; SMILE_FILE
   \   0000000C   2CD04DE2           SUB      SP,SP,#+44
   \   00000010   ........           BL       FreeSmiles
   \   00000014   2A00A0E3           MOV      R0,#+42
   \   00000018   E10C80E3           ORR      R0,R0,#0xE100
   \   0000001C   3C0084E5           STR      R0,[R4, #+60]
   \   00000020   0050E0E3           MVN      R5,#+0
   \   00000024   0D20A0E1           MOV      R2,SP
   \   00000028   04108DE2           ADD      R1,SP,#+4
   \   0000002C   0600A0E1           MOV      R0,R6
   \   00000030   840000EF           SWI      +132
   \   00000034   050050E1           CMP      R0,R5
   \   00000038   2400000A           BEQ      ??InitSmiles_0
    112              return;
    113          
    114            if ((fsize=stat.size)<=0)
   \   0000003C   08709DE5           LDR      R7,[SP, #+8]
   \   00000040   010057E3           CMP      R7,#+1
   \   00000044   210000BA           BLT      ??InitSmiles_0
    115              return;
    116          
    117            if ((f=fopen(SMILE_FILE,A_ReadOnly+A_BIN,P_READ,&err))==-1)
   \   00000048   0D30A0E1           MOV      R3,SP
   \   0000004C   8020A0E3           MOV      R2,#+128
   \   00000050   801CA0E3           MOV      R1,#+32768
   \   00000054   0600A0E1           MOV      R0,R6
   \   00000058   0A0000EF           SWI      +10
   \   0000005C   0060A0E1           MOV      R6,R0
   \   00000060   050056E1           CMP      R6,R5
   \   00000064   1900000A           BEQ      ??InitSmiles_0
    118              return;
    119          
    120            buf=s_buf=p_buf=malloc(fsize+1);
   \   00000068   010087E2           ADD      R0,R7,#+1
   \   0000006C   140000EF           SWI      +20
   \   00000070   0050A0E1           MOV      R5,R0
   \   00000074   305084E5           STR      R5,[R4, #+48]
   \   00000078   345084E5           STR      R5,[R4, #+52]
    121            buf[fread(f,buf,fsize,&err)]=0;
   \   0000007C   0080A0E3           MOV      R8,#+0
   \   00000080   0D30A0E1           MOV      R3,SP
   \   00000084   0720A0E1           MOV      R2,R7
   \   00000088   0510A0E1           MOV      R1,R5
   \   0000008C   0600A0E1           MOV      R0,R6
   \   00000090   0B0000EF           SWI      +11
   \   00000094   0580C0E7           STRB     R8,[R0, +R5]
    122            fclose(f,&err);
   \   00000098   0D10A0E1           MOV      R1,SP
   \   0000009C   0600A0E1           MOV      R0,R6
   \   000000A0   0D0000EF           SWI      +13
    123            //f=fopen("4:\\smiles.cfg",A_ReadWrite+A_BIN+A_Create+A_Append,P_READ+P_WRITE,&err);
    124            gipc.name_to=ipc_my_name;
   \   000000A4   ........           LDR      R0,??DataTable18  ;; ipc_my_name
    125            gipc.name_from=ipc_my_name;
    126            gipc.data=0;
   \   000000A8   088084E5           STR      R8,[R4, #+8]
   \   000000AC   000084E5           STR      R0,[R4, #+0]
   \   000000B0   040084E5           STR      R0,[R4, #+4]
    127            
    128            GBS_SendMessage(MMI_CEPID,MSG_IPC,IPC_SMILE_PROCESSED,&gipc);
   \   000000B4   0430A0E1           MOV      R3,R4
   \   000000B8   0220A0E3           MOV      R2,#+2
   \   000000BC   B010A0E3           MOV      R1,#+176
   \   000000C0   DE1C81E3           ORR      R1,R1,#0xDE00
   \   000000C4   0900A0E3           MOV      R0,#+9
   \   000000C8   420C80E3           ORR      R0,R0,#0x4200
   \   000000CC   000100EF           SWI      +256
    129          }
   \                     ??InitSmiles_0:
   \   000000D0   2CD08DE2           ADD      SP,SP,#+44       ;; stack cleaning
   \   000000D4   F081BDE8           POP      {R4-R8,PC}       ;; return
    130          

   \                                 In segment CODE, align 4, keep-with-next
    131          void CheckSmiles(void) //2026rev
    132          {
   \                     CheckSmiles:
   \   00000000   F0402DE9           PUSH     {R4-R7,LR}
    133            int f;
    134            unsigned int err;
    135            int fsize;
    136            char *buf, *p_buf;
    137            FSTATS stat;
    138          
    139            if (GetFileStats(SMILE_FILE,&stat,&err)==-1)
   \   00000004   ........           LDR      R5,??DataTable6  ;; SMILE_FILE
   \   00000008   2CD04DE2           SUB      SP,SP,#+44
   \   0000000C   0040E0E3           MVN      R4,#+0
   \   00000010   0D20A0E1           MOV      R2,SP
   \   00000014   04108DE2           ADD      R1,SP,#+4
   \   00000018   0500A0E1           MOV      R0,R5
   \   0000001C   840000EF           SWI      +132
   \   00000020   040050E1           CMP      R0,R4
   \   00000024   2C00000A           BEQ      ??CheckSmiles_0
    140              return;
    141          
    142            if ((fsize=stat.size)<=0)
   \   00000028   08609DE5           LDR      R6,[SP, #+8]
   \   0000002C   010056E3           CMP      R6,#+1
   \   00000030   290000BA           BLT      ??CheckSmiles_0
    143              return;
    144          
    145            if ((f=fopen(SMILE_FILE,A_ReadOnly+A_BIN,P_READ,&err))==-1)
   \   00000034   0D30A0E1           MOV      R3,SP
   \   00000038   8020A0E3           MOV      R2,#+128
   \   0000003C   801CA0E3           MOV      R1,#+32768
   \   00000040   0500A0E1           MOV      R0,R5
   \   00000044   0A0000EF           SWI      +10
   \   00000048   0070A0E1           MOV      R7,R0
   \   0000004C   040057E1           CMP      R7,R4
   \   00000050   2100000A           BEQ      ??CheckSmiles_0
    146              return;
    147          
    148            buf=p_buf=malloc(fsize+1);
   \   00000054   010086E2           ADD      R0,R6,#+1
   \   00000058   140000EF           SWI      +20
   \   0000005C   0040A0E1           MOV      R4,R0
    149            buf[fread(f,buf,fsize,&err)]=0;
   \   00000060   0D30A0E1           MOV      R3,SP
   \   00000064   0620A0E1           MOV      R2,R6
   \   00000068   0410A0E1           MOV      R1,R4
   \   0000006C   0700A0E1           MOV      R0,R7
   \   00000070   0B0000EF           SWI      +11
   \   00000074   0010A0E3           MOV      R1,#+0
   \   00000078   0410C0E7           STRB     R1,[R0, +R4]
    150            fclose(f,&err);
   \   0000007C   0D10A0E1           MOV      R1,SP
   \   00000080   0700A0E1           MOV      R0,R7
   \   00000084   0D0000EF           SWI      +13
    151            
    152            f = pictures_max;
   \   00000088   ........           LDR      R0,??DataTable10  ;; gipc
   \   0000008C   0450A0E1           MOV      R5,R4
   \   00000090   281090E5           LDR      R1,[R0, #+40]
    153            for(buf=p_buf;*buf; buf++)
   \   00000094   0010D5E5           LDRB     R1,[R5, #+0]
   \   00000098   000051E3           CMP      R1,#+0
   \   0000009C   0C00000A           BEQ      ??CheckSmiles_1
    154              if(*buf == ':')
   \                     ??CheckSmiles_2:
   \   000000A0   0010D5E5           LDRB     R1,[R5, #+0]
   \   000000A4   3A0051E3           CMP      R1,#+58
   \   000000A8   0600001A           BNE      ??CheckSmiles_3
    155              {
    156                buf++;
    157                while(*buf && *buf != 0x0D) buf++;
   \                     ??CheckSmiles_4:
   \   000000AC   0110F5E5           LDRB     R1,[R5, #+1]!
   \   000000B0   000051E3           CMP      R1,#+0
   \   000000B4   0D005113           CMPNE    R1,#+13
   \   000000B8   FBFFFF1A           BNE      ??CheckSmiles_4
    158                pictures_max++;
   \   000000BC   281090E5           LDR      R1,[R0, #+40]
   \   000000C0   011081E2           ADD      R1,R1,#+1
   \   000000C4   281080E5           STR      R1,[R0, #+40]
    159              }
   \                     ??CheckSmiles_3:
   \   000000C8   0110F5E5           LDRB     R1,[R5, #+1]!
   \   000000CC   000051E3           CMP      R1,#+0
   \   000000D0   F2FFFF1A           BNE      ??CheckSmiles_2
    160          /*  if(f == pictures_max)                 //a vdrug krivye perevody strok?
    161            {
    162              for(buf=p_buf;*buf; buf++)
    163              if(*buf == 0x0A)
    164              {
    165                buf++;
    166                while(*buf && *buf != 0x0A && *buf!=':') buf++;
    167                if(*buf!=':') pictures_max++;
    168              }
    169            }*/
    170            mfree(p_buf);
   \                     ??CheckSmiles_1:
   \   000000D4   0400A0E1           MOV      R0,R4
   \   000000D8   150000EF           SWI      +21
    171          }
   \                     ??CheckSmiles_0:
   \   000000DC   2CD08DE2           ADD      SP,SP,#+44       ;; stack cleaning
   \   000000E0   F080BDE8           POP      {R4-R7,PC}       ;; return
    172          
    173          extern char logmsg2[256];
    174          extern int ShowLoadScreen;
    175          extern void SMART_REDRAW(void);

   \                                 In segment CODE, align 4, keep-with-next
    176          void ProcessNextSmile(void)  
    177          {  
   \                     ProcessNextSmile:
   \   00000000   F0432DE9           PUSH     {R4-R9,LR}
    178            int c;
    179            char fn[128];
    180            DYNPNGICONLIST *dp;
    181            S_SMILES *si;
    182            STXT_SMILES *st;
    183            char *buf=p_buf;
   \   00000004   ........           LDR      R4,??DataTable16  ;; gipc
   \   00000008   84D04DE2           SUB      SP,SP,#+132
   \   0000000C   306094E5           LDR      R6,[R4, #+48]
    184          //  char s[256];
    185            if (!buf) return;
   \   00000010   0050A0E3           MOV      R5,#+0
   \   00000014   000056E3           CMP      R6,#+0
   \   00000018   0600001A           BNE      ??ProcessNextSmile_0
   \   0000001C   190000EA           B        ??ProcessNextSmile_1
    186            while ((c=*buf))
    187            {
    188              char *p;
    189              if ((c==10)||(c==13))
    190              {
    191                buf++;
    192                gipc.name_to=ipc_my_name;
    193                gipc.name_from=ipc_my_name;
    194                gipc.data=0;
    195                GBS_SendMessage(MMI_CEPID,MSG_IPC,IPC_SMILE_PROCESSED,&gipc);
    196                p_buf=buf;
    197                return;
    198              }
    199              p=strchr(buf,':');
    200              if (!p) break;
    201              zeromem(fn,128);
    202              strcpy(fn,SMILE_PATH);
    203              if (fn[strlen(fn)-1]!='\\') strcat(fn,"\\");
    204              c=p-buf;
    205              if (c>(127-strlen(fn))) break;
    206              strncpy(fn+strlen(fn),buf,c);
    207              snprintf(logmsg2,255,"\n%s...",fn);
    208              if(ShowLoadScreen) SMART_REDRAW();
    209              buf=p;
    210              dp=malloc(sizeof(DYNPNGICONLIST));
    211              zeromem(dp,sizeof(DYNPNGICONLIST));
    212              dp->icon=GetPicNByUnicodeSymbol(n_pic);
    213              dp->img=CreateIMGHDRFromPngFile(fn,0);
    214              LockSched();
    215              if (SmilesImgList)
    216              {
    217                dp->next=SmilesImgList;
    218              }
    219              SmilesImgList=dp;
    220              UnlockSched();
    221              si=malloc(sizeof(S_SMILES));
    222              si->next=NULL;
    223              si->lines=NULL;
    224              si->botlines=NULL;
    225              si->uni_smile=n_pic;
    226              if (s_bot)
    227              {
    228                //Не первый
    229                s_bot->next=si;
    230                s_bot=si;
    231              }
    232              else
    233              {
    234                //Первый
    235                s_top=si;
    236                s_bot=si;
    237              }
    238              n_pic++;
    239              while (*buf!=10 && *buf!=13 && *buf!=0)
    240              {
    241                buf++;
    242                int i=0;
    243                while (buf[i]!=0&&buf [i]!=','&&buf [i]!=10&&buf[i]!=13)  i++;
    244                st=malloc(sizeof(STXT_SMILES)+i);
    245                strncpy(st->text,buf,i);
    246                st->text[i]=0;
    247                
    248                st->next=NULL;
    249                st->key=*((unsigned long *)st->text);
    250                st->mask=~(0xFFFFFFFFUL<<(8*i));
    251                st->key&=st->mask;
    252                if (si->botlines)
    253                {
    254          	si->botlines->next=st;
    255          	si->botlines=st;
    256                }
    257                else
    258                {
    259          	si->lines=st;
    260          	si->botlines=st;
    261                }
    262                buf+=i;
    263              }
    264              total_smiles++;
   \                     ??ProcessNextSmile_2:
   \   00000020   1C0094E5           LDR      R0,[R4, #+28]
   \   00000024   010080E2           ADD      R0,R0,#+1
   \   00000028   1C0084E5           STR      R0,[R4, #+28]
    265              pictures_loaded++; //2026rev
   \   0000002C   2C0094E5           LDR      R0,[R4, #+44]
   \   00000030   010080E2           ADD      R0,R0,#+1
   \   00000034   2C0084E5           STR      R0,[R4, #+44]
   \                     ??ProcessNextSmile_0:
   \   00000038   0090D6E5           LDRB     R9,[R6, #+0]
   \   0000003C   1C739FE5           LDR      R7,??ProcessNextSmile_3+0x4  ;; logmsg2
   \   00000040   000059E3           CMP      R9,#+0
   \   00000044   BA00000A           BEQ      ??ProcessNextSmile_4
   \   00000048   0A0059E3           CMP      R9,#+10
   \   0000004C   0D005913           CMPNE    R9,#+13
   \   00000050   0E00001A           BNE      ??ProcessNextSmile_5
   \   00000054   ........           LDR      R0,??DataTable18  ;; ipc_my_name
   \   00000058   085084E5           STR      R5,[R4, #+8]
   \   0000005C   000084E5           STR      R0,[R4, #+0]
   \   00000060   040084E5           STR      R0,[R4, #+4]
   \   00000064   0430A0E1           MOV      R3,R4
   \   00000068   0220A0E3           MOV      R2,#+2
   \   0000006C   B010A0E3           MOV      R1,#+176
   \   00000070   DE1C81E3           ORR      R1,R1,#0xDE00
   \   00000074   0900A0E3           MOV      R0,#+9
   \   00000078   420C80E3           ORR      R0,R0,#0x4200
   \   0000007C   000100EF           SWI      +256
   \   00000080   016086E2           ADD      R6,R6,#+1
   \   00000084   306084E5           STR      R6,[R4, #+48]
   \                     ??ProcessNextSmile_1:
   \   00000088   84D08DE2           ADD      SP,SP,#+132
   \   0000008C   F083BDE8           POP      {R4-R9,PC}
   \                     ??ProcessNextSmile_5:
   \   00000090   3A10A0E3           MOV      R1,#+58
   \   00000094   0600A0E1           MOV      R0,R6
   \   00000098   180000EF           SWI      +24
   \   0000009C   0080B0E1           MOVS     R8,R0
   \   000000A0   A300000A           BEQ      ??ProcessNextSmile_4
   \   000000A4   8010A0E3           MOV      R1,#+128
   \   000000A8   04008DE2           ADD      R0,SP,#+4
   \   000000AC   1D0100EF           SWI      +285
   \   000000B0   AC129FE5           LDR      R1,??ProcessNextSmile_3+0x8  ;; SMILE_PATH
   \   000000B4   04008DE2           ADD      R0,SP,#+4
   \   000000B8   1A0000EF           SWI      +26
   \   000000BC   04008DE2           ADD      R0,SP,#+4
   \   000000C0   1B0000EF           SWI      +27
   \   000000C4   04108DE2           ADD      R1,SP,#+4
   \   000000C8   010080E0           ADD      R0,R0,R1
   \   000000CC   010050E5           LDRB     R0,[R0, #-1]
   \   000000D0   5C0050E3           CMP      R0,#+92
   \   000000D4   0200000A           BEQ      ??ProcessNextSmile_6
   \   000000D8   9F1F8FE2           ADR      R1,??ProcessNextSmile_3  ;; "\\"
   \   000000DC   04008DE2           ADD      R0,SP,#+4
   \   000000E0   170000EF           SWI      +23
   \                     ??ProcessNextSmile_6:
   \   000000E4   069048E0           SUB      R9,R8,R6
   \   000000E8   04008DE2           ADD      R0,SP,#+4
   \   000000EC   1B0000EF           SWI      +27
   \   000000F0   7F0060E2           RSB      R0,R0,#+127
   \   000000F4   090050E1           CMP      R0,R9
   \   000000F8   8D00003A           BCC      ??ProcessNextSmile_4
   \   000000FC   04008DE2           ADD      R0,SP,#+4
   \   00000100   1B0000EF           SWI      +27
   \   00000104   0920A0E1           MOV      R2,R9
   \   00000108   0610A0E1           MOV      R1,R6
   \   0000010C   04308DE2           ADD      R3,SP,#+4
   \   00000110   030080E0           ADD      R0,R0,R3
   \   00000114   160100EF           SWI      +278
   \   00000118   48229FE5           LDR      R2,??ProcessNextSmile_3+0xC  ;; `?<Constant "\\n%s...">`
   \   0000011C   04308DE2           ADD      R3,SP,#+4
   \   00000120   FF10A0E3           MOV      R1,#+255
   \   00000124   0700A0E1           MOV      R0,R7
   \   00000128   1B0100EF           SWI      +283
   \   0000012C   38029FE5           LDR      R0,??ProcessNextSmile_3+0x10  ;; ShowLoadScreen
   \   00000130   000090E5           LDR      R0,[R0, #+0]
   \   00000134   000050E3           CMP      R0,#+0
   \   00000138   0000000A           BEQ      ??ProcessNextSmile_7
   \   0000013C   ........           _BLF     SMART_REDRAW,??SMART_REDRAW??rA
   \                     ??ProcessNextSmile_7:
   \   00000140   0C00A0E3           MOV      R0,#+12
   \   00000144   140000EF           SWI      +20
   \   00000148   0070A0E1           MOV      R7,R0
   \   0000014C   0C10A0E3           MOV      R1,#+12
   \   00000150   1D0100EF           SWI      +285
   \   00000154   3C0094E5           LDR      R0,[R4, #+60]
   \   00000158   0860A0E1           MOV      R6,R8
   \   0000015C   E40100EF           SWI      +484
   \   00000160   040087E5           STR      R0,[R7, #+4]
   \   00000164   0010A0E3           MOV      R1,#+0
   \   00000168   04008DE2           ADD      R0,SP,#+4
   \   0000016C   E90100EF           SWI      +489
   \   00000170   080087E5           STR      R0,[R7, #+8]
   \   00000174   460100EF           SWI      +326
   \   00000178   100094E5           LDR      R0,[R4, #+16]
   \   0000017C   000050E3           CMP      R0,#+0
   \   00000180   00008715           STRNE    R0,[R7, #+0]
   \   00000184   107084E5           STR      R7,[R4, #+16]
   \   00000188   470100EF           SWI      +327
   \   0000018C   1000A0E3           MOV      R0,#+16
   \   00000190   140000EF           SWI      +20
   \   00000194   0070A0E1           MOV      R7,R0
   \   00000198   005087E5           STR      R5,[R7, #+0]
   \   0000019C   085087E5           STR      R5,[R7, #+8]
   \   000001A0   0C5087E5           STR      R5,[R7, #+12]
   \   000001A4   3C0094E5           LDR      R0,[R4, #+60]
   \   000001A8   040087E5           STR      R0,[R7, #+4]
   \   000001AC   381094E5           LDR      R1,[R4, #+56]
   \   000001B0   010080E2           ADD      R0,R0,#+1
   \   000001B4   000051E3           CMP      R1,#+0
   \   000001B8   00708115           STRNE    R7,[R1, #+0]
   \   000001BC   0C708405           STREQ    R7,[R4, #+12]
   \   000001C0   0710A0E1           MOV      R1,R7
   \   000001C4   381084E5           STR      R1,[R4, #+56]
   \   000001C8   3C0084E5           STR      R0,[R4, #+60]
   \   000001CC   020000EA           B        ??ProcessNextSmile_8
   \                     ??ProcessNextSmile_9:
   \   000001D0   089087E5           STR      R9,[R7, #+8]
   \                     ??ProcessNextSmile_10:
   \   000001D4   0C9087E5           STR      R9,[R7, #+12]
   \   000001D8   066088E0           ADD      R6,R8,R6
   \                     ??ProcessNextSmile_8:
   \   000001DC   0000D6E5           LDRB     R0,[R6, #+0]
   \   000001E0   0A0050E3           CMP      R0,#+10
   \   000001E4   0D005013           CMPNE    R0,#+13
   \   000001E8   00005013           CMPNE    R0,#+0
   \   000001EC   8BFFFF0A           BEQ      ??ProcessNextSmile_2
   \   000001F0   016086E2           ADD      R6,R6,#+1
   \   000001F4   0080A0E3           MOV      R8,#+0
   \   000001F8   000000EA           B        ??ProcessNextSmile_11
   \                     ??ProcessNextSmile_12:
   \   000001FC   018088E2           ADD      R8,R8,#+1
   \                     ??ProcessNextSmile_11:
   \   00000200   0600D8E7           LDRB     R0,[R8, +R6]
   \   00000204   000050E3           CMP      R0,#+0
   \   00000208   2C005013           CMPNE    R0,#+44
   \   0000020C   0A005013           CMPNE    R0,#+10
   \   00000210   0D005013           CMPNE    R0,#+13
   \   00000214   F8FFFF1A           BNE      ??ProcessNextSmile_12
   \   00000218   0D0088E2           ADD      R0,R8,#+13
   \   0000021C   140000EF           SWI      +20
   \   00000220   0090A0E1           MOV      R9,R0
   \   00000224   0820A0E1           MOV      R2,R8
   \   00000228   0610A0E1           MOV      R1,R6
   \   0000022C   0C0089E2           ADD      R0,R9,#+12
   \   00000230   160100EF           SWI      +278
   \   00000234   090088E0           ADD      R0,R8,R9
   \   00000238   0C50C0E5           STRB     R5,[R0, #+12]
   \   0000023C   00508DE5           STR      R5,[SP, #+0]
   \   00000240   0000A0E3           MOV      R0,#+0
   \                     ??ProcessNextSmile_13:
   \   00000244   0D10A0E1           MOV      R1,SP
   \   00000248   0110D0E7           LDRB     R1,[R0, +R1]
   \   0000024C   0910C0E7           STRB     R1,[R0, +R9]
   \   00000250   010080E2           ADD      R0,R0,#+1
   \   00000254   040050E3           CMP      R0,#+4
   \   00000258   F9FFFFBA           BLT      ??ProcessNextSmile_13
   \   0000025C   0C0099E5           LDR      R0,[R9, #+12]
   \   00000260   0810A0E1           MOV      R1,R8
   \   00000264   0400C9E5           STRB     R0,[R9, #+4]
   \   00000268   2004A0E1           LSR      R0,R0,#+8
   \   0000026C   0500C9E5           STRB     R0,[R9, #+5]
   \   00000270   2004A0E1           LSR      R0,R0,#+8
   \   00000274   0600C9E5           STRB     R0,[R9, #+6]
   \   00000278   2004A0E1           LSR      R0,R0,#+8
   \   0000027C   0700C9E5           STRB     R0,[R9, #+7]
   \   00000280   0500E0E1           MVN      R0,R5
   \   00000284   8111A0E1           LSL      R1,R1,#+3
   \   00000288   1001E0E1           MVN      R0,R0, LSL R1
   \   0000028C   0800C9E5           STRB     R0,[R9, #+8]
   \   00000290   2004A0E1           LSR      R0,R0,#+8
   \   00000294   0900C9E5           STRB     R0,[R9, #+9]
   \   00000298   2004A0E1           LSR      R0,R0,#+8
   \   0000029C   0A00C9E5           STRB     R0,[R9, #+10]
   \   000002A0   2004A0E1           LSR      R0,R0,#+8
   \   000002A4   0B00C9E5           STRB     R0,[R9, #+11]
   \   000002A8   0700D9E5           LDRB     R0,[R9, #+7]
   \   000002AC   0610D9E5           LDRB     R1,[R9, #+6]
   \   000002B0   0A20D9E5           LDRB     R2,[R9, #+10]
   \   000002B4   000481E1           ORR      R0,R1,R0, LSL #+8
   \   000002B8   0510D9E5           LDRB     R1,[R9, #+5]
   \   000002BC   000481E1           ORR      R0,R1,R0, LSL #+8
   \   000002C0   0410D9E5           LDRB     R1,[R9, #+4]
   \   000002C4   000481E1           ORR      R0,R1,R0, LSL #+8
   \   000002C8   0B10D9E5           LDRB     R1,[R9, #+11]
   \   000002CC   011482E1           ORR      R1,R2,R1, LSL #+8
   \   000002D0   0920D9E5           LDRB     R2,[R9, #+9]
   \   000002D4   011482E1           ORR      R1,R2,R1, LSL #+8
   \   000002D8   0820D9E5           LDRB     R2,[R9, #+8]
   \   000002DC   011482E1           ORR      R1,R2,R1, LSL #+8
   \   000002E0   000001E0           AND      R0,R1,R0
   \   000002E4   0400C9E5           STRB     R0,[R9, #+4]
   \   000002E8   2004A0E1           LSR      R0,R0,#+8
   \   000002EC   0500C9E5           STRB     R0,[R9, #+5]
   \   000002F0   2004A0E1           LSR      R0,R0,#+8
   \   000002F4   0600C9E5           STRB     R0,[R9, #+6]
   \   000002F8   2004A0E1           LSR      R0,R0,#+8
   \   000002FC   0700C9E5           STRB     R0,[R9, #+7]
   \   00000300   0C0097E5           LDR      R0,[R7, #+12]
   \   00000304   000050E3           CMP      R0,#+0
   \   00000308   B0FFFF0A           BEQ      ??ProcessNextSmile_9
   \   0000030C   00908DE5           STR      R9,[SP, #+0]
   \   00000310   0000A0E3           MOV      R0,#+0
   \                     ??ProcessNextSmile_14:
   \   00000314   0C1097E5           LDR      R1,[R7, #+12]
   \   00000318   0D20A0E1           MOV      R2,SP
   \   0000031C   0220D0E7           LDRB     R2,[R0, +R2]
   \   00000320   0120C0E7           STRB     R2,[R0, +R1]
   \   00000324   010080E2           ADD      R0,R0,#+1
   \   00000328   040050E3           CMP      R0,#+4
   \   0000032C   F8FFFFBA           BLT      ??ProcessNextSmile_14
   \   00000330   A7FFFFEA           B        ??ProcessNextSmile_10
    266            }
    267            zeromem(logmsg2,256);
   \                     ??ProcessNextSmile_4:
   \   00000334   401FA0E3           MOV      R1,#+256
   \   00000338   0700A0E1           MOV      R0,R7
   \   0000033C   1D0100EF           SWI      +285
    268            //fclose(f,&err);
    269            //total_smiles=0; //2058 rev
    270            p_buf=NULL;
    271            mfree(s_buf);
   \   00000340   340094E5           LDR      R0,[R4, #+52]
   \   00000344   305084E5           STR      R5,[R4, #+48]
   \   00000348   150000EF           SWI      +21
    272            s_buf=NULL;
   \   0000034C   345084E5           STR      R5,[R4, #+52]
    273            REDRAW();
   \   00000350   720100EF           SWI      +370
    274          }
   \   00000354   84D08DE2           ADD      SP,SP,#+132
   \   00000358   F083BDE8           POP      {R4-R9,PC}       ;; return
   \                     ??ProcessNextSmile_3:
   \   0000035C   5C000000           DC8      "\\",+0,+0
   \   00000360   ........           DC32     logmsg2
   \   00000364   ........           DC32     SMILE_PATH
   \   00000368   ........           DC32     `?<Constant "\\n%s...">`
   \   0000036C   ........           DC32     ShowLoadScreen
    275          

   \                                 In segment CODE, align 4, keep-with-next
    276          void FreeXStatusesImg(void)
    277          {
   \                     FreeXStatusesImg:
   \   00000000   70402DE9           PUSH     {R4-R6,LR}
    278            DYNPNGICONLIST *d;
    279            DYNPNGICONLIST *nd;
    280            LockSched();
    281            total_xstatuses=0;
   \   00000004   ........           LDR      R4,??DataTable10  ;; gipc
   \   00000008   0050A0E3           MOV      R5,#+0
   \   0000000C   460100EF           SWI      +326
   \   00000010   205084E5           STR      R5,[R4, #+32]
    282            d=XStatusesImgList;
   \   00000014   146094E5           LDR      R6,[R4, #+20]
    283            XStatusesImgList=0;
   \   00000018   145084E5           STR      R5,[R4, #+20]
    284            UnlockSched();
   \   0000001C   470100EF           SWI      +327
    285            mfree(XStatusesIconArray);
   \   00000020   180094E5           LDR      R0,[R4, #+24]
   \   00000024   150000EF           SWI      +21
    286            XStatusesIconArray=NULL;
   \   00000028   185084E5           STR      R5,[R4, #+24]
   \   0000002C   000056E3           CMP      R6,#+0
   \   00000030   7080BD08           POPEQ    {R4-R6,PC}
    287            while(d)
    288            {/*
    289              if (d->img)
    290              {
    291                mfree(d->img->bitmap);
    292                mfree(d->img);
    293              }*/
    294              nd=d->next;
   \                     ??FreeXStatusesImg_0:
   \   00000034   004096E5           LDR      R4,[R6, #+0]
    295              mfree(d);
   \   00000038   0600A0E1           MOV      R0,R6
   \   0000003C   150000EF           SWI      +21
    296              d=nd;
   \   00000040   0460B0E1           MOVS     R6,R4
    297            }
   \   00000044   FAFFFF1A           BNE      ??FreeXStatusesImg_0
    298          }
   \   00000048   7080BDE8           POP      {R4-R6,PC}       ;; return
    299          

   \                                 In segment CODE, align 4, keep-with-next
    300          void InitXStatusesImg(void)
    301          {
   \                     InitXStatusesImg:
   \   00000000   F0412DE9           PUSH     {R4-R8,LR}
    302            char fn[128];//2026rev
    303            FSTATS stat;//2026rev
    304            unsigned err;//2026rev
    305            
    306            FreeXStatusesImg();
    307            total_xstatuses=0;
   \   00000004   ........           LDR      R4,??DataTable16  ;; gipc
   \   00000008   ACD04DE2           SUB      SP,SP,#+172
    308            *(XStatusesIconArray=malloc(sizeof(int)))=S_ICONS[IS_NULLICON];
    309            xstatuses_load=1;
    310            n_pic=FIRST_UCS2_BITMAP;
    311            gipc.name_to=ipc_my_name;
    312            gipc.name_from=ipc_my_name;
    313            gipc.data=0;
    314            //===========2026rev-beg
    315            pictures_max = 0; 
   \   0000000C   ........           LDR      R6,??DataTable17  ;; `?<Constant "\\\\%d.png">`
   \   00000010   ........           BL       FreeXStatusesImg
   \   00000014   0050A0E3           MOV      R5,#+0
   \   00000018   205084E5           STR      R5,[R4, #+32]
   \   0000001C   ........           LDR      R7,??DataTable15  ;; XSTATUSES_PATH
   \   00000020   0400A0E3           MOV      R0,#+4
   \   00000024   140000EF           SWI      +20
   \   00000028   BC109FE5           LDR      R1,??InitXStatusesImg_0  ;; S_ICONS + 68
   \   0000002C   180084E5           STR      R0,[R4, #+24]
   \   00000030   001091E5           LDR      R1,[R1, #+0]
   \   00000034   001080E5           STR      R1,[R0, #+0]
   \   00000038   0100A0E3           MOV      R0,#+1
   \   0000003C   240084E5           STR      R0,[R4, #+36]
   \   00000040   2A00A0E3           MOV      R0,#+42
   \   00000044   E10C80E3           ORR      R0,R0,#0xE100
   \   00000048   3C0084E5           STR      R0,[R4, #+60]
   \   0000004C   ........           LDR      R0,??DataTable18  ;; ipc_my_name
   \   00000050   085084E5           STR      R5,[R4, #+8]
   \   00000054   000084E5           STR      R0,[R4, #+0]
   \   00000058   040084E5           STR      R0,[R4, #+4]
   \   0000005C   285084E5           STR      R5,[R4, #+40]
   \   00000060   0550E0E1           MVN      R5,R5
    316            do
    317            {
    318              strcpy(fn,XSTATUSES_PATH);
   \                     ??InitXStatusesImg_1:
   \   00000064   04008DE2           ADD      R0,SP,#+4
   \   00000068   0710A0E1           MOV      R1,R7
   \   0000006C   1A0000EF           SWI      +26
    319              sprintf(fn+strlen(fn),"\\%d.png",pictures_max++);
   \   00000070   288094E5           LDR      R8,[R4, #+40]
   \   00000074   010088E2           ADD      R0,R8,#+1
   \   00000078   280084E5           STR      R0,[R4, #+40]
   \   0000007C   04008DE2           ADD      R0,SP,#+4
   \   00000080   1B0000EF           SWI      +27
   \   00000084   0820A0E1           MOV      R2,R8
   \   00000088   0610A0E1           MOV      R1,R6
   \   0000008C   04308DE2           ADD      R3,SP,#+4
   \   00000090   030080E0           ADD      R0,R0,R3
   \   00000094   160000EF           SWI      +22
    320              if (GetFileStats(fn,&stat,&err)==-1) break;
   \   00000098   0D20A0E1           MOV      R2,SP
   \   0000009C   84108DE2           ADD      R1,SP,#+132
   \   000000A0   04008DE2           ADD      R0,SP,#+4
   \   000000A4   840000EF           SWI      +132
   \   000000A8   050050E1           CMP      R0,R5
    321            }  
    322            while (stat.size>0);
   \   000000AC   88009D15           LDRNE    R0,[SP, #+136]
   \   000000B0   00005013           CMPNE    R0,#+0
   \   000000B4   EAFFFF1A           BNE      ??InitXStatusesImg_1
    323            pictures_max--;
   \   000000B8   280094E5           LDR      R0,[R4, #+40]
   \   000000BC   010040E2           SUB      R0,R0,#+1
   \   000000C0   280084E5           STR      R0,[R4, #+40]
    324            CheckSmiles();
   \   000000C4   ........           BL       CheckSmiles
    325            //===========2026rev-end
    326            GBS_SendMessage(MMI_CEPID,MSG_IPC,IPC_XSTATUSIMG_PROCESSED,&gipc);
   \   000000C8   0430A0E1           MOV      R3,R4
   \   000000CC   0320A0E3           MOV      R2,#+3
   \   000000D0   B010A0E3           MOV      R1,#+176
   \   000000D4   DE1C81E3           ORR      R1,R1,#0xDE00
   \   000000D8   0900A0E3           MOV      R0,#+9
   \   000000DC   420C80E3           ORR      R0,R0,#0x4200
   \   000000E0   000100EF           SWI      +256
    327          }
   \   000000E4   ACD08DE2           ADD      SP,SP,#+172
   \   000000E8   F081BDE8           POP      {R4-R8,PC}       ;; return
   \                     ??InitXStatusesImg_0:
   \   000000EC   ........           DC32     S_ICONS + 68
    328          

   \                                 In segment CODE, align 4, keep-with-next
    329          void ProcessNextXStatImg(void)
    330          {
    331            char fn[128];
    332            DYNPNGICONLIST *dp;
    333            unsigned int err;
    334            FSTATS stat;
    335            int i;
    336            
    337            strcpy(fn,XSTATUSES_PATH);
   \                     ProcessNextXStatImg:
   \   00000000   ........           LDR      R1,??DataTable15  ;; XSTATUSES_PATH
   \   00000004   F0402DE9           PUSH     {R4-R7,LR}
    338            sprintf(fn+strlen(fn),"\\%d.png",total_xstatuses);
   \   00000008   ........           LDR      R4,??DataTable16  ;; gipc
   \   0000000C   ACD04DE2           SUB      SP,SP,#+172
   \   00000010   04008DE2           ADD      R0,SP,#+4
   \   00000014   1A0000EF           SWI      +26
   \   00000018   205094E5           LDR      R5,[R4, #+32]
   \   0000001C   04008DE2           ADD      R0,SP,#+4
   \   00000020   1B0000EF           SWI      +27
   \   00000024   ........           LDR      R1,??DataTable17  ;; `?<Constant "\\\\%d.png">`
   \   00000028   0520A0E1           MOV      R2,R5
   \   0000002C   04308DE2           ADD      R3,SP,#+4
   \   00000030   030080E0           ADD      R0,R0,R3
   \   00000034   160000EF           SWI      +22
    339            if (GetFileStats(fn,&stat,&err)!=-1)
   \   00000038   0D20A0E1           MOV      R2,SP
   \   0000003C   84108DE2           ADD      R1,SP,#+132
   \   00000040   04008DE2           ADD      R0,SP,#+4
   \   00000044   840000EF           SWI      +132
   \   00000048   010070E3           CMN      R0,#+1
    340            {
    341              if (stat.size>0)
   \   0000004C   88009D15           LDRNE    R0,[SP, #+136]
   \   00000050   0050A0E3           MOV      R5,#+0
   \   00000054   00005013           CMPNE    R0,#+0
   \   00000058   3100000A           BEQ      ??ProcessNextXStatImg_0
    342              {
    343                dp=malloc(sizeof(DYNPNGICONLIST));
   \   0000005C   0C00A0E3           MOV      R0,#+12
   \   00000060   140000EF           SWI      +20
   \   00000064   0070A0E1           MOV      R7,R0
    344                zeromem(dp,sizeof(DYNPNGICONLIST));
   \   00000068   0C10A0E3           MOV      R1,#+12
   \   0000006C   1D0100EF           SWI      +285
    345                dp->icon=i=GetPicNByUnicodeSymbol(n_pic);
   \   00000070   3C0094E5           LDR      R0,[R4, #+60]
   \   00000074   E40100EF           SWI      +484
   \   00000078   0060A0E1           MOV      R6,R0
   \   0000007C   046087E5           STR      R6,[R7, #+4]
    346                dp->img=CreateIMGHDRFromPngFile(fn,0);
   \   00000080   0010A0E3           MOV      R1,#+0
   \   00000084   04008DE2           ADD      R0,SP,#+4
   \   00000088   E90100EF           SWI      +489
   \   0000008C   080087E5           STR      R0,[R7, #+8]
    347                LockSched();
   \   00000090   460100EF           SWI      +326
    348                if (XStatusesImgList)
   \   00000094   140094E5           LDR      R0,[R4, #+20]
   \   00000098   000050E3           CMP      R0,#+0
    349                {
    350          	dp->next=XStatusesImgList;
   \   0000009C   00008715           STRNE    R0,[R7, #+0]
    351                }
    352                XStatusesImgList=dp;
   \   000000A0   147084E5           STR      R7,[R4, #+20]
    353                UnlockSched();
   \   000000A4   470100EF           SWI      +327
    354                total_xstatuses++;
   \   000000A8   200094E5           LDR      R0,[R4, #+32]
   \   000000AC   010080E2           ADD      R0,R0,#+1
   \   000000B0   200084E5           STR      R0,[R4, #+32]
    355                pictures_loaded++;//2026rev
   \   000000B4   2C0094E5           LDR      R0,[R4, #+44]
   \   000000B8   010080E2           ADD      R0,R0,#+1
   \   000000BC   2C0084E5           STR      R0,[R4, #+44]
    356                XStatusesIconArray=realloc(XStatusesIconArray,(total_xstatuses*sizeof(int)));
   \   000000C0   200094E5           LDR      R0,[R4, #+32]
   \   000000C4   0011A0E1           LSL      R1,R0,#+2
   \   000000C8   180094E5           LDR      R0,[R4, #+24]
   \   000000CC   BA0000EF           SWI      +186
   \   000000D0   180084E5           STR      R0,[R4, #+24]
    357                *(XStatusesIconArray+(total_xstatuses-1))=i;
   \   000000D4   200094E5           LDR      R0,[R4, #+32]
   \   000000D8   181094E5           LDR      R1,[R4, #+24]
    358                n_pic++;
    359                gipc.name_to=ipc_my_name;
    360                gipc.name_from=ipc_my_name;
    361                gipc.data=0;
    362                GBS_SendMessage(MMI_CEPID,MSG_IPC,IPC_XSTATUSIMG_PROCESSED,&gipc);
   \   000000DC   0430A0E1           MOV      R3,R4
   \   000000E0   000181E0           ADD      R0,R1,R0, LSL #+2
   \   000000E4   046000E5           STR      R6,[R0, #-4]
   \   000000E8   3C0094E5           LDR      R0,[R4, #+60]
   \   000000EC   085084E5           STR      R5,[R4, #+8]
   \   000000F0   010080E2           ADD      R0,R0,#+1
   \   000000F4   3C0084E5           STR      R0,[R4, #+60]
   \   000000F8   ........           LDR      R0,??DataTable18  ;; ipc_my_name
   \   000000FC   0320A0E3           MOV      R2,#+3
   \   00000100   000084E5           STR      R0,[R4, #+0]
   \   00000104   040084E5           STR      R0,[R4, #+4]
   \   00000108   B010A0E3           MOV      R1,#+176
   \   0000010C   DE1C81E3           ORR      R1,R1,#0xDE00
   \   00000110   0900A0E3           MOV      R0,#+9
   \   00000114   420C80E3           ORR      R0,R0,#0x4200
   \   00000118   000100EF           SWI      +256
    363                return;
   \   0000011C   ACD08DE2           ADD      SP,SP,#+172
   \   00000120   F080BDE8           POP      {R4-R7,PC}
    364              }
    365            }
    366            xstatuses_load=0;
    367            SUBPROC((void *)InitSmiles);
   \                     ??ProcessNextXStatImg_0:
   \   00000124   0C009FE5           LDR      R0,??ProcessNextXStatImg_1  ;; InitSmiles
   \   00000128   245084E5           STR      R5,[R4, #+36]
   \   0000012C   710100EF           SWI      +369
    368          }
   \   00000130   ACD08DE2           ADD      SP,SP,#+172
   \   00000134   F080BDE8           POP      {R4-R7,PC}       ;; return
   \                     ??ProcessNextXStatImg_1:
   \   00000138   ........           DC32     InitSmiles

   \                                 In segment CODE, align 4, keep-with-next
   \                     ??DataTable1:
   \   00000000   ........           DC32     gipc + 12

   \                                 In segment CODE, align 4, keep-with-next
   \                     ??DataTable6:
   \   00000000   ........           DC32     SMILE_FILE

   \                                 In segment CODE, align 4, keep-with-next
   \                     ??DataTable10:
   \   00000000   ........           DC32     gipc

   \                                 In segment CODE, align 4, keep-with-next
   \                     ??DataTable15:
   \   00000000   ........           DC32     XSTATUSES_PATH

   \                                 In segment CODE, align 4, keep-with-next
   \                     ??DataTable16:
   \   00000000   ........           DC32     gipc

   \                                 In segment CODE, align 4, keep-with-next
   \                     ??DataTable17:
   \   00000000   ........           DC32     `?<Constant "\\\\%d.png">`

   \                                 In segment CODE, align 4, keep-with-next
   \                     ??DataTable18:
   \   00000000   ........           DC32     ipc_my_name

   \                                 In segment DATA_C, align 1, align-sorted
   \   00000000   5C00               DC8 "\\"

   \                                 In segment DATA_C, align 4, align-sorted
   \                     `?<Constant "\\n%s...">`:
   \   00000000   0A25732E2E2E       DC8 "\012%s..."
   \              00          
   \   00000007   00                 DC8 0

   \                                 In segment DATA_C, align 4, align-sorted
   \                     `?<Constant "\\\\%d.png">`:
   \   00000000   5C25642E706E       DC8 "\\%d.png"
   \              6700        

   Maximum stack usage in bytes:

     Function            CSTACK
     --------            ------
     CheckSmiles            64
     FindSmileById           0
     FindSmileByUni          0
     FreeSmiles             28
     FreeXStatusesImg       16
     InitSmiles             68
     InitXStatusesImg      196
     ProcessNextSmile      160
     ProcessNextXStatImg   192


   Segment part sizes:

     Function/Label         Bytes
     --------------         -----
     gipc                     64
     FindSmileById            44
     FindSmileByUni           44
     FreeSmiles              212
     InitSmiles              216
     CheckSmiles             228
     ProcessNextSmile        880
     FreeXStatusesImg         76
     InitXStatusesImg        240
     ProcessNextXStatImg     316
     ??DataTable1              4
     ??DataTable6              4
     ??DataTable10             4
     ??DataTable15             4
     ??DataTable16             4
     ??DataTable17             4
     ??DataTable18             4
     ?<Constant "\\">          2
     ?<Constant "\n%s...">     8
     ?<Constant "\\%d.png">    8
      Others                  60

 
 2 332 bytes in segment CODE
    18 bytes in segment DATA_C
    64 bytes in segment DATA_Z
    12 bytes in segment INITTAB
 
 2 284 bytes of CODE  memory (+ 60 bytes shared)
    18 bytes of CONST memory
    64 bytes of DATA  memory

Errors: none
Warnings: none
