##############################################################################
#                                                                            #
# IAR ARM ANSI C/C++ Compiler V4.42A/W32 EVALUATION    08/Jul/2011  16:25:47 #
# Copyright 1999-2005 IAR Systems. All rights reserved.                      #
#                                                                            #
#    Cpu mode        =  interwork                                            #
#    Endian          =  little                                               #
#    Stack alignment =  4                                                    #
#    Source file     =  D:\pasha\elf\_MY_PROJECT_\_NATICQ2\smiles_loader.c   #
#    Command line    =  D:\pasha\elf\_MY_PROJECT_\_NATICQ2\smiles_loader.c   #
#                       -D X75 -D GUI_INTERFACE -D START_OFFLINE             #
#                       --preprocess D:\pasha\elf\_MY_PROJECT_\_NATICQ2\X75_ #
#                       START_OFFLINE\List\ -lC D:\pasha\elf\_MY_PROJECT_\_N #
#                       ATICQ2\X75_START_OFFLINE\List\ -o                    #
#                       D:\pasha\elf\_MY_PROJECT_\_NATICQ2\X75_START_OFFLINE #
#                       \Obj\ -s9 --no_unroll --cpu_mode arm --endian        #
#                       little --cpu ARM926EJ-S --stack_align 4 --interwork  #
#                       -e --fpu None --dlib_config "D:\pasha\Embedded       #
#                       Workbench 4.0 Evaluation2\ARM\LIB\dl5tpainl8n.h" -I  #
#                       "D:\pasha\Embedded Workbench 4.0                     #
#                       Evaluation2\ARM\INC\" --inline_threshold=2           #
#    List file       =  D:\pasha\elf\_MY_PROJECT_\_NATICQ2\X75_START_OFFLINE #
#                       \List\smiles_loader.lst                              #
#    Object file     =  D:\pasha\elf\_MY_PROJECT_\_NATICQ2\X75_START_OFFLINE #
#                       \Obj\smiles_loader.r79                               #
#                                                                            #
#                                                                            #
##############################################################################

D:\pasha\elf\_MY_PROJECT_\_NATICQ2\smiles_loader.c
      1          #include "../inc/swilib.h"
      2          #include "../inc/pnglist.h"
      3          #include "naticq_ipc.h"
      4          #include "smiles.h"
      5          #include "naticq.h"
      6          #include "strings.h"
      7          #include "readimg.h"
      8          #include "smiles_loader.h"
      9          
     10          
     11          #define ICONS DYNPNGICONLIST
     12          

   \                                 In segment DATA_Z, align 4, align-sorted
     13          S_SMILES *s_top=0;
   \                     s_top:
   \   00000000                      DS8 4
     14          
     15          DYNPNGICONLIST *SmilesImgList;
   \                     SmilesImgList:
   \   00000004                      DS8 4
   \   00000008                      DS8 4
   \   0000000C                      DS8 4
   \   00000010                      DS8 4
   \   00000014                      DS8 4
     16          DYNPNGICONLIST *XStatusesImgList;
     17          
     18          int *XStatusesIconArray;
     19          /*
     20          volatile int total_smiles;
     21          volatile int total_xstatuses;
     22          volatile int xstatuses_load;
     23          volatile int pictures_max;
     24          volatile int pictures_loaded = 0;
     25          volatile int xstatuses_max=0;
     26          */
     27          extern const char SMILE_FILE[];
     28          extern const char SMILE_PATH[];
     29          extern const char XSTATUSES_PATH[];
     30          extern const char ipc_my_name[32];
     31          extern  int S_ICONS[];
     32          
     33          //static IPC_REQ gipc;
     34          static char *p_buf;
     35          static char *s_buf;
     36          static S_SMILES *s_bot;
     37          static int n_pic;
     38          
     39          int cur_smile=0;
   \                     cur_smile:
   \   00000018                      DS8 4
     40          
     41          ICONS *smilestop = NULL;
   \                     smilestop:
   \   0000001C                      DS8 4
     42          ICONS *iconstop = NULL;
   \                     iconstop:
   \   00000020                      DS8 4
     43          ICONS *xiconstop = NULL;
   \                     xiconstop:
   \   00000024                      DS8 4

   \                                 In segment DATA_Z, align 4, align-sorted
   \                     XStatusesImgList:
   \   00000000                      DS8 4

   \                                 In segment DATA_Z, align 4, align-sorted
   \                     XStatusesIconArray:
   \   00000000                      DS8 4
     44          
     45          extern int drawimg2img(IMGHDR * onse, IMGHDR * timage2, int x, int y, int xRect, int yRect,int xxRect, int yyRect);
     46          extern void PressImg(IMGHDR *imgsrc, char freemap);
     47          extern const char *icons_names[];
     48          extern const char ICON_PATH[];
     49          
     50          

   \                                 In segment CODE, align 4, keep-with-next
     51          S_SMILES *FindSmileById(int n)
     52          {
     53            int i=0;
     54            S_SMILES *sl=(S_SMILES *)s_top;
   \                     FindSmileById:
   \   00000000   ........           LDR      R1,??DataTable8  ;; s_top
   \   00000004   0020A0E3           MOV      R2,#+0
   \   00000008   001091E5           LDR      R1,[R1, #+0]
   \   0000000C   010000EA           B        ??FindSmileById_0
     55            while(sl && i!=n)
     56            {
     57              sl=sl->next;
   \                     ??FindSmileById_1:
   \   00000010   001091E5           LDR      R1,[R1, #+0]
     58              i++;
   \   00000014   012082E2           ADD      R2,R2,#+1
     59            }
   \                     ??FindSmileById_0:
   \   00000018   000051E3           CMP      R1,#+0
   \   0000001C   00005211           CMPNE    R2,R0
   \   00000020   FAFFFF1A           BNE      ??FindSmileById_1
     60            return sl;
   \   00000024   0100A0E1           MOV      R0,R1
   \   00000028   1EFF2FE1           BX       LR               ;; return
     61          }
     62          

   \                                 In segment CODE, align 4, keep-with-next
     63          S_SMILES *FindSmileByUni(int wchar)
     64          {
     65            S_SMILES *sl=(S_SMILES *)s_top;
   \                     FindSmileByUni:
   \   00000000   ........           LDR      R1,??DataTable8  ;; s_top
     66            while(sl)
     67            {
     68              if (sl->uni_smile == wchar) return (sl);
     69              sl=sl->next;
   \                     ??FindSmileByUni_0:
   \   00000004   001091E5           LDR      R1,[R1, #+0]
   \   00000008   000051E3           CMP      R1,#+0
   \   0000000C   0400000A           BEQ      ??FindSmileByUni_1
   \   00000010   042091E5           LDR      R2,[R1, #+4]
   \   00000014   000052E1           CMP      R2,R0
   \   00000018   F9FFFF1A           BNE      ??FindSmileByUni_0
   \   0000001C   0100A0E1           MOV      R0,R1
   \   00000020   1EFF2FE1           BX       LR
     70            }
     71            return (0);
   \                     ??FindSmileByUni_1:
   \   00000024   0000A0E3           MOV      R0,#+0
   \   00000028   1EFF2FE1           BX       LR               ;; return
     72          }
     73          

   \                                 In segment CODE, align 4, keep-with-next
     74          void FreeSmiles(void)
     75          {
   \                     FreeSmiles:
   \   00000000   F0412DE9           PUSH     {R4-R8,LR}
     76            S_SMILES *s_smile;
     77            STXT_SMILES *n;
     78            STXT_SMILES *st;
     79            DYNPNGICONLIST *d;
     80            DYNPNGICONLIST *nd;
     81            LockSched();
     82            //total_smiles=0;
     83            s_smile=(S_SMILES *)s_top;
   \   00000004   ........           LDR      R4,??DataTable8  ;; s_top
   \   00000008   04D04DE2           SUB      SP,SP,#+4
     84            s_top=0;
   \   0000000C   0050A0E3           MOV      R5,#+0
   \   00000010   460100EF           SWI      +326
   \   00000014   006094E5           LDR      R6,[R4, #+0]
   \   00000018   005084E5           STR      R5,[R4, #+0]
     85            s_bot=0;
   \   0000001C   105084E5           STR      R5,[R4, #+16]
     86            UnlockSched();
   \   00000020   470100EF           SWI      +327
   \   00000024   000056E3           CMP      R6,#+0
   \   00000028   1300000A           BEQ      ??FreeSmiles_0
     87            while(s_smile)
     88            {
     89              S_SMILES *s;
     90              s=s_smile;
   \                     ??FreeSmiles_1:
   \   0000002C   0670A0E1           MOV      R7,R6
     91              st=s->lines;
   \   00000030   080097E5           LDR      R0,[R7, #+8]
   \   00000034   000050E3           CMP      R0,#+0
   \   00000038   0A00000A           BEQ      ??FreeSmiles_2
     92              while(st)
     93              {
     94                n=st->next;
   \                     ??FreeSmiles_3:
   \   0000003C   0010A0E3           MOV      R1,#+0
   \   00000040   0D20A0E1           MOV      R2,SP
   \                     ??FreeSmiles_4:
   \   00000044   0030D1E7           LDRB     R3,[R1, +R0]
   \   00000048   0230C1E7           STRB     R3,[R1, +R2]
   \   0000004C   011081E2           ADD      R1,R1,#+1
   \   00000050   040051E3           CMP      R1,#+4
   \   00000054   FAFFFFBA           BLT      ??FreeSmiles_4
   \   00000058   00809DE5           LDR      R8,[SP, #+0]
     95                mfree(st);
   \   0000005C   150000EF           SWI      +21
     96                st=n;
   \   00000060   0800B0E1           MOVS     R0,R8
     97              }
   \   00000064   F4FFFF1A           BNE      ??FreeSmiles_3
     98              s_smile=(S_SMILES *)(s_smile->next);
   \                     ??FreeSmiles_2:
   \   00000068   006096E5           LDR      R6,[R6, #+0]
     99              mfree(s);
   \   0000006C   0700A0E1           MOV      R0,R7
   \   00000070   150000EF           SWI      +21
    100            }
   \   00000074   000056E3           CMP      R6,#+0
   \   00000078   EBFFFF1A           BNE      ??FreeSmiles_1
    101            LockSched();
   \                     ??FreeSmiles_0:
   \   0000007C   460100EF           SWI      +326
    102            d=SmilesImgList;
   \   00000080   046094E5           LDR      R6,[R4, #+4]
    103            SmilesImgList=0;
   \   00000084   045084E5           STR      R5,[R4, #+4]
    104            UnlockSched();
   \   00000088   470100EF           SWI      +327
   \   0000008C   000056E3           CMP      R6,#+0
   \   00000090   0B00000A           BEQ      ??FreeSmiles_5
    105            while(d)
    106            {
    107              if (d->img)
   \                     ??FreeSmiles_6:
   \   00000094   080096E5           LDR      R0,[R6, #+8]
   \   00000098   000050E3           CMP      R0,#+0
   \   0000009C   0300000A           BEQ      ??FreeSmiles_7
    108              {
    109                mfree(d->img->bitmap);
   \   000000A0   040090E5           LDR      R0,[R0, #+4]
   \   000000A4   150000EF           SWI      +21
    110                mfree(d->img);
   \   000000A8   080096E5           LDR      R0,[R6, #+8]
   \   000000AC   150000EF           SWI      +21
    111              }
    112              nd=d->next;
   \                     ??FreeSmiles_7:
   \   000000B0   005096E5           LDR      R5,[R6, #+0]
    113              mfree(d);
   \   000000B4   0600A0E1           MOV      R0,R6
   \   000000B8   150000EF           SWI      +21
    114              d=nd;
   \   000000BC   0560B0E1           MOVS     R6,R5
    115            }
   \   000000C0   F3FFFF1A           BNE      ??FreeSmiles_6
    116            mfree(s_buf);
   \                     ??FreeSmiles_5:
   \   000000C4   0C0094E5           LDR      R0,[R4, #+12]
   \   000000C8   150000EF           SWI      +21
    117          }
   \   000000CC   F181BDE8           POP      {R0,R4-R8,PC}    ;; return
    118          

   \                                 In segment CODE, align 4, keep-with-next
    119          void InitSmiles(void)
    120          {
   \                     InitSmiles:
   \   00000000   70402DE9           PUSH     {R4-R6,LR}
    121            int f;
    122            unsigned int err;
    123            int fsize;
    124            char *buf;
    125            FSTATS stat;
    126          
    127            FreeSmiles();
    128          
    129            //n_pic=FIRST_UCS2_BITMAP;
    130            if (GetFileStats(SMILE_FILE,&stat,&err)==-1)
   \   00000004   ........           LDR      R5,??DataTable5  ;; SMILE_FILE
   \   00000008   2CD04DE2           SUB      SP,SP,#+44
   \   0000000C   0040E0E3           MVN      R4,#+0
   \   00000010   ........           BL       FreeSmiles
   \   00000014   0D20A0E1           MOV      R2,SP
   \   00000018   04108DE2           ADD      R1,SP,#+4
   \   0000001C   0500A0E1           MOV      R0,R5
   \   00000020   840000EF           SWI      +132
   \   00000024   040050E1           CMP      R0,R4
   \   00000028   1A00000A           BEQ      ??InitSmiles_0
    131              return;
    132          
    133            if ((fsize=stat.size)<=0)
   \   0000002C   08609DE5           LDR      R6,[SP, #+8]
   \   00000030   010056E3           CMP      R6,#+1
   \   00000034   170000BA           BLT      ??InitSmiles_0
    134              return;
    135          
    136            if ((f=fopen(SMILE_FILE,A_ReadOnly+A_BIN,P_READ,&err))==-1)
   \   00000038   0D30A0E1           MOV      R3,SP
   \   0000003C   8020A0E3           MOV      R2,#+128
   \   00000040   801CA0E3           MOV      R1,#+32768
   \   00000044   0500A0E1           MOV      R0,R5
   \   00000048   0A0000EF           SWI      +10
   \   0000004C   0050A0E1           MOV      R5,R0
   \   00000050   040055E1           CMP      R5,R4
   \   00000054   0F00000A           BEQ      ??InitSmiles_0
    137              return;
    138          
    139            buf=s_buf=p_buf=malloc(fsize+1);
   \   00000058   010086E2           ADD      R0,R6,#+1
   \   0000005C   140000EF           SWI      +20
   \   00000060   0040A0E1           MOV      R4,R0
   \   00000064   ........           LDR      R0,??DataTable22  ;; s_top
    140            buf[fread(f,buf,fsize,&err)]=0;
   \   00000068   0D30A0E1           MOV      R3,SP
   \   0000006C   084080E5           STR      R4,[R0, #+8]
   \   00000070   0C4080E5           STR      R4,[R0, #+12]
   \   00000074   0620A0E1           MOV      R2,R6
   \   00000078   0410A0E1           MOV      R1,R4
   \   0000007C   0500A0E1           MOV      R0,R5
   \   00000080   0B0000EF           SWI      +11
   \   00000084   0010A0E3           MOV      R1,#+0
   \   00000088   0410C0E7           STRB     R1,[R0, +R4]
    141            fclose(f,&err);
   \   0000008C   0D10A0E1           MOV      R1,SP
   \   00000090   0500A0E1           MOV      R0,R5
   \   00000094   0D0000EF           SWI      +13
    142            //f=fopen("4:\\smiles.cfg",A_ReadWrite+A_BIN+A_Create+A_Append,P_READ+P_WRITE,&err);
    143          /*  gipc.name_to=ipc_my_name;
    144            gipc.name_from=ipc_my_name;
    145            gipc.data=0;
    146             
    147            GBS_SendMessage(MMI_CEPID,MSG_IPC,IPC_SMILE_PROCESSED,&gipc);*/
    148          }
   \                     ??InitSmiles_0:
   \   00000098   2CD08DE2           ADD      SP,SP,#+44       ;; stack cleaning
   \   0000009C   7080BDE8           POP      {R4-R6,PC}       ;; return
    149          

   \                                 In segment CODE, align 4, keep-with-next
    150          void CheckSmiles(void)
    151          {
   \                     CheckSmiles:
   \   00000000   F0402DE9           PUSH     {R4-R7,LR}
    152            int f;
    153            unsigned int err;
    154            int fsize;
    155            char *buf, *p_buf;
    156            FSTATS stat;
    157          
    158            if (GetFileStats(SMILE_FILE,&stat,&err)==-1)
   \   00000004   ........           LDR      R5,??DataTable5  ;; SMILE_FILE
   \   00000008   2CD04DE2           SUB      SP,SP,#+44
   \   0000000C   0040E0E3           MVN      R4,#+0
   \   00000010   0D20A0E1           MOV      R2,SP
   \   00000014   04108DE2           ADD      R1,SP,#+4
   \   00000018   0500A0E1           MOV      R0,R5
   \   0000001C   840000EF           SWI      +132
   \   00000020   040050E1           CMP      R0,R4
   \   00000024   2700000A           BEQ      ??CheckSmiles_0
    159              return;
    160          
    161            if ((fsize=stat.size)<=0)
   \   00000028   08609DE5           LDR      R6,[SP, #+8]
   \   0000002C   010056E3           CMP      R6,#+1
   \   00000030   240000BA           BLT      ??CheckSmiles_0
    162              return;
    163          
    164            if ((f=fopen(SMILE_FILE,A_ReadOnly+A_BIN,P_READ,&err))==-1)
   \   00000034   0D30A0E1           MOV      R3,SP
   \   00000038   8020A0E3           MOV      R2,#+128
   \   0000003C   801CA0E3           MOV      R1,#+32768
   \   00000040   0500A0E1           MOV      R0,R5
   \   00000044   0A0000EF           SWI      +10
   \   00000048   0070A0E1           MOV      R7,R0
   \   0000004C   040057E1           CMP      R7,R4
   \   00000050   1C00000A           BEQ      ??CheckSmiles_0
    165              return;
    166          
    167            buf=p_buf=malloc(fsize+1);
   \   00000054   010086E2           ADD      R0,R6,#+1
   \   00000058   140000EF           SWI      +20
   \   0000005C   0040A0E1           MOV      R4,R0
   \   00000060   0450A0E1           MOV      R5,R4
    168            buf[fread(f,buf,fsize,&err)]=0;
   \   00000064   0D30A0E1           MOV      R3,SP
   \   00000068   0620A0E1           MOV      R2,R6
   \   0000006C   0410A0E1           MOV      R1,R4
   \   00000070   0700A0E1           MOV      R0,R7
   \   00000074   0B0000EF           SWI      +11
   \   00000078   0010A0E3           MOV      R1,#+0
   \   0000007C   0410C0E7           STRB     R1,[R0, +R4]
    169            fclose(f,&err);
   \   00000080   0D10A0E1           MOV      R1,SP
   \   00000084   0700A0E1           MOV      R0,R7
   \   00000088   0D0000EF           SWI      +13
    170            
    171          //  f = pictures_max;
    172            for(buf=p_buf;*buf; buf++)
   \   0000008C   0000D5E5           LDRB     R0,[R5, #+0]
   \   00000090   000050E3           CMP      R0,#+0
   \   00000094   0900000A           BEQ      ??CheckSmiles_1
    173              if(*buf == ':')
   \                     ??CheckSmiles_2:
   \   00000098   0000D5E5           LDRB     R0,[R5, #+0]
   \   0000009C   3A0050E3           CMP      R0,#+58
   \   000000A0   0300001A           BNE      ??CheckSmiles_3
    174              {
    175                buf++;
    176                while(*buf && *buf != 0x0D) buf++;
   \                     ??CheckSmiles_4:
   \   000000A4   0100F5E5           LDRB     R0,[R5, #+1]!
   \   000000A8   000050E3           CMP      R0,#+0
   \   000000AC   0D005013           CMPNE    R0,#+13
   \   000000B0   FBFFFF1A           BNE      ??CheckSmiles_4
    177                //pictures_max++;
    178              }
   \                     ??CheckSmiles_3:
   \   000000B4   0100F5E5           LDRB     R0,[R5, #+1]!
   \   000000B8   000050E3           CMP      R0,#+0
   \   000000BC   F5FFFF1A           BNE      ??CheckSmiles_2
    179            mfree(p_buf);
   \                     ??CheckSmiles_1:
   \   000000C0   0400A0E1           MOV      R0,R4
   \   000000C4   150000EF           SWI      +21
    180          }
   \                     ??CheckSmiles_0:
   \   000000C8   2CD08DE2           ADD      SP,SP,#+44       ;; stack cleaning
   \   000000CC   F080BDE8           POP      {R4-R7,PC}       ;; return
    181          
    182          
    183          //-------------------------------- 21.09.09 --------------------------------//
    184          
    185          /*
    186          *  Функция: FreeList
    187          *  Описание: Очищаем связный список
    188          *  Параметры: ICONS *icon - указатель на связный список
    189          *  Возвращаемое значение: Ничего не возвращает
    190          */

   \                                 In segment CODE, align 4, keep-with-next
    191          static void FreeList(ICONS *icon)//очистить список
    192          {
   \                     FreeList:
   \   00000000   00402DE9           PUSH     {LR}
    193            if(!icon) return;
   \   00000004   000050E3           CMP      R0,#+0
   \   00000008   0080BD08           POPEQ    {PC}
    194            LockSched();
   \   0000000C   460100EF           SWI      +326
    195            icon=0;
    196            UnlockSched();
   \   00000010   470100EF           SWI      +327
   \   00000014   0080BDE8           POP      {PC}             ;; return
    197            while(icon)
    198            {
    199              ICONS *icon_prev = icon;
    200              icon = icon->next;
    201          
    202              if(icon_prev)
    203              {
    204                if(icon_prev->img)
    205                {
    206                  mfree(icon_prev->img->bitmap);
    207                  mfree(icon_prev->img);
    208                }
    209                mfree(icon_prev);
    210              }
    211            }
    212          }
    213          
    214          /*
    215          *  Функция: GetPicByItem
    216          *  Описание: Выбераем из связного списка номер элемента
    217          *  Параметры: 
    218          *     ICONS *icon - указатель на связный список
    219          *     int curitem - номер элемента, который нужно выбрать
    220          *  Возвращаемое значение: Элемент IMGHDR или NULL,если таковой не найден
    221          */
    222          static IMGHDR *GetPicByItem(ICONS *icon, int curitem)
    223          {
    224            int i=0;
    225          
    226            while(icon)
    227            {
    228              if(i==curitem) return (icon->img);
    229              i++;
    230              icon=icon->next;  
    231            }
    232            return 0;
    233          }
    234          
    235          
    236          /*
    237          *  Функция: CountPic
    238          *  Описание: Считает кол-во элементов в списке
    239          *  Параметры: ICONS *icon - указатель на связный список
    240          *  Возвращаемое значение: Кол-во элементов
    241          */
    242          static int CountPic(ICONS *icon)//подсчет  общего кол-ва итемов
    243          {
    244            int i=0;
    245            while(icon) { i++; icon = icon->next; }
    246            return i;
    247          }
    248          
    249          /*
    250          *  Функция: AddToTopList
    251          *  Описание: Добавить элемент в конец списка
    252          *  Параметры: 
    253          *       ICONS *top - указатель на первый жлемент списка
    254          *       ICON *newitem - элемент, который будем добавлять
    255          *  Возвращаемое значение: Ничего не возвращает
    256          */
    257          static void AddToTopList(ICONS *top, ICONS *newitem)//добавить в конец списка итем
    258          {
    259            ICONS *icon = (ICONS *)top;
    260            while(icon->next) icon = icon->next;
    261            icon->next = newitem;
    262          }
    263          
    264          
    265          /*
    266          *  Функция: NewIcon
    267          *  Описание: Создаем новый элемент
    268          *  Параметры: IMGHDR *img - иконка для добавления в список
    269          *  Возвращаемое значение: созданный элемент ICONS
    270          */

   \                                 In segment CODE, align 4, keep-with-next
    271          ICONS* NewIcon(IMGHDR *img)
    272          {
   \                     NewIcon:
   \   00000000   30402DE9           PUSH     {R4,R5,LR}
   \   00000004   0040A0E1           MOV      R4,R0
    273            ICONS *icon = malloc(sizeof(ICONS));
   \   00000008   0C00A0E3           MOV      R0,#+12
   \   0000000C   140000EF           SWI      +20
   \   00000010   0050A0E1           MOV      R5,R0
    274            zeromem(icon,sizeof(icon));
   \   00000014   0410A0E3           MOV      R1,#+4
   \   00000018   1D0100EF           SWI      +285
    275            icon->next = 0;
   \   0000001C   0000A0E3           MOV      R0,#+0
   \   00000020   000085E5           STR      R0,[R5, #+0]
    276            icon->img = img;
   \   00000024   084085E5           STR      R4,[R5, #+8]
    277            return icon;
   \   00000028   0500A0E1           MOV      R0,R5
   \   0000002C   3080BDE8           POP      {R4,R5,PC}       ;; return
    278          }
    279          
    280          //--------------------------------
    281          
    282          /*
    283          *  Функция: AddSmile
    284          *  Описание: Вырезаем из файла смайлов нужный кусок и сохраняем как отдельный смайл
    285          *  Параметры: 
    286          *      IMGHDR *img - указатель на общую картинку смайлов
    287          *      int x - начальное смещение Х
    288          *      int y - начальное значеие У
    289          *  Возвращаемое значение: Ничего не возвращает
    290          */
    291          static void AddSmile(IMGHDR *img,int x,int y)
    292          {
    293             ICONS *icon =  NewIcon(CreateImgr(28,28));//malloc(sizeof(ICONS));
    294             drawimg2img(img,icon->img,0,0,x,y,x+27,y+27);
    295             PressImg(icon->img,1); 
    296             
    297             if(!smilestop)
    298               smilestop = icon; 
    299             else
    300               AddToTopList(smilestop, icon);
    301          }
    302          
    303          
    304          

   \                                 In segment CODE, align 4, keep-with-next
    305          IMGHDR *GetSmileByItem(int curitem)
    306          {
    307            return GetPicByItem(smilestop, curitem);  
   \                     GetSmileByItem:
   \   00000000   ........           LDR      R1,??DataTable7  ;; s_top + 28
   \   00000004   0020A0E3           MOV      R2,#+0
   \   00000008   001091E5           LDR      R1,[R1, #+0]
   \   0000000C   010000EA           B        ??GetSmileByItem_0
   \                     ??GetSmileByItem_1:
   \   00000010   001091E5           LDR      R1,[R1, #+0]
   \   00000014   012082E2           ADD      R2,R2,#+1
   \                     ??GetSmileByItem_0:
   \   00000018   000051E3           CMP      R1,#+0
   \   0000001C   0300000A           BEQ      ??GetSmileByItem_2
   \   00000020   000052E1           CMP      R2,R0
   \   00000024   F9FFFF1A           BNE      ??GetSmileByItem_1
   \   00000028   080091E5           LDR      R0,[R1, #+8]
   \   0000002C   1EFF2FE1           BX       LR
   \                     ??GetSmileByItem_2:
   \   00000030   0000A0E3           MOV      R0,#+0
   \   00000034   1EFF2FE1           BX       LR               ;; return
    308          }
    309          

   \                                 In segment CODE, align 4, keep-with-next
    310          void FreeSmileList()
    311          {
    312            FreeList(smilestop);
   \                     FreeSmileList:
   \   00000000   ........           LDR      R0,??DataTable7  ;; s_top + 28
   \   00000004   000090E5           LDR      R0,[R0, #+0]
   \   00000008   ........           B        FreeList         ;; tailcall
    313          }
    314          
    315          

   \                                 In segment CODE, align 4, keep-with-next
    316          void ProcessNextSmile(void)  
    317          {
   \                     ProcessNextSmile:
   \   00000000   F0432DE9           PUSH     {R4-R9,LR}
   \   00000004   ........           LDR      R4,??DataTable8  ;; s_top
   \   00000008   04D04DE2           SUB      SP,SP,#+4
   \   0000000C   0050A0E3           MOV      R5,#+0
   \   00000010   010000EA           B        ??ProcessNextSmile_0
    318            int c;
    319           // char fn[128];
    320            DYNPNGICONLIST *dp;
    321            S_SMILES *si;
    322            STXT_SMILES *st;
    323            char *buf;
    324          next_s:
    325            buf=p_buf;
    326            if (!buf) return;
    327            while ((c=*buf))
    328            {
    329              char *p;
    330              if ((c==10)||(c==13))
    331              {
    332                buf++;/*
    333                gipc.name_to=ipc_my_name;
    334                gipc.name_from=ipc_my_name;
    335                gipc.data=0;*/
    336               // GBS_SendMessage(MMI_CEPID,MSG_IPC,IPC_SMILE_PROCESSED,&gipc);
    337                p_buf=buf;
   \                     ??ProcessNextSmile_1:
   \   00000014   010086E2           ADD      R0,R6,#+1
   \   00000018   080084E5           STR      R0,[R4, #+8]
    338                goto next_s;
    339              //  return;
    340              }
   \                     ??ProcessNextSmile_0:
   \   0000001C   086094E5           LDR      R6,[R4, #+8]
   \   00000020   000056E3           CMP      R6,#+0
   \   00000024   F183BD08           POPEQ    {R0,R4-R9,PC}
   \                     ??ProcessNextSmile_2:
   \   00000028   0000D6E5           LDRB     R0,[R6, #+0]
   \   0000002C   000050E3           CMP      R0,#+0
   \   00000030   8400000A           BEQ      ??ProcessNextSmile_3
   \   00000034   0A0050E3           CMP      R0,#+10
   \   00000038   0D005013           CMPNE    R0,#+13
   \   0000003C   F4FFFF0A           BEQ      ??ProcessNextSmile_1
    341              p=strchr(buf,':');
   \   00000040   3A10A0E3           MOV      R1,#+58
   \   00000044   0600A0E1           MOV      R0,R6
   \   00000048   180000EF           SWI      +24
   \   0000004C   0060B0E1           MOVS     R6,R0
    342              if (!p) break;
   \   00000050   7C00000A           BEQ      ??ProcessNextSmile_3
    343          /*    zeromem(fn,128);
    344              strcpy(fn,SMILE_PATH);
    345              if (fn[strlen(fn)-1]!='\\') strcat(fn,"\\");
    346              c=p-buf;
    347              if (c>(127-strlen(fn))) break;
    348              strncpy(fn+strlen(fn),buf,c);*/
    349          //    snprintf(logmsg,255,"Process file %s...",fn);
    350          //    REDRAW();
    351              buf=p;
    352              dp=malloc(sizeof(DYNPNGICONLIST));
   \   00000054   0C00A0E3           MOV      R0,#+12
   \   00000058   140000EF           SWI      +20
   \   0000005C   0070A0E1           MOV      R7,R0
    353              zeromem(dp,sizeof(DYNPNGICONLIST));
   \   00000060   0C10A0E3           MOV      R1,#+12
   \   00000064   1D0100EF           SWI      +285
    354              dp->icon=GetPicNByUnicodeSymbol(n_pic);
   \   00000068   140094E5           LDR      R0,[R4, #+20]
   \   0000006C   E40100EF           SWI      +484
   \   00000070   040087E5           STR      R0,[R7, #+4]
    355              dp->img=GetSmileByItem(cur_smile++);//CreateIMGHDRFromPngFile(fn,0);
   \   00000074   180094E5           LDR      R0,[R4, #+24]
   \   00000078   011080E2           ADD      R1,R0,#+1
   \   0000007C   181084E5           STR      R1,[R4, #+24]
   \   00000080   ........           BL       GetSmileByItem
   \   00000084   080087E5           STR      R0,[R7, #+8]
    356              LockSched();
   \   00000088   460100EF           SWI      +326
    357              if (SmilesImgList)
   \   0000008C   040094E5           LDR      R0,[R4, #+4]
   \   00000090   000050E3           CMP      R0,#+0
    358              {
    359                dp->next=SmilesImgList;
   \   00000094   00008715           STRNE    R0,[R7, #+0]
    360              }
    361              SmilesImgList=dp;
   \   00000098   047084E5           STR      R7,[R4, #+4]
    362              UnlockSched();
   \   0000009C   470100EF           SWI      +327
    363              si=malloc(sizeof(S_SMILES));
   \   000000A0   1000A0E3           MOV      R0,#+16
   \   000000A4   140000EF           SWI      +20
   \   000000A8   0070A0E1           MOV      R7,R0
    364              si->next=NULL;
   \   000000AC   005087E5           STR      R5,[R7, #+0]
    365              si->lines=NULL;
   \   000000B0   085087E5           STR      R5,[R7, #+8]
    366              si->botlines=NULL;
   \   000000B4   0C5087E5           STR      R5,[R7, #+12]
    367              si->uni_smile=n_pic;
   \   000000B8   140094E5           LDR      R0,[R4, #+20]
   \   000000BC   040087E5           STR      R0,[R7, #+4]
    368              if (s_bot)
   \   000000C0   101094E5           LDR      R1,[R4, #+16]
    369              {
    370                //Не первый
    371                s_bot->next=si;
    372                s_bot=si;
    373              }
    374              else
    375              {
    376                //Первый
    377                s_top=si;
    378                s_bot=si;
    379              }
    380              n_pic++;
   \   000000C4   010080E2           ADD      R0,R0,#+1
   \   000000C8   000051E3           CMP      R1,#+0
   \   000000CC   00708115           STRNE    R7,[R1, #+0]
   \   000000D0   00708405           STREQ    R7,[R4, #+0]
   \   000000D4   0710A0E1           MOV      R1,R7
   \   000000D8   101084E5           STR      R1,[R4, #+16]
   \   000000DC   140084E5           STR      R0,[R4, #+20]
   \   000000E0   020000EA           B        ??ProcessNextSmile_4
    381              while (*buf!=10 && *buf!=13 && *buf!=0)
    382              {
    383                buf++;
    384                int i=0;
    385                while (buf[i]!=0&&buf [i]!=','&&buf [i]!=10&&buf[i]!=13)  i++;
    386                st=malloc(sizeof(STXT_SMILES)+i);
    387                strncpy(st->text,buf,i);
    388                st->text[i]=0;
    389                
    390                st->next=NULL;
    391                st->key=*((unsigned long *)st->text);
    392                st->mask=~(0xFFFFFFFFUL<<(8*i));
    393                st->key&=st->mask;
    394                if (si->botlines)
    395                {
    396          	si->botlines->next=st;
    397          	si->botlines=st;
    398                }
    399                else
    400                {
    401          	si->lines=st;
   \                     ??ProcessNextSmile_5:
   \   000000E4   089087E5           STR      R9,[R7, #+8]
    402          	si->botlines=st;
   \                     ??ProcessNextSmile_6:
   \   000000E8   0C9087E5           STR      R9,[R7, #+12]
    403                }
    404                buf+=i;
   \   000000EC   066088E0           ADD      R6,R8,R6
   \                     ??ProcessNextSmile_4:
   \   000000F0   0000D6E5           LDRB     R0,[R6, #+0]
   \   000000F4   0A0050E3           CMP      R0,#+10
   \   000000F8   0D005013           CMPNE    R0,#+13
   \   000000FC   00005013           CMPNE    R0,#+0
   \   00000100   C8FFFF0A           BEQ      ??ProcessNextSmile_2
   \   00000104   016086E2           ADD      R6,R6,#+1
   \   00000108   0080A0E3           MOV      R8,#+0
   \   0000010C   000000EA           B        ??ProcessNextSmile_7
   \                     ??ProcessNextSmile_8:
   \   00000110   018088E2           ADD      R8,R8,#+1
   \                     ??ProcessNextSmile_7:
   \   00000114   0600D8E7           LDRB     R0,[R8, +R6]
   \   00000118   000050E3           CMP      R0,#+0
   \   0000011C   2C005013           CMPNE    R0,#+44
   \   00000120   0A005013           CMPNE    R0,#+10
   \   00000124   0D005013           CMPNE    R0,#+13
   \   00000128   F8FFFF1A           BNE      ??ProcessNextSmile_8
   \   0000012C   0D0088E2           ADD      R0,R8,#+13
   \   00000130   140000EF           SWI      +20
   \   00000134   0090A0E1           MOV      R9,R0
   \   00000138   0820A0E1           MOV      R2,R8
   \   0000013C   0610A0E1           MOV      R1,R6
   \   00000140   0C0089E2           ADD      R0,R9,#+12
   \   00000144   160100EF           SWI      +278
   \   00000148   090088E0           ADD      R0,R8,R9
   \   0000014C   0C50C0E5           STRB     R5,[R0, #+12]
   \   00000150   00508DE5           STR      R5,[SP, #+0]
   \   00000154   0000A0E3           MOV      R0,#+0
   \                     ??ProcessNextSmile_9:
   \   00000158   0D10A0E1           MOV      R1,SP
   \   0000015C   0110D0E7           LDRB     R1,[R0, +R1]
   \   00000160   0910C0E7           STRB     R1,[R0, +R9]
   \   00000164   010080E2           ADD      R0,R0,#+1
   \   00000168   040050E3           CMP      R0,#+4
   \   0000016C   F9FFFFBA           BLT      ??ProcessNextSmile_9
   \   00000170   0C0099E5           LDR      R0,[R9, #+12]
   \   00000174   0810A0E1           MOV      R1,R8
   \   00000178   0400C9E5           STRB     R0,[R9, #+4]
   \   0000017C   2004A0E1           LSR      R0,R0,#+8
   \   00000180   0500C9E5           STRB     R0,[R9, #+5]
   \   00000184   2004A0E1           LSR      R0,R0,#+8
   \   00000188   0600C9E5           STRB     R0,[R9, #+6]
   \   0000018C   2004A0E1           LSR      R0,R0,#+8
   \   00000190   0700C9E5           STRB     R0,[R9, #+7]
   \   00000194   0500E0E1           MVN      R0,R5
   \   00000198   8111A0E1           LSL      R1,R1,#+3
   \   0000019C   1001E0E1           MVN      R0,R0, LSL R1
   \   000001A0   0800C9E5           STRB     R0,[R9, #+8]
   \   000001A4   2004A0E1           LSR      R0,R0,#+8
   \   000001A8   0900C9E5           STRB     R0,[R9, #+9]
   \   000001AC   2004A0E1           LSR      R0,R0,#+8
   \   000001B0   0A00C9E5           STRB     R0,[R9, #+10]
   \   000001B4   2004A0E1           LSR      R0,R0,#+8
   \   000001B8   0B00C9E5           STRB     R0,[R9, #+11]
   \   000001BC   0700D9E5           LDRB     R0,[R9, #+7]
   \   000001C0   0610D9E5           LDRB     R1,[R9, #+6]
   \   000001C4   0A20D9E5           LDRB     R2,[R9, #+10]
   \   000001C8   000481E1           ORR      R0,R1,R0, LSL #+8
   \   000001CC   0510D9E5           LDRB     R1,[R9, #+5]
   \   000001D0   000481E1           ORR      R0,R1,R0, LSL #+8
   \   000001D4   0410D9E5           LDRB     R1,[R9, #+4]
   \   000001D8   000481E1           ORR      R0,R1,R0, LSL #+8
   \   000001DC   0B10D9E5           LDRB     R1,[R9, #+11]
   \   000001E0   011482E1           ORR      R1,R2,R1, LSL #+8
   \   000001E4   0920D9E5           LDRB     R2,[R9, #+9]
   \   000001E8   011482E1           ORR      R1,R2,R1, LSL #+8
   \   000001EC   0820D9E5           LDRB     R2,[R9, #+8]
   \   000001F0   011482E1           ORR      R1,R2,R1, LSL #+8
   \   000001F4   000001E0           AND      R0,R1,R0
   \   000001F8   0400C9E5           STRB     R0,[R9, #+4]
   \   000001FC   2004A0E1           LSR      R0,R0,#+8
   \   00000200   0500C9E5           STRB     R0,[R9, #+5]
   \   00000204   2004A0E1           LSR      R0,R0,#+8
   \   00000208   0600C9E5           STRB     R0,[R9, #+6]
   \   0000020C   2004A0E1           LSR      R0,R0,#+8
   \   00000210   0700C9E5           STRB     R0,[R9, #+7]
   \   00000214   0C0097E5           LDR      R0,[R7, #+12]
   \   00000218   000050E3           CMP      R0,#+0
   \   0000021C   B0FFFF0A           BEQ      ??ProcessNextSmile_5
   \   00000220   00908DE5           STR      R9,[SP, #+0]
   \   00000224   0000A0E3           MOV      R0,#+0
   \                     ??ProcessNextSmile_10:
   \   00000228   0C1097E5           LDR      R1,[R7, #+12]
   \   0000022C   0D20A0E1           MOV      R2,SP
   \   00000230   0220D0E7           LDRB     R2,[R0, +R2]
   \   00000234   0120C0E7           STRB     R2,[R0, +R1]
   \   00000238   010080E2           ADD      R0,R0,#+1
   \   0000023C   040050E3           CMP      R0,#+4
   \   00000240   F8FFFFBA           BLT      ??ProcessNextSmile_10
   \   00000244   A7FFFFEA           B        ??ProcessNextSmile_6
    405              }
    406              //pictures_loaded++;
    407              //total_smiles++;
    408            }
    409            //fclose(f,&err);
    410            //total_smiles=0;
    411            p_buf=NULL;
    412            mfree(s_buf);
   \                     ??ProcessNextSmile_3:
   \   00000248   0C0094E5           LDR      R0,[R4, #+12]
   \   0000024C   085084E5           STR      R5,[R4, #+8]
   \   00000250   150000EF           SWI      +21
    413            s_buf=NULL;
   \   00000254   0C5084E5           STR      R5,[R4, #+12]
    414            REDRAW();
   \   00000258   720100EF           SWI      +370
    415          }
   \   0000025C   F183BDE8           POP      {R0,R4-R9,PC}    ;; return
    416          

   \                                 In segment CODE, align 4, keep-with-next
    417          void FreeXStatusesImg(void)
    418          {
    419            void FreeXIconList();
    420            FreeXIconList();
   \                     FreeXStatusesImg:
   \   00000000   ........           LDR      R0,??DataTable13  ;; s_top + 36
   \   00000004   000090E5           LDR      R0,[R0, #+0]
   \   00000008   ........           B        FreeList         ;; tailcall
    421          }
    422          
    423          #ifdef GUI_INTERFACE  
    424          
    425          #define x_img_x_size 16
    426          #define x_img_y_size 16
    427          /*
    428          *  Функция: AddXIcon
    429          *  Описание: Выборка картинок Х-Статусов
    430          *  Параметры: 
    431          *       IMGHDR *img - указатель на пакфайл х-статусов
    432          *       int x - смещение по Х
    433          *
    434          *  Возвращаемое значение: Ничего не возвращает
    435          */

   \                                 In segment CODE, align 4, keep-with-next
    436          void AddXIcon(IMGHDR *img,int x)
    437          {
   \                     AddXIcon:
   \   00000000   70402DE9           PUSH     {R4-R6,LR}
    438          #ifdef ELKA
    439             ICONS *icon = NewIcon(CreateImgr(x_img_x_size, x_img_y_size));
    440             icon->icon = GetPicNByUnicodeSymbol(n_pic);
    441             n_pic++;
    442             drawimg2img(img,icon->img, 0, 0, x, 0, x + x_img_x_size, x_img_y_size);
    443          
    444             PressImg(icon->img,1);
    445          #else
    446             ICONS *icon = malloc(sizeof(IMGHDR));//NewIcon(CreateImgr(img->x, img->y));
    447             icon->icon = GetPicNByUnicodeSymbol(n_pic);
   \   00000004   ........           LDR      R6,??DataTable22  ;; s_top
   \   00000008   0040A0E1           MOV      R4,R0
   \   0000000C   0800A0E3           MOV      R0,#+8
   \   00000010   140000EF           SWI      +20
   \   00000014   0050A0E1           MOV      R5,R0
   \   00000018   140096E5           LDR      R0,[R6, #+20]
   \   0000001C   E40100EF           SWI      +484
   \   00000020   040085E5           STR      R0,[R5, #+4]
    448             n_pic++;
   \   00000024   140096E5           LDR      R0,[R6, #+20]
   \   00000028   010080E2           ADD      R0,R0,#+1
   \   0000002C   140086E5           STR      R0,[R6, #+20]
    449          //   memcpy((void*)icon->img, img);
    450             icon->img = img;
   \   00000030   084085E5           STR      R4,[R5, #+8]
    451          #endif
    452             if(!xiconstop)
   \   00000034   240096E5           LDR      R0,[R6, #+36]
   \   00000038   000050E3           CMP      R0,#+0
    453               xiconstop = icon;    
   \   0000003C   24508605           STREQ    R5,[R6, #+36]
   \   00000040   7080BD08           POPEQ    {R4-R6,PC}
    454             else
    455               AddToTopList(xiconstop, icon);
   \   00000044   001090E5           LDR      R1,[R0, #+0]
   \   00000048   000051E3           CMP      R1,#+0
   \   0000004C   0300000A           BEQ      ??AddXIcon_0
   \                     ??AddXIcon_1:
   \   00000050   000090E5           LDR      R0,[R0, #+0]
   \   00000054   001090E5           LDR      R1,[R0, #+0]
   \   00000058   000051E3           CMP      R1,#+0
   \   0000005C   FBFFFF1A           BNE      ??AddXIcon_1
   \                     ??AddXIcon_0:
   \   00000060   005080E5           STR      R5,[R0, #+0]
    456          }
   \   00000064   7080BDE8           POP      {R4-R6,PC}       ;; return
    457          

   \                                 In segment CODE, align 4, keep-with-next
    458          void FreeXIconList()
    459          {
    460            FreeList(xiconstop);
   \                     FreeXIconList:
   \   00000000   ........           LDR      R0,??DataTable13  ;; s_top + 36
   \   00000004   000090E5           LDR      R0,[R0, #+0]
   \   00000008   ........           B        FreeList         ;; tailcall
    461          }
    462           

   \                                 In segment CODE, align 4, keep-with-next
    463          int CountXIcon()
    464          {
    465            return CountPic(xiconstop);
   \                     CountXIcon:
   \   00000000   ........           LDR      R0,??DataTable13  ;; s_top + 36
   \   00000004   001090E5           LDR      R1,[R0, #+0]
   \   00000008   0000A0E3           MOV      R0,#+0
   \   0000000C   000051E3           CMP      R1,#+0
   \   00000010   1EFF2F01           BXEQ     LR
   \                     ??CountXIcon_0:
   \   00000014   001091E5           LDR      R1,[R1, #+0]
   \   00000018   010080E2           ADD      R0,R0,#+1
   \   0000001C   000051E3           CMP      R1,#+0
   \   00000020   FBFFFF1A           BNE      ??CountXIcon_0
   \   00000024   1EFF2FE1           BX       LR               ;; return
    466          }
    467          

   \                                 In segment CODE, align 4, keep-with-next
    468          IMGHDR *GetXIconByItem(int curitem)
    469          {
    470            return GetPicByItem(xiconstop, curitem);
   \                     GetXIconByItem:
   \   00000000   ........           LDR      R1,??DataTable13  ;; s_top + 36
   \   00000004   0020A0E3           MOV      R2,#+0
   \   00000008   001091E5           LDR      R1,[R1, #+0]
   \   0000000C   010000EA           B        ??GetXIconByItem_0
   \                     ??GetXIconByItem_1:
   \   00000010   001091E5           LDR      R1,[R1, #+0]
   \   00000014   012082E2           ADD      R2,R2,#+1
   \                     ??GetXIconByItem_0:
   \   00000018   000051E3           CMP      R1,#+0
   \   0000001C   0300000A           BEQ      ??GetXIconByItem_2
   \   00000020   000052E1           CMP      R2,R0
   \   00000024   F9FFFF1A           BNE      ??GetXIconByItem_1
   \   00000028   080091E5           LDR      R0,[R1, #+8]
   \   0000002C   1EFF2FE1           BX       LR
   \                     ??GetXIconByItem_2:
   \   00000030   0000A0E3           MOV      R0,#+0
   \   00000034   1EFF2FE1           BX       LR               ;; return
    471          }
    472          
    473          

   \                                 In segment CODE, align 4, keep-with-next
    474          int get_file_size(char* fname)
    475          {
   \                     get_file_size:
   \   00000000   00402DE9           PUSH     {LR}
   \   00000004   2CD04DE2           SUB      SP,SP,#+44
    476            unsigned int err;
    477            FSTATS fs;
    478            if ((GetFileStats(fname,&fs,&err))==-1) return 0;
   \   00000008   0D20A0E1           MOV      R2,SP
   \   0000000C   04108DE2           ADD      R1,SP,#+4
   \   00000010   840000EF           SWI      +132
   \   00000014   010070E3           CMN      R0,#+1
    479            return (fs.size);
   \   00000018   08009D15           LDRNE    R0,[SP, #+8]
   \   0000001C   2CD08DE2           ADD      SP,SP,#+44
   \   00000020   0000A003           MOVEQ    R0,#+0
   \   00000024   0080BDE8           POP      {PC}             ;; return
    480          }
    481          
    482          #endif
    483          
    484          #define img_x_size 16
    485          #define img_y_size 16
    486          
    487          /*
    488          *  Функция: AddIcon
    489          *  Описание: Добавляем в список иконки меню
    490          *  Параметры: 
    491          *     IMGHDR *img - файлпак картинок
    492          *     int x - смещение по Х, место с какого вырезать
    493          *  Возвращаемое значение: Ничего не возвращает
    494          */

   \                                 In segment CODE, align 4, keep-with-next
    495          void AddIcon(IMGHDR *img,int x)
    496          {
   \                     AddIcon:
   \   00000000   10402DE9           PUSH     {R4,LR}
   \   00000004   0040A0E1           MOV      R4,R0
    497          #ifdef ELKA1
    498             ICONS *icon = NewIcon(CreateImgr(img_x_size, img_y_size));//malloc(sizeof(ICONS));
    499             drawimg2img(img,icon->img, 0, 0, x, 0, x + img_x_size, img_y_size);
    500             PressImg(icon->img,1);
    501          #else
    502             ICONS *icon = malloc(sizeof(IMGHDR));;
   \   00000008   0800A0E3           MOV      R0,#+8
   \   0000000C   140000EF           SWI      +20
    503             icon->img = img;
    504          #endif
    505             if(!iconstop)
   \   00000010   ........           LDR      R1,??DataTable22  ;; s_top
   \   00000014   084080E5           STR      R4,[R0, #+8]
   \   00000018   202091E5           LDR      R2,[R1, #+32]
   \   0000001C   000052E3           CMP      R2,#+0
    506               iconstop=icon; 
   \   00000020   20008105           STREQ    R0,[R1, #+32]
   \   00000024   1080BD08           POPEQ    {R4,PC}
    507             else
    508               AddToTopList(iconstop, icon);
   \   00000028   001092E5           LDR      R1,[R2, #+0]
   \   0000002C   000051E3           CMP      R1,#+0
   \   00000030   0300000A           BEQ      ??AddIcon_0
   \                     ??AddIcon_1:
   \   00000034   002092E5           LDR      R2,[R2, #+0]
   \   00000038   001092E5           LDR      R1,[R2, #+0]
   \   0000003C   000051E3           CMP      R1,#+0
   \   00000040   FBFFFF1A           BNE      ??AddIcon_1
   \                     ??AddIcon_0:
   \   00000044   000082E5           STR      R0,[R2, #+0]
    509          }
   \   00000048   1080BDE8           POP      {R4,PC}          ;; return
    510          
    511          

   \                                 In segment CODE, align 4, keep-with-next
    512          void FreeIconList()
    513          {
    514            FreeList(iconstop);
   \                     FreeIconList:
   \   00000000   ........           LDR      R0,??DataTable17  ;; s_top + 32
   \   00000004   000090E5           LDR      R0,[R0, #+0]
   \   00000008   ........           B        FreeList         ;; tailcall
    515          }
    516           

   \                                 In segment CODE, align 4, keep-with-next
    517          int CountIcon()
    518          {
    519            return CountPic(iconstop);
   \                     CountIcon:
   \   00000000   ........           LDR      R0,??DataTable17  ;; s_top + 32
   \   00000004   001090E5           LDR      R1,[R0, #+0]
   \   00000008   0000A0E3           MOV      R0,#+0
   \   0000000C   000051E3           CMP      R1,#+0
   \   00000010   1EFF2F01           BXEQ     LR
   \                     ??CountIcon_0:
   \   00000014   001091E5           LDR      R1,[R1, #+0]
   \   00000018   010080E2           ADD      R0,R0,#+1
   \   0000001C   000051E3           CMP      R1,#+0
   \   00000020   FBFFFF1A           BNE      ??CountIcon_0
   \   00000024   1EFF2FE1           BX       LR               ;; return
    520          }
    521          

   \                                 In segment CODE, align 4, keep-with-next
    522          IMGHDR *GetIconByItem(int curitem)
    523          {
    524            return GetPicByItem(iconstop, curitem);
   \                     GetIconByItem:
   \   00000000   ........           LDR      R1,??DataTable17  ;; s_top + 32
   \   00000004   0020A0E3           MOV      R2,#+0
   \   00000008   001091E5           LDR      R1,[R1, #+0]
   \   0000000C   010000EA           B        ??GetIconByItem_0
   \                     ??GetIconByItem_1:
   \   00000010   001091E5           LDR      R1,[R1, #+0]
   \   00000014   012082E2           ADD      R2,R2,#+1
   \                     ??GetIconByItem_0:
   \   00000018   000051E3           CMP      R1,#+0
   \   0000001C   0300000A           BEQ      ??GetIconByItem_2
   \   00000020   000052E1           CMP      R2,R0
   \   00000024   F9FFFF1A           BNE      ??GetIconByItem_1
   \   00000028   080091E5           LDR      R0,[R1, #+8]
   \   0000002C   1EFF2FE1           BX       LR
   \                     ??GetIconByItem_2:
   \   00000030   0000A0E3           MOV      R0,#+0
   \   00000034   1EFF2FE1           BX       LR               ;; return
    525          }
    526          
    527          //подключаем модули картинок
    528          
    529          #include "XST.c"

   \                                 In segment DATA_I, align 4, align-sorted
   \   char __data XST_PNG[7212]
   \                     XST_PNG:
   \   00000000                      DS8 7212
   \   00001C2C                      REQUIRE `?<Initializer for XST_PNG>`
    530          #include "status.c"
   \   char __data STATUS_PNG[1753]
   \                     STATUS_PNG:
   \   00001C2C                      DS8 1756
   \   00002308                      REQUIRE `?<Initializer for STATUS_PNG>`
    531          #include "IMAGE.c"
   \   char __data IMAGE_PNG[2850]
   \                     IMAGE_PNG:
   \   00002308                      DS8 2852
   \   00002E2C                      REQUIRE `?<Initializer for IMAGE_PNG>`
    532          

   \                                 In segment CODE, align 4, keep-with-next
    533          void free_bitmap(IMGHDR *img)
    534          {
   \                     free_bitmap:
   \   00000000   10402DE9           PUSH     {R4,LR}
   \   00000004   0040B0E1           MOVS     R4,R0
    535            if(img) 
   \   00000008   1080BD08           POPEQ    {R4,PC}
    536            {
    537              mfree(img->bitmap);
   \   0000000C   040094E5           LDR      R0,[R4, #+4]
   \   00000010   150000EF           SWI      +21
    538              mfree(img);
   \   00000014   0400A0E1           MOV      R0,R4
   \   00000018   150000EF           SWI      +21
    539            }
    540          }
   \   0000001C   1080BDE8           POP      {R4,PC}          ;; return
    541          
    542          #define max_pixel 16
    543          
    544          /*
    545          *  Функция: LoadImg
    546          *  Описание: Возвращает загруженную картинку с диска, или если такой нет, то из тела эльфа
    547          *  Параметры:
    548          *  char *picname - имя загружаемой картинки
    549          *  int max_x - ширина загружаемой картинки
    550          *  char loadFromElf - если загружаться из эльфа, то указываем что грузим
    551          *  loadFromElf = 0 - STATUS_PNG
    552          *  loadFromElf = 1 - IMAGE_PNG
    553          *  loadFromElf = 2 - XST_PNG
    554          *  Возвращаемое значение: Возвращает загруженную картинку в IMGHDR
    555          */

   \                                 In segment CODE, align 4, keep-with-next
    556          IMGHDR *LoadImg(char *picname, int max_x, char loadFromElf)//loadFromElf 0 - STATUS_PNG, 1 - IMAGE_PNG, 2 - XST_PNG
    557          {
   \                     LoadImg:
   \   00000000   F04F2DE9           PUSH     {R4-R11,LR}
    558            IMGHDR *img;
    559            //если на флешке есть файл то загружаем его
    560            if(get_file_size(MakeGlobalString(ICON_PATH,'\\',/*"status.png"*/picname)))
   \   00000004   ........           LDR      R9,??DataTable20  ;; ICON_PATH
   \   00000008   E0A09FE5           LDR      R10,??LoadImg_0  ;; XST_PNG
   \   0000000C   0060A0E1           MOV      R6,R0
   \   00000010   0170A0E1           MOV      R7,R1
   \   00000014   0280A0E1           MOV      R8,R2
   \   00000018   0620A0E1           MOV      R2,R6
   \   0000001C   5C10A0E3           MOV      R1,#+92
   \   00000020   0900A0E1           MOV      R0,R9
   \   00000024   ........           _BLF     MakeGlobalString,??MakeGlobalString??rA
   \   00000028   2C10A0E3           MOV      R1,#+44
   \   0000002C   701D81E3           ORR      R1,R1,#0x1C00
   \   00000030   0A4081E0           ADD      R4,R1,R10
   \   00000034   0810A0E3           MOV      R1,#+8
   \   00000038   8C1D81E3           ORR      R1,R1,#0x2300
   \   0000003C   0A5081E0           ADD      R5,R1,R10
   \   00000040   ........           BL       get_file_size
   \   00000044   000050E3           CMP      R0,#+0
   \   00000048   1700000A           BEQ      ??LoadImg_1
    561            {
    562              img = CreateIMGHDRFromPngFile(MakeGlobalString(ICON_PATH,'\\',picname/*"status.png"*/),0);
   \   0000004C   0620A0E1           MOV      R2,R6
   \   00000050   5C10A0E3           MOV      R1,#+92
   \   00000054   0900A0E1           MOV      R0,R9
   \   00000058   ........           _BLF     MakeGlobalString,??MakeGlobalString??rA
   \   0000005C   0010A0E3           MOV      R1,#+0
   \   00000060   E90100EF           SWI      +489
   \   00000064   00B0B0E1           MOVS     R11,R0
    563              if(img && (img->w > (/*(IS_FFC+1)*/max_x) || img->h > max_pixel))//защита от дурака =) если размер не стандарт тоочищаем и загружаем то шо в эльфе
   \   00000068   0F00000A           BEQ      ??LoadImg_1
   \   0000006C   0000DBE5           LDRB     R0,[R11, #+0]
   \   00000070   000057E1           CMP      R7,R0
   \   00000074   020000BA           BLT      ??LoadImg_2
   \   00000078   0100DBE5           LDRB     R0,[R11, #+1]
   \   0000007C   110050E3           CMP      R0,#+17
   \   00000080   0900003A           BCC      ??LoadImg_1
    564              {
    565                free_bitmap(img);   
   \                     ??LoadImg_2:
   \   00000084   0B00A0E1           MOV      R0,R11
   \   00000088   ........           BL       free_bitmap
    566                char *path = (loadFromElf==0) ? (STATUS_PNG) : ((loadFromElf==1) ? (IMAGE_PNG) : (XST_PNG));
   \   0000008C   000058E3           CMP      R8,#+0
   \   00000090   0400A001           MOVEQ    R0,R4
   \   00000094   0200000A           BEQ      ??LoadImg_3
   \   00000098   010058E3           CMP      R8,#+1
   \   0000009C   0500A001           MOVEQ    R0,R5
   \   000000A0   0A00A011           MOVNE    R0,R10
    567                img = read_pngimg(path);
   \                     ??LoadImg_3:
   \   000000A4   ........           _BLF     read_pngimg,??read_pngimg??rA
   \   000000A8   00B0A0E1           MOV      R11,R0
    568              }
    569            }
    570           
    571            //если файла нет то загружаем графу из эльфа
    572            if(!get_file_size(MakeGlobalString(ICON_PATH,'\\',picname/*"status.png"*/)))
   \                     ??LoadImg_1:
   \   000000AC   0620A0E1           MOV      R2,R6
   \   000000B0   5C10A0E3           MOV      R1,#+92
   \   000000B4   0900A0E1           MOV      R0,R9
   \   000000B8   ........           _BLF     MakeGlobalString,??MakeGlobalString??rA
   \   000000BC   ........           BL       get_file_size
   \   000000C0   000050E3           CMP      R0,#+0
   \   000000C4   0700001A           BNE      ??LoadImg_4
    573              img = read_pngimg((loadFromElf==0) ? (STATUS_PNG) : ((loadFromElf==1) ? (IMAGE_PNG) : (XST_PNG)));
   \   000000C8   000058E3           CMP      R8,#+0
   \   000000CC   04A0A001           MOVEQ    R10,R4
   \   000000D0   0100000A           BEQ      ??LoadImg_5
   \   000000D4   010058E3           CMP      R8,#+1
   \   000000D8   05A0A001           MOVEQ    R10,R5
   \                     ??LoadImg_5:
   \   000000DC   0A00A0E1           MOV      R0,R10
   \   000000E0   ........           _BLF     read_pngimg,??read_pngimg??rA
   \   000000E4   00B0A0E1           MOV      R11,R0
    574            
    575            return img;
   \                     ??LoadImg_4:
   \   000000E8   0B00A0E1           MOV      R0,R11
   \   000000EC   F08FBDE8           POP      {R4-R11,PC}      ;; return
   \                     ??LoadImg_0:
   \   000000F0   ........           DC32     XST_PNG
    576          }
    577          
    578          
    579          
    580          /*
    581          *  Функция: LoadImages
    582          *  Описание: Загружает картинки, статусы, х-статусы, и картинки меню
    583          *  Параметры: Ни паких параметров
    584          *  Возвращаемое значение: ничего не возвращает
    585          */

   \                                 In segment CODE, align 4, keep-with-next
    586          void LoadImages()
    587          {
   \                     LoadImages:
   \   00000000   70402DE9           PUSH     {R4-R6,LR}
    588            IMGHDR *img;
    589            
    590            img = LoadImg("status.png", (IS_FFC+1)*max_pixel, 0);
   \   00000004   B4409FE5           LDR      R4,??LoadImages_0  ;; `?<Constant "status.png">`
   \   00000008   40DF4DE2           SUB      SP,SP,#+256
   \   0000000C   0020A0E3           MOV      R2,#+0
   \   00000010   D010A0E3           MOV      R1,#+208
   \   00000014   0400A0E1           MOV      R0,R4
   \   00000018   ........           BL       LoadImg
   \   0000001C   0050A0E1           MOV      R5,R0
    591          
    592            int start_x = 0;
                       ^
Warning[Pe177]: variable "start_x" was declared but never referenced
    593          //  int pos_w = 0, pos_h = 0;
    594            for(int i = 0 ; i < TOTAL_ICONS ; i++)
   \   00000020   0060A0E3           MOV      R6,#+0
   \   00000024   020000EA           B        ??LoadImages_1
    595            {
    596          #ifdef ELKA
    597              if(i == IS_MSG)//если дошли до картинки сообщений, то подгружаем файл с картинками
    598              {
    599                free_bitmap(img);      
    600                img = LoadImg("image.png", (ICON_UNCHECK - IS_MSG)*max_pixel, 1);
    601                start_x = 0;
    602              }
    603          
    604              if(i <= IS_FFC)//загружаем статусы
    605              {
    606                AddIcon(img, start_x);
    607                start_x += img_x_size;
    608              }
    609              else
    610              {
    611                if(i == ICON_LOGO || i == ICON_BG)
    612                {
    613                  //просто добавим NULL...не нужна она...
    614                  AddIcon(NULL,1);            
    615                  i++;
    616                }
    617          
    618                AddIcon(img, start_x);
    619                start_x += img_x_size;
    620                if(start_x > img->w) break;
    621              }
    622          #else
    623                extern const char *icons_names[];
    624                char fn[128];
    625                sprintf(fn,"%s\\%s",ICON_PATH, icons_names[i]);
    626                if(get_file_size(fn))
    627                  AddIcon(CreateIMGHDRFromPngFile(fn,0), 0);
    628                else
    629                  AddIcon(NULL,1);
   \                     ??LoadImages_2:
   \   00000028   0110A0E3           MOV      R1,#+1
   \                     ??LoadImages_3:
   \   0000002C   ........           BL       AddIcon
   \   00000030   016086E2           ADD      R6,R6,#+1
   \                     ??LoadImages_1:
   \   00000034   1F0056E3           CMP      R6,#+31
   \   00000038   0E00002A           BCS      ??LoadImages_4
   \   0000003C   80009FE5           LDR      R0,??LoadImages_0+0x4  ;; icons_names
   \   00000040   ........           LDR      R2,??DataTable20  ;; ICON_PATH
   \   00000044   063190E7           LDR      R3,[R0, +R6, LSL #+2]
   \   00000048   0C1084E2           ADD      R1,R4,#+12
   \   0000004C   0D00A0E1           MOV      R0,SP
   \   00000050   160000EF           SWI      +22
   \   00000054   0D00A0E1           MOV      R0,SP
   \   00000058   ........           BL       get_file_size
   \   0000005C   000050E3           CMP      R0,#+0
   \   00000060   F0FFFF0A           BEQ      ??LoadImages_2
   \   00000064   0010A0E3           MOV      R1,#+0
   \   00000068   0D00A0E1           MOV      R0,SP
   \   0000006C   E90100EF           SWI      +489
   \   00000070   0010A0E3           MOV      R1,#+0
   \   00000074   ECFFFFEA           B        ??LoadImages_3
    630          #endif
    631             }
    632            
    633            //x-statuses
    634          #ifdef ELKA
    635            free_bitmap(img);
    636            img = LoadImg("xst.png",594,2);
    637            
    638            start_x = 0;
    639          #else
    640            char fn[128];
    641          #endif
    642            
    643            for(int i = 0 ; i<35 ; i++)
   \                     ??LoadImages_4:
   \   00000078   0060A0E3           MOV      R6,#+0
    644             {
    645          #ifdef ELKA
    646               AddXIcon(img, start_x);
    647               start_x += 17;
    648               if(start_x > img->w) break;
    649          #else
    650               sprintf(fn,"%s\\%d.png",XSTATUSES_PATH, i);
   \                     ??LoadImages_5:
   \   0000007C   44209FE5           LDR      R2,??LoadImages_0+0x8  ;; XSTATUSES_PATH
   \   00000080   0630A0E1           MOV      R3,R6
   \   00000084   141084E2           ADD      R1,R4,#+20
   \   00000088   80008DE2           ADD      R0,SP,#+128
   \   0000008C   160000EF           SWI      +22
    651               AddXIcon(CreateIMGHDRFromPngFile(fn,0), 0);
   \   00000090   0010A0E3           MOV      R1,#+0
   \   00000094   80008DE2           ADD      R0,SP,#+128
   \   00000098   E90100EF           SWI      +489
   \   0000009C   0010A0E3           MOV      R1,#+0
   \   000000A0   ........           BL       AddXIcon
    652          #endif
    653             }
   \   000000A4   016086E2           ADD      R6,R6,#+1
   \   000000A8   230056E3           CMP      R6,#+35
   \   000000AC   F2FFFFBA           BLT      ??LoadImages_5
    654            free_bitmap(img);
   \   000000B0   0500A0E1           MOV      R0,R5
   \   000000B4   ........           BL       free_bitmap
    655          }
   \   000000B8   40DF8DE2           ADD      SP,SP,#+256
   \   000000BC   7080BDE8           POP      {R4-R6,PC}       ;; return
   \                     ??LoadImages_0:
   \   000000C0   ........           DC32     `?<Constant "status.png">`
   \   000000C4   ........           DC32     icons_names
   \   000000C8   ........           DC32     XSTATUSES_PATH
    656          
    657          
    658          /*
    659          *  Функция:  LoadingSmiles
    660          *  Описание: Загружает смайлики в буфер
    661          *  Параметры: Никаких
    662          *  Возвращаемое значение: Ничего не возвращает
    663          */

   \                                 In segment CODE, align 4, keep-with-next
    664          void LoadingSmiles(void)
    665          {
   \                     LoadingSmiles:
   \   00000000   F0432DE9           PUSH     {R4-R9,LR}
    666            //xstatuses_load=0;
    667            if(get_file_size(MakeGlobalString(ICON_PATH,'\\',"smiles.png")))//если есть файл со смайлами, то грузим
   \   00000004   ........           LDR      R7,??DataTable20  ;; ICON_PATH
   \   00000008   40819FE5           LDR      R8,??LoadingSmiles_0  ;; `?<Constant "smiles.png">`
   \   0000000C   ........           LDR      R4,??DataTable22  ;; s_top
   \   00000010   0820A0E1           MOV      R2,R8
   \   00000014   5C10A0E3           MOV      R1,#+92
   \   00000018   0700A0E1           MOV      R0,R7
   \   0000001C   ........           _BLF     MakeGlobalString,??MakeGlobalString??rA
   \   00000020   ........           BL       get_file_size
   \   00000024   000050E3           CMP      R0,#+0
   \   00000028   4500000A           BEQ      ??LoadingSmiles_1
    668            {
    669              int x=0,y=0;
   \   0000002C   0050A0E3           MOV      R5,#+0
   \   00000030   0060A0E3           MOV      R6,#+0
    670              IMGHDR *img = CreateIMGHDRFromPngFile(MakeGlobalString(ICON_PATH,'\\',"smiles.png"),0);
   \   00000034   0820A0E1           MOV      R2,R8
   \   00000038   5C10A0E3           MOV      R1,#+92
   \   0000003C   0700A0E1           MOV      R0,R7
   \   00000040   ........           _BLF     MakeGlobalString,??MakeGlobalString??rA
   \   00000044   0510A0E1           MOV      R1,R5
   \   00000048   E90100EF           SWI      +489
   \   0000004C   0070A0E1           MOV      R7,R0
    671              for(int count=0;count<96;count++)
   \   00000050   0580A0E1           MOV      R8,R5
   \   00000054   090000EA           B        ??LoadingSmiles_2
    672              {
    673                if((count > 0 && count%12 == 0) || (x > img->w)) { x = 0; y+=28; }
   \                     ??LoadingSmiles_3:
   \   00000058   010058E3           CMP      R8,#+1
   \   0000005C   070000BA           BLT      ??LoadingSmiles_2
   \   00000060   EC009FE5           LDR      R0,??LoadingSmiles_0+0x4  ;; 0x2aaaaaab
   \   00000064   9810C2E0           SMULL    R1,R2,R8,R0
   \   00000068   0C10A0E3           MOV      R1,#+12
   \   0000006C   C220A0E1           ASR      R2,R2,#+1
   \   00000070   A82F82E0           ADD      R2,R2,R8, LSR #+31
   \   00000074   910202E0           MUL      R2,R1,R2
   \   00000078   020058E0           SUBS     R0,R8,R2
   \   0000007C   0200000A           BEQ      ??LoadingSmiles_4
   \                     ??LoadingSmiles_2:
   \   00000080   0000D7E5           LDRB     R0,[R7, #+0]
   \   00000084   050050E1           CMP      R0,R5
   \   00000088   010000AA           BGE      ??LoadingSmiles_5
   \                     ??LoadingSmiles_4:
   \   0000008C   0050A0E3           MOV      R5,#+0
   \   00000090   1C6086E2           ADD      R6,R6,#+28
    674                AddSmile(img,x,y);
   \                     ??LoadingSmiles_5:
   \   00000094   1C10A0E3           MOV      R1,#+28
   \   00000098   1C00A0E3           MOV      R0,#+28
   \   0000009C   ........           _BLF     CreateImgr,??CreateImgr??rA
   \   000000A0   ........           BL       NewIcon
   \   000000A4   0090A0E1           MOV      R9,R0
   \   000000A8   1B0086E2           ADD      R0,R6,#+27
   \   000000AC   01002DE9           PUSH     {R0}
   \   000000B0   0030A0E3           MOV      R3,#+0
   \   000000B4   0320A0E1           MOV      R2,R3
   \   000000B8   1B0085E2           ADD      R0,R5,#+27
   \   000000BC   01002DE9           PUSH     {R0}
   \   000000C0   0600A0E1           MOV      R0,R6
   \   000000C4   01002DE9           PUSH     {R0}
   \   000000C8   0500A0E1           MOV      R0,R5
   \   000000CC   01002DE9           PUSH     {R0}
   \   000000D0   081099E5           LDR      R1,[R9, #+8]
   \   000000D4   0700A0E1           MOV      R0,R7
   \   000000D8   ........           _BLF     drawimg2img,??drawimg2img??rA
   \   000000DC   080099E5           LDR      R0,[R9, #+8]
   \   000000E0   0110A0E3           MOV      R1,#+1
   \   000000E4   ........           _BLF     PressImg,??PressImg??rA
   \   000000E8   1C0094E5           LDR      R0,[R4, #+28]
   \   000000EC   10D08DE2           ADD      SP,SP,#+16
   \   000000F0   000050E3           CMP      R0,#+0
   \   000000F4   1C908405           STREQ    R9,[R4, #+28]
   \   000000F8   0700000A           BEQ      ??LoadingSmiles_6
   \   000000FC   001090E5           LDR      R1,[R0, #+0]
   \   00000100   000051E3           CMP      R1,#+0
   \   00000104   0300000A           BEQ      ??LoadingSmiles_7
   \                     ??LoadingSmiles_8:
   \   00000108   000090E5           LDR      R0,[R0, #+0]
   \   0000010C   001090E5           LDR      R1,[R0, #+0]
   \   00000110   000051E3           CMP      R1,#+0
   \   00000114   FBFFFF1A           BNE      ??LoadingSmiles_8
   \                     ??LoadingSmiles_7:
   \   00000118   009080E5           STR      R9,[R0, #+0]
    675                x += 28;
    676                if(y > img->h) break;
   \                     ??LoadingSmiles_6:
   \   0000011C   0100D7E5           LDRB     R0,[R7, #+1]
   \   00000120   1C5085E2           ADD      R5,R5,#+28
   \   00000124   060050E1           CMP      R0,R6
   \   00000128   020000BA           BLT      ??LoadingSmiles_9
    677              }
   \   0000012C   018088E2           ADD      R8,R8,#+1
   \   00000130   600058E3           CMP      R8,#+96
   \   00000134   C7FFFFBA           BLT      ??LoadingSmiles_3
    678              free_bitmap(img);
   \                     ??LoadingSmiles_9:
   \   00000138   0700A0E1           MOV      R0,R7
   \   0000013C   ........           BL       free_bitmap
   \   00000140   F083BDE8           POP      {R4-R9,PC}
    679            }
    680            else
    681            {
    682              smilestop = 0;
   \                     ??LoadingSmiles_1:
   \   00000144   1C0084E5           STR      R0,[R4, #+28]
    683              //pictures_loaded = pictures_max;
    684              FreeSmiles();
   \   00000148   ........           BL       FreeSmiles
    685            }
    686          }
   \   0000014C   F083BDE8           POP      {R4-R9,PC}       ;; return
   \                     ??LoadingSmiles_0:
   \   00000150   ........           DC32     `?<Constant "smiles.png">`
   \   00000154   ABAAAA2A           DC32     0x2aaaaaab
    687          
    688          
    689          /*
    690          *  Функция: LoadingImages
    691          *  Описание: При старте эльфа последовательно загружает все картинки нужные в эльфе
    692          *  Параметры: Никаких
    693          *  Возвращаемое значение: Ничего не возвращает
    694          */

   \                                 In segment CODE, align 4, keep-with-next
    695          void LoadingImages()//загружаем смайлы, последовательности функций не менять...
    696          {
    697             n_pic = FIRST_UCS2_BITMAP;
   \                     LoadingImages:
   \   00000000   24009FE5           LDR      R0,??LoadingImages_0  ;; s_top + 20
   \   00000004   00402DE9           PUSH     {LR}
   \   00000008   3710A0E3           MOV      R1,#+55
   \   0000000C   E11C81E3           ORR      R1,R1,#0xE100
   \   00000010   001080E5           STR      R1,[R0, #+0]
    698             CheckSmiles();
   \   00000014   ........           BL       CheckSmiles
    699             LoadingSmiles(); 
   \   00000018   ........           BL       LoadingSmiles
    700             InitSmiles();
   \   0000001C   ........           BL       InitSmiles
    701             ProcessNextSmile();
   \   00000020   ........           BL       ProcessNextSmile
    702             LoadImages();
   \   00000024   0040BDE8           POP      {LR}             ;; Pop
   \   00000028   ........           B        LoadImages       ;; tailcall
   \                     ??LoadingImages_0:
   \   0000002C   ........           DC32     s_top + 20
    703          }
    704          

   \                                 In segment CODE, align 4, keep-with-next
    705          void FreeAllList()//очищаем все списки
    706          {
   \                     FreeAllList:
   \   00000000   10402DE9           PUSH     {R4,LR}
    707             FreeSmileList();
   \   00000004   ........           LDR      R4,??DataTable22  ;; s_top
   \   00000008   1C0094E5           LDR      R0,[R4, #+28]
   \   0000000C   ........           BL       FreeList
    708             FreeSmiles();
   \   00000010   ........           BL       FreeSmiles
    709             FreeIconList();
   \   00000014   200094E5           LDR      R0,[R4, #+32]
   \   00000018   ........           BL       FreeList
    710             FreeXIconList();
   \   0000001C   240094E5           LDR      R0,[R4, #+36]
   \   00000020   1040BDE8           POP      {R4,LR}          ;; Pop
   \   00000024   ........           B        FreeList         ;; tailcall
    711          }

   \                                 In segment CODE, align 4, keep-with-next
   \                     ??DataTable5:
   \   00000000   ........           DC32     SMILE_FILE

   \                                 In segment CODE, align 4, keep-with-next
   \                     ??DataTable7:
   \   00000000   ........           DC32     s_top + 28

   \                                 In segment CODE, align 4, keep-with-next
   \                     ??DataTable8:
   \   00000000   ........           DC32     s_top

   \                                 In segment CODE, align 4, keep-with-next
   \                     ??DataTable13:
   \   00000000   ........           DC32     s_top + 36

   \                                 In segment CODE, align 4, keep-with-next
   \                     ??DataTable17:
   \   00000000   ........           DC32     s_top + 32

   \                                 In segment CODE, align 4, keep-with-next
   \                     ??DataTable20:
   \   00000000   ........           DC32     ICON_PATH

   \                                 In segment CODE, align 4, keep-with-next
   \                     ??DataTable22:
   \   00000000   ........           DC32     s_top

   \                                 In segment DATA_ID, align 4, align-sorted
   \                     `?<Initializer for XST_PNG>`:
   \   00000000   89504E470D0A       DC8 89H, 50H, 4EH, 47H, 0DH, 0AH, 1AH, 0AH
   \              1A0A        
   \   00000008   0000000D4948       DC8 0, 0, 0, 0DH, 49H, 48H, 44H, 52H
   \              4452        
   \   00000010   000002520000       DC8 0, 0, 2, 52H, 0, 0, 0, 10H
   \              0010        
   \   00000018   0806000000DD       DC8 8, 6, 0, 0, 0, 0DDH, 0D0H, 91H
   \              D091        
   \   00000020   3D0000000173       DC8 3DH, 0, 0, 0, 1, 73H, 52H, 47H
   \              5247        
   \   00000028   4200AECE1CE9       DC8 42H, 0, 0AEH, 0CEH, 1CH, 0E9H, 0, 0
   \              0000        
   \   00000030   000467414D41       DC8 0, 4, 67H, 41H, 4DH, 41H, 0, 0
   \              0000        
   \   00000038   B18F0BFC6105       DC8 0B1H, 8FH, 0BH, 0FCH, 61H, 5, 0, 0
   \              0000        
   \   00000040   00206348524D       DC8 0, 20H, 63H, 48H, 52H, 4DH, 0, 0
   \              0000        
   \   00000048   7A2600008084       DC8 7AH, 26H, 0, 0, 80H, 84H, 0, 0
   \              0000        
   \   00000050   FA00000080E8       DC8 0FAH, 0, 0, 0, 80H, 0E8H, 0, 0
   \              0000        
   \   00000058   75300000EA60       DC8 75H, 30H, 0, 0, 0EAH, 60H, 0, 0
   \              0000        
   \   00000060   3A9800001770       DC8 3AH, 98H, 0, 0, 17H, 70H, 9CH, 0BAH
   \              9CBA        
   \   00000068   513C00000018       DC8 51H, 3CH, 0, 0, 0, 18H, 74H, 45H
   \              7445        
   \   00000070   5874536F6674       DC8 58H, 74H, 53H, 6FH, 66H, 74H, 77H, 61H
   \              7761        
   \   00000078   726500506169       DC8 72H, 65H, 0, 50H, 61H, 69H, 6EH, 74H
   \              6E74        
   \   00000080   2E4E45542076       DC8 2EH, 4EH, 45H, 54H, 20H, 76H, 33H, 2EH
   \              332E        
   \   00000088   3336A9E7E225       DC8 33H, 36H, 0A9H, 0E7H, 0E2H, 25H, 0, 0
   \              0000        
   \   00000090   1B8549444154       DC8 1BH, 85H, 49H, 44H, 41H, 54H, 78H, 5EH
   \              785E        
   \   00000098   D59D61AC65D5       DC8 0D5H, 9DH, 61H, 0ACH, 65H, 0D5H, 55H, 0C7H
   \              55C7        
   \   000000A0   DF581B07E307       DC8 0DFH, 58H, 1BH, 7, 0E3H, 7, 3EH, 0F8H
   \              3EF8        
   \   000000A8   61A60AD8E988       DC8 61H, 0A6H, 0AH, 0D8H, 0E9H, 88H, 0CH, 0C4H
   \              0CC4        
   \   000000B0   E274D2D821D5       DC8 0E2H, 74H, 0D2H, 0D8H, 21H, 0D5H, 90H, 19H
   \              9019        
   \   000000B8   893AC5586648       DC8 89H, 3AH, 0C5H, 58H, 66H, 48H, 2AH, 43H
   \              2A43        
   \   000000C0   1A1A1E0C9087       DC8 1AH, 1AH, 1EH, 0CH, 90H, 87H, 1AH, 0FAH
   \              1AFA        
   \   000000C8   D00FBEC609E1       DC8 0D0H, 0FH, 0BEH, 0C6H, 9, 0E1H, 55H, 0F9H
   \              55F9        
   \   000000D0   F022697D1486       DC8 0F0H, 22H, 69H, 7DH, 14H, 86H, 3EH, 0C4H
   \              3EC4        
   \   000000D8   065F119347A3       DC8 6, 5FH, 11H, 93H, 47H, 0A3H, 0E1H, 35H
   \              E135        
   \   000000E0   26E4E22072FD       DC8 26H, 0E4H, 0E2H, 20H, 72H, 0FDH, 0C0H, 0CCH
   \              C0CC        
   \   000000E8   2505738D94B9       DC8 25H, 5, 73H, 8DH, 94H, 0B9H, 0A6H, 9AH
   \              A69A        
   \   000000F0   72FB41B934A5       DC8 72H, 0FBH, 41H, 0B9H, 34H, 0A5H, 0B9H, 0DAH
   \              B9DA        
   \   000000F8   22DBF5DFE7FC       DC8 22H, 0DBH, 0F5H, 0DFH, 0E7H, 0FCH, 0CFH, 5BH
   \              CF5B        
   \   00000100   67DDB5CFD9F7       DC8 67H, 0DDH, 0B5H, 0CFH, 0D9H, 0F7H, 0CEH, 1BH
   \              CE1B        
   \   00000108   A2375939E7EC       DC8 0A2H, 37H, 59H, 39H, 0E7H, 0ECH, 73H, 0CEH
   \              73CE        
   \   00000110   BEFBECB3CFDE       DC8 0BEH, 0FBH, 0ECH, 0B3H, 0CFH, 0DEH, 0BFH, 0FBH
   \              BFFB        
   \   00000118   5FEBECBB636E       DC8 5FH, 0EBH, 0ECH, 0BBH, 63H, 6EH, 9BH, 3FH
   \              9B3F        
   \   00000120   270ECC850307       DC8 27H, 0EH, 0CCH, 85H, 3, 7, 9AH, 33H
   \              9A33        
   \   00000128   BDE3D1B91D4D       DC8 0BDH, 0E3H, 0D1H, 0B9H, 1DH, 4DH, 47H, 0F4H
   \              47F4        
   \   00000130   56E682DEBF7B       DC8 56H, 0E6H, 82H, 0DEH, 0BFH, 7BH, 0A1H, 0B6H
   \              A1B6        
   \   00000138   39B7FBA21DF1       DC8 39H, 0B7H, 0FBH, 0A2H, 1DH, 0F1H, 0FCH, 95H
   \              FC95        
   \   00000140   CE30EEB8F7F0       DC8 0CEH, 30H, 0EEH, 0B8H, 0F7H, 0F0H, 0EEH, 1DH
   \              EE1D        
   \   00000148   A74F9F0ED75E       DC8 0A7H, 4FH, 9FH, 0EH, 0D7H, 5EH, 7BH, 6DH
   \              7B6D        
   \   00000150   4C9FDF5F3FDF       DC8 4CH, 9FH, 0DFH, 5FH, 3FH, 0DFH, 7EH, 0D7H
   \              7ED7        
   \   00000158   632F377F7F4E       DC8 63H, 2FH, 37H, 7FH, 7FH, 4EH, 95H, 0F4H
   \              95F4        
   \   00000160   E6E6C347E61E       DC8 0E6H, 0E6H, 0C3H, 47H, 0E6H, 1EH, 9BH, 0B8H
   \              9BB8        
   \   00000168   0E5D0E9DCF52       DC8 0EH, 5DH, 0EH, 9DH, 0CFH, 52H, 0B7H, 28H
   \              B728        
   \   00000170   2B3E9FBF6677       DC8 2BH, 3EH, 9FH, 0BFH, 66H, 77H, 0E3H, 0F5H
   \              E3F5        
   \   00000178   A7F2F0CA75F1       DC8 0A7H, 0F2H, 0F0H, 0CAH, 75H, 0F1H, 0C1H, 0E5H
   \              C1E5        
   \   00000180   2ADFB7FEF173       DC8 2AH, 0DFH, 0B7H, 0FEH, 0F1H, 73H, 55H, 0BEH
   \              55BE        
   \   00000188   B979ACAABABA       DC8 0B9H, 79H, 0ACH, 0AAH, 0BAH, 0BAH, 0DBH, 0D4H
   \              DBD4        
   \   00000190   4B328FFDF361       DC8 4BH, 32H, 8FH, 0FDH, 0F3H, 61H, 0EEH, 65H
   \              EE65        
   \   00000198   75ED765B1534       DC8 75H, 0EDH, 76H, 5BH, 15H, 34H, 95H, 0C7H
   \              95C7        
   \   000001A0   60BC56BFA9E5       DC8 60H, 0BCH, 56H, 0BFH, 0A9H, 0E5H, 39H, 7BH
   \              397B        
   \   000001A8   2EBA2DAB4ED7       DC8 2EH, 0BAH, 2DH, 0ABH, 4EH, 0D7H, 3AH, 83H
   \              3A83        
   \   000001B0   70DBE13DF1D8       DC8 70H, 0DBH, 0E1H, 3DH, 0F1H, 0D8H, 0D4H, 0BAH
   \              D4BA        
   \   000001B8   AE2F96637533       DC8 0AEH, 2FH, 96H, 63H, 75H, 33H, 84H, 0BBH
   \              84BB        
   \   000001C0   3F51B41F5D77       DC8 3FH, 51H, 0B4H, 1FH, 5DH, 77H, 0B6H, 6EH
   \              B66E        
   \   000001C8   5997FAF8D4B5       DC8 59H, 97H, 0FAH, 0F8H, 0D4H, 0B5H, 0A4H, 0DAH
   \              A4DA        
   \   000001D0   9BD7CE6A79A0       DC8 9BH, 0D7H, 0CEH, 6AH, 79H, 0A0H, 0DEH, 0F8H
   \              DEF8        
   \   000001D8   B1F5E9A59769       DC8 0B1H, 0F5H, 0E9H, 0A5H, 97H, 69H, 0B6H, 1CH
   \              B61C        
   \   000001E0   F8FEFDFBDA5B       DC8 0F8H, 0FEH, 0FDH, 0FBH, 0DAH, 5BH, 0EDH, 0DDH
   \              EDDD        
   \   000001E8   5FDD6AF7B9ED       DC8 5FH, 0DDH, 6AH, 0F7H, 0B9H, 0EDH, 0A3H, 29H
   \              A329        
   \   000001F0   D7541E2174DD       DC8 0D7H, 54H, 1EH, 21H, 74H, 0DDH, 7BH, 0BBH
   \              7BBB        
   \   000001F8   63C73559F716       DC8 63H, 0C7H, 35H, 59H, 0F7H, 16H, 0DFH, 0D9H
   \              DFD9        
   \   00000200   1FF7DC3CAEBC       DC8 1FH, 0F7H, 0DCH, 3CH, 0AEH, 0BCH, 0E8H, 23H
   \              E823        
   \   00000208   D979D8B27737       DC8 0D9H, 79H, 0D8H, 0B2H, 77H, 37H, 0B6H, 0DAH
   \              B6DA        
   \   00000210   DC35C7EAED6C       DC8 0DCH, 35H, 0C7H, 0EAH, 0EDH, 6CH, 0E6H, 0FAH
   \              E6FA        
   \   00000218   38D429CAF9DC       DC8 38H, 0D4H, 29H, 0CAH, 0F9H, 0DCH, 0E1H, 5AH
   \              E15A        
   \   00000220   1F547D37F7DB       DC8 1FH, 54H, 7DH, 37H, 0F7H, 0DBH, 0C2H, 0C8H
   \              C2C8        
   \   00000228   F15EDDB21C6C       DC8 0F1H, 5EH, 0DDH, 0B2H, 1CH, 6CH, 53H, 68H
   \              5368        
   \   00000230   43AB83415517       DC8 43H, 0ABH, 83H, 41H, 55H, 17H, 2FH, 1FH
   \              2F1F        
   \   00000238   DB134FDBF9F5       DC8 0DBH, 13H, 4FH, 0DBH, 0F9H, 0F5H, 30H, 0F7H
   \              30F7        
   \   00000240   D0EEA21DDB4F       DC8 0D0H, 0EEH, 0A2H, 1DH, 0DBH, 4FH, 0F2H, 5AH
   \              F25A        
   \   00000248   E6C3649D3E36       DC8 0E6H, 0C3H, 64H, 9DH, 3EH, 36H, 5DH, 1EH
   \              5D1E        
   \   00000250   B3B6F58D8D43       DC8 0B3H, 0B6H, 0F5H, 8DH, 8DH, 43H, 0EEH, 0FDH
   \              EEFD        
   \   00000258   F4CA7FECD873       DC8 0F4H, 0CAH, 7FH, 0ECH, 0D8H, 73H, 53H, 0F7H
   \              53F7        
   \   00000260   63BFF5EB3F5E       DC8 63H, 0BFH, 0F5H, 0EBH, 3FH, 5EH, 0CBH, 0FFH
   \              CBFF        
   \   00000268   C9AF7F7F6E87       DC8 0C9H, 0AFH, 7FH, 7FH, 6EH, 87H, 7CH, 90H
   \              7C90        
   \   00000270   FFB4F7F6C081       DC8 0FFH, 0B4H, 0F7H, 0F6H, 0C0H, 81H, 3, 31H
   \              0331        
   \   00000278   AFB367CF4E55       DC8 0AFH, 0B3H, 67H, 0CFH, 4EH, 55H, 0EH, 19H
   \              0E19        
   \   00000280   F7C2D9B3E9B1       DC8 0F7H, 0C2H, 0D9H, 0B3H, 0E9H, 0B1H, 65H, 0DAH
   \              65DA        
   \   00000288   72A00C5290DA       DC8 72H, 0A0H, 0CH, 52H, 90H, 0DAH, 75H, 3DH
   \              753D        
   \   00000290   7FFAF41CC739       DC8 7FH, 0FAH, 0F4H, 1CH, 0C7H, 39H, 5DH, 77H
   \              5D77        
   \   00000298   274F9E74EBF7       DC8 27H, 4FH, 9EH, 74H, 0EBH, 0F7H, 0BEH, 0FBH
   \              BEFB        
   \   000002A0   EECB7E5E3EFC       DC8 0EEH, 0CBH, 7EH, 5EH, 3EH, 0FCH, 0F9H, 1FH
   \              F91F        
   \   000002A8   73F37865E9BF       DC8 73H, 0F3H, 78H, 65H, 0E9H, 0BFH, 0B3H, 0F3H
   \              B3F3        
   \   000002B0   68EF85B68E98       DC8 68H, 0EFH, 85H, 0B6H, 8EH, 98H, 0A5H, 3EH
   \              A53E        
   \   000002B8   BCB67ECF5F5C       DC8 0BCH, 0B6H, 7EH, 0CFH, 5FH, 5CH, 36H, 77H
   \              3677        
   \   000002C0   E98DF74EF3D5       DC8 0E9H, 8DH, 0F7H, 4EH, 0F3H, 0D5H, 0D5H, 0B1H
   \              D5B1        
   \   000002C8   7FFD6B1BFE73       DC8 7FH, 0FDH, 6BH, 1BH, 0FEH, 73H, 3BH, 53H
   \              3B53        
   \   000002D0   6EDB701200EA       DC8 6EH, 0DBH, 70H, 12H, 0, 0EAH, 0D4H, 89H
   \              D489        
   \   000002D8   B980A5B65365       DC8 0B9H, 80H, 0A5H, 0B6H, 53H, 65H, 3AH, 0F6H
   \              3AF6        
   \   000002E0   D5D665DBFB5A       DC8 0D5H, 0D6H, 65H, 0DBH, 0FBH, 5AH, 40H, 54H
   \              4054        
   \   000002E8   08EB622B620B       DC8 8, 0EBH, 62H, 2BH, 62H, 0BH, 62H, 87H
   \              6287        
   \   000002F0   02D206A35033       DC8 2, 0D2H, 6, 0A3H, 50H, 33H, 40H, 14H
   \              4014        
   \   000002F8   3F58C74D417E       DC8 3FH, 58H, 0C7H, 4DH, 41H, 7EH, 78H, 0D0H
   \              78D0        
   \   00000300   7B6BCDD6065A       DC8 7BH, 6BH, 0CDH, 0D6H, 6, 5AH, 6DH, 0D5H
   \              6DD5        
   \   00000308   01880AFD61C0       DC8 1, 88H, 0AH, 0FDH, 61H, 0C0H, 0D2H, 0BBH
   \              D2BB        
   \   00000310   B14C033CD1AA       DC8 0B1H, 4CH, 3, 3CH, 0D1H, 0AAH, 0C2H, 0CAH
   \              C2CA        
   \   00000318   8A4E4F75846D       DC8 8AH, 4EH, 4FH, 75H, 84H, 6DH, 65H, 0C0H
   \              65C0        
   \   00000320   7E8080FE6830       DC8 7EH, 80H, 80H, 0FEH, 68H, 30H, 60H, 7DH
   \              607D        
   \   00000328   34E503880ABD       DC8 34H, 0E5H, 3, 88H, 0AH, 0BDH, 0FDH, 0A1H
   \              FDA1        
   \   00000330   BF3A173697E6       DC8 0BFH, 3AH, 17H, 36H, 97H, 0E6H, 2, 0B6H
   \              02B6        
   \   00000338   7BF2E086F9E2       DC8 7BH, 0F2H, 0E0H, 86H, 0F9H, 0E2H, 0BAH, 1AH
   \              BA1A        
   \   00000340   F30004D01ABE       DC8 0F3H, 0, 4, 0D0H, 1AH, 0BEH, 0C4H, 0E6H
   \              C4E6        
   \   00000348   81BA8701A4AC       DC8 81H, 0BAH, 87H, 1, 0A4H, 0ACH, 0EDH, 3AH
   \              ED3A        
   \   00000350   BA1C6016B2BC       DC8 0BAH, 1CH, 60H, 16H, 0B2H, 0BCH, 72H, 0
   \              7200        
   \   00000358   9EF8B5A9755D       DC8 9EH, 0F8H, 0B5H, 0A9H, 75H, 5DH, 2CH, 9BH
   \              2C9B        
   \   00000360   471344B16EF5       DC8 47H, 13H, 44H, 0B1H, 6EH, 0F5H, 0F9H, 0
   \              F900        
   \   00000368   2AB71CF3C5F5       DC8 2AH, 0B7H, 1CH, 0F3H, 0C5H, 0F5H, 84H, 9EH
   \              849E        
   \   00000370   B40965485B93       DC8 0B4H, 9, 65H, 48H, 5BH, 93H, 7DH, 0C9H
   \              7DC9        
   \   00000378   F62175777CB5       DC8 0F6H, 21H, 75H, 77H, 7CH, 0B5H, 1BH, 0EDH
   \              1BED        
   \   00000380   E0820CF084AA       DC8 0E0H, 82H, 0CH, 0F0H, 84H, 0AAH, 54H, 0BAH
   \              54BA        
   \   00000388   CA48B7F5D5E3       DC8 0CAH, 48H, 0B7H, 0F5H, 0D5H, 0E3H, 0C5H, 0F7H
   \              C5F7        
   \   00000390   6B435A93D97B       DC8 6BH, 43H, 5AH, 93H, 0D9H, 7BH, 0BBH, 0F3H
   \              BBF3        
   \   00000398   F87298C65814       DC8 0F8H, 72H, 98H, 0C6H, 58H, 14H, 5BH, 1FH
   \              5B1F        
   \   000003A0   E3712768ABDA       DC8 0E3H, 71H, 27H, 68H, 0ABH, 0DAH, 87H, 5CH
   \              875C        
   \   000003A8   532DDDB91626       DC8 53H, 2DH, 0DDH, 0B9H, 16H, 26H, 1, 0A0H
   \              01A0        
   \   000003B0   72ACE9DEB21F       DC8 72H, 0ACH, 0E9H, 0DEH, 0B2H, 1FH, 60H, 9DH
   \              609D        
   \   000003B8   605B4394B79D       DC8 60H, 5BH, 43H, 94H, 0B7H, 9DH, 0F3H, 0BCH
   \              F3BC        
   \   000003C0   4C347381243C       DC8 4CH, 34H, 73H, 81H, 24H, 3CH, 2BH, 78H
   \              2B78        
   \   000003C8   66E6647D220F       DC8 66H, 0E6H, 64H, 7DH, 22H, 0FH, 0ECH, 4FH
   \              EC4F        
   \   000003D0   7C707C34F3D1       DC8 7CH, 70H, 7CH, 34H, 0F3H, 0D1H, 0F7H, 0D6H
   \              F7D6        
   \   000003D8   DED7D8B7497E       DC8 0DEH, 0D7H, 0D8H, 0B7H, 49H, 7EH, 0B0H, 5
   \              B005        
   \   000003E0   E9FE684D7D50       DC8 0E9H, 0FEH, 68H, 4DH, 7DH, 50H, 0DCH, 7
   \              DC07        
   \   000003E8   80121B86A313       DC8 80H, 12H, 1BH, 86H, 0A3H, 13H, 0C6H, 7DH
   \              C67D        
   \   000003F0   6D79B02C21EC       DC8 6DH, 79H, 0B0H, 2CH, 21H, 0ECH, 97H, 6FH
   \              976F        
   \   000003F8   9F345DD75EFB       DC8 9FH, 34H, 5DH, 0D7H, 5EH, 0FBH, 0, 48H
   \              0048        
   \   00000400   85B0D66A16B8       DC8 85H, 0B0H, 0D6H, 6AH, 16H, 0B8H, 72H, 0EEH
   \              72EE        
   \   00000408   0B20EABBAF7D       DC8 0BH, 20H, 0EAH, 0BBH, 0AFH, 7DH, 0AEH, 0B2H
   \              AEB2        
   \   00000410   FFE8DD109016       DC8 0FFH, 0E8H, 0DDH, 10H, 90H, 16H, 0CEH, 9CH
   \              CE9C        
   \   00000418   6AEFC7CAC202       DC8 6AH, 0EFH, 0C7H, 0CAH, 0C2H, 2, 9EH, 60H
   \              9E60        
   \   00000420   77DC7567B8E3       DC8 77H, 0DCH, 75H, 67H, 0B8H, 0E3H, 0CEH, 0BBH
   \              CEBB        
   \   00000428   E23A81AAB52F       DC8 0E2H, 3AH, 81H, 0AAH, 0B5H, 2FH, 0ACH, 0F2H
   \              ACF2        
   \   00000430   980B67CE9C49       DC8 98H, 0BH, 67H, 0CEH, 9CH, 49H, 2, 63H
   \              0263        
   \   00000438   CEB5A4BA5202       DC8 0CEH, 0B5H, 0A4H, 0BAH, 52H, 2, 95H, 0CDH
   \              95CD        
   \   00000440   0300054B7DB8       DC8 3, 0, 5, 4BH, 7DH, 0B8H, 0BFH, 0E9H
   \              BFE9        
   \   00000448   790140C17ABD       DC8 79H, 1, 40H, 0C1H, 7AH, 0BDH, 5EH, 0CDH
   \              5ECD        
   \   00000450   FAFD7E8071BF       DC8 0FAH, 0FDH, 7EH, 80H, 71H, 0BFH, 97H, 7
   \              9707        
   \   00000458   CA35AD79EDE3       DC8 0CAH, 35H, 0ADH, 79H, 0EDH, 0E3H, 94H, 0E4H
   \              94E4        
   \   00000460   43F3EA20B51F       DC8 43H, 0F3H, 0EAH, 20H, 0B5H, 1FH, 0F5H, 0B1H
   \              F5B1        
   \   00000468   FFB67F0DEFBE       DC8 0FFH, 0B6H, 7FH, 0DH, 0EFH, 0BEH, 0FBH, 0EEH
   \              FBEE        
   \   00000470   D4F62F575E96       DC8 0D4H, 0F6H, 2FH, 57H, 5EH, 96H, 0DDH, 3EH
   \              DD3E        
   \   00000478   6C99760A63C0       DC8 6CH, 99H, 76H, 0AH, 63H, 0C0H, 52H, 0F7H
   \              52F7        
   \   00000480   6BA674821360       DC8 6BH, 0A6H, 74H, 82H, 13H, 60H, 29H, 9CH
   \              299C        
   \   00000488   3951B31A5401       DC8 39H, 51H, 0B3H, 1AH, 54H, 1, 0A6H, 0CH
   \              A60C        
   \   00000490   6CD92F2C406A       DC8 6CH, 0D9H, 2FH, 2CH, 40H, 6AH, 45H, 0C6H
   \              45C6        
   \   00000498   242C8F885D1C       DC8 24H, 2CH, 8FH, 88H, 5DH, 1CH, 0C2H, 48H
   \              C248        
   \   000004A0   3A10490730F5       DC8 3AH, 10H, 49H, 7, 30H, 0F5H, 5, 0A8H
   \              05A8        
   \   000004A8   6004299C4F90       DC8 60H, 4, 29H, 9CH, 4FH, 90H, 0CAH, 81H
   \              CA81        
   \   000004B0   2842D6AC3045       DC8 28H, 42H, 0D6H, 0ACH, 30H, 45H, 88H, 0AH
   \              880A        
   \   000004B8   6BD2E81A400A       DC8 6BH, 0D2H, 0E8H, 1AH, 40H, 0AH, 0B0H, 64H
   \              B064        
   \   000004C0   E109DB5E7A5B       DC8 0E1H, 9, 0DBH, 5EH, 7AH, 5BH, 27H, 0E6H
   \              27E6        
   \   000004C8   DD1442143B56       DC8 0DDH, 14H, 42H, 14H, 3BH, 56H, 2CH, 37H
   \              2C37        
   \   000004D0   E4972B01A1ED       DC8 0E4H, 97H, 2BH, 1, 0A1H, 0EDH, 0A1H, 0F5H
   \              A1F5        
   \   000004D8   208A83820629       DC8 20H, 8AH, 83H, 82H, 6, 29H, 0AFH, 33H
   \              AF33        
   \   000004E0   9F264D972302       DC8 9FH, 26H, 4DH, 97H, 23H, 2, 0C7H, 7AH
   \              C77A        
   \   000004E8   6116A600504B       DC8 61H, 16H, 0A6H, 0, 50H, 4BH, 0EBH, 0BDH
   \              EBBD        
   \   000004F0   6816A6DAAE25       DC8 68H, 16H, 0A6H, 0DAH, 0AEH, 25H, 0A7H, 0D1H
   \              A7D1        
   \   000004F8   220FC0108ED5       DC8 22H, 0FH, 0C0H, 10H, 8EH, 0D5H, 10H, 75H
   \              1075        
   \   00000500   E8E852B0C6FC       DC8 0E8H, 0E8H, 52H, 0B0H, 0C6H, 0FCH, 78H, 1CH
   \              781C        
   \   00000508   CF4B8114000A       DC8 0CFH, 4BH, 81H, 14H, 0, 0AH, 40H, 44H
   \              4044        
   \   00000510   90E2FA850429       DC8 90H, 0E2H, 0FAH, 85H, 4, 29H, 0DEH, 3
   \              DE03        
   \   00000518   0053FC853142       DC8 0, 53H, 0FCH, 85H, 31H, 42H, 7BH, 0EBH
   \              7BEB        
   \   00000520   8B752AA8D230       DC8 8BH, 75H, 2AH, 0A8H, 0D2H, 30H, 65H, 0EFH
   \              65EF        
   \   00000528   19AF0500D519       DC8 19H, 0AFH, 5, 0, 0D5H, 19H, 0CBH, 59H
   \              CB59        
   \   00000530   5318CEB183CB       DC8 53H, 18H, 0CEH, 0B1H, 83H, 0CBH, 78H, 0BCH
   \              78BC        
   \   00000538   29B0B4658028       DC8 29H, 0B0H, 0B4H, 65H, 80H, 28H, 0B6H, 0A7H
   \              B6A7        
   \   00000540   081A11A6D4FE       DC8 8, 1AH, 11H, 0A6H, 0D4H, 0FEH, 0B2H, 92H
   \              B292        
   \   00000548   759D7A00A561       DC8 75H, 9DH, 7AH, 0, 0A5H, 61H, 0CCH, 0EEH
   \              CCEE        
   \   00000550   F73AE4C80D46       DC8 0F7H, 3AH, 0E4H, 0C8H, 0DH, 46H, 91H, 0C6H
   \              91C6        
   \   00000558   F6B6839482A8       DC8 0F6H, 0B6H, 83H, 94H, 82H, 0A8H, 35H, 0FH
   \              350F        
   \   00000560   A44A88EAC82D       DC8 0A4H, 4AH, 88H, 0EAH, 0C8H, 2DH, 81H, 0A1H
   \              81A1        
   \   00000568   0D79EB16A852       DC8 0DH, 79H, 0EBH, 16H, 0A8H, 52H, 20H, 85H
   \              2085        
   \   00000570   EB8232A59F77       DC8 0EBH, 82H, 32H, 0A5H, 9FH, 77H, 0ACH, 0B7H
   \              ACB7        
   \   00000578   014C0AA02C54       DC8 1, 4CH, 0AH, 0A0H, 2CH, 54H, 45H, 0A0H
   \              45A0        
   \   00000580   529F89E73601       DC8 52H, 9FH, 89H, 0E7H, 36H, 1, 50H, 1AH
   \              501A        
   \   00000588   AA3636F6C5F2       DC8 0AAH, 36H, 36H, 0F6H, 0C5H, 0F2H, 0BCH, 97H
   \              BC97        
   \   00000590   2065214A0315       DC8 20H, 65H, 21H, 4AH, 3, 15H, 55H, 0AAH
   \              55AA        
   \   00000598   B6FE03C074EB       DC8 0B6H, 0FEH, 3, 0C0H, 74H, 0EBH, 6DH, 0B7H
   \              6DB7        
   \   000005A0   89DD1E6EBDFD       DC8 89H, 0DDH, 1EH, 6EH, 0BDH, 0FDH, 0B6H, 30H
   \              B630        
   \   000005A8   2F16B7654998       DC8 2FH, 16H, 0B7H, 65H, 49H, 98H, 0B2H, 79H
   \              B279        
   \   000005B0   407D4AD9EE67       DC8 40H, 7DH, 4AH, 0D9H, 0EEH, 67H, 9EH, 71H
   \              9E71        
   \   000005B8   07589BC7D557       DC8 7, 58H, 9BH, 0C7H, 0D5H, 57H, 5FH, 1DH
   \              5F1D        
   \   000005C0   1E7EF8E180A5       DC8 1EH, 7EH, 0F8H, 0E1H, 80H, 0A5H, 36H, 0DBH
   \              36DB        
   \   000005C8   9F69554AE761       DC8 9FH, 69H, 55H, 4AH, 0E7H, 61H, 1, 0EAH
   \              01EA        
   \   000005D0   CC990302725B       DC8 0CCH, 99H, 3, 2, 72H, 5BH, 0A6H, 0C7H
   \              A6C7        
   \   000005D8   1FAD58E93C34       DC8 1FH, 0ADH, 58H, 0E9H, 3CH, 34H, 40H, 11H
   \              4011        
   \   000005E0   98EC12303590       DC8 98H, 0ECH, 12H, 30H, 35H, 90H, 0B6H, 0A7H
   \              B6A7        
   \   000005E8   152BE6312D44       DC8 15H, 2BH, 0E6H, 31H, 2DH, 44H, 79H, 0D7H
   \              79D7        
   \   000005F0   024892821756       DC8 2, 48H, 92H, 82H, 17H, 56H, 2, 95H
   \              0295        
   \   000005F8   AE83A6FD16A4       DC8 0AEH, 83H, 0A6H, 0FDH, 16H, 0A4H, 0DEH, 0F8H
   \              DEF8        
   \   00000600   AF1F86CE9937       DC8 0AFH, 1FH, 86H, 0CEH, 99H, 37H, 0C3H, 8DH
   \              C38D        
   \   00000608   BFF78D70F896       DC8 0BFH, 0F7H, 8DH, 70H, 0F8H, 96H, 0AFH, 85H
   \              AF85        
   \   00000610   BDBFFA4234AC       DC8 0BDH, 0BFH, 0FAH, 42H, 34H, 0ACH, 23H, 0EDH
   \              23ED        
   \   00000618   D1A75F0B38E6       DC8 0D1H, 0A7H, 5FH, 0BH, 38H, 0E6H, 7, 0EFH
   \              07EF        
   \   00000620   FC674881D41B       DC8 0FCH, 67H, 48H, 81H, 0D4H, 1BH, 0EBH, 3BH
   \              EB3B        
   \   00000628   03CD1B5B0050       DC8 3, 0CDH, 1BH, 5BH, 0, 50H, 0BBH, 43H
   \              BB43        
   \   00000630   0952D76C234C       DC8 9, 52H, 0D7H, 6CH, 23H, 4CH, 45H, 35H
   \              4535        
   \   00000638   CA285116A8B0       DC8 0CAH, 28H, 51H, 16H, 0A8H, 0B0H, 6DH, 0D5H
   \              6DD5        
   \   00000640   2A6CB3A0E86C       DC8 2AH, 6CH, 0B3H, 0A0H, 0E8H, 6CH, 0A3H, 1AH
   \              A31A        
   \   00000648   028B00753084       DC8 2, 8BH, 0, 75H, 30H, 84H, 71H, 1
   \              7101        
   \   00000650   51613017D68F       DC8 51H, 61H, 30H, 17H, 0D6H, 8FH, 22H, 0BDH
   \              22BD        
   \   00000658   00A8DE701C0D       DC8 0, 0A8H, 0DEH, 70H, 1CH, 0DH, 0EBH, 25H
   \              EB25        
   \   00000660   44FD042A5483       DC8 44H, 0FDH, 4, 2AH, 54H, 83H, 54H, 18H
   \              5418        
   \   00000668   4BCFE0DA42A5       DC8 4BH, 0CFH, 0E0H, 0DAH, 42H, 0A5H, 58H, 0E5H
   \              58E5        
   \   00000670   C2143BAB0AA2       DC8 0C2H, 14H, 3BH, 0ABH, 0AH, 0A2H, 36H, 0A4H
   \              36A4        
   \   00000678   679C975F5762       DC8 67H, 9CH, 97H, 5FH, 57H, 62H, 16H, 0A6H
   \              16A6        
   \   00000680   AA462AFBE672       DC8 0AAH, 46H, 2AH, 0FBH, 0E6H, 72H, 0CCH, 0B9H
   \              CCB9        
   \   00000688   536D0F3E6100       DC8 53H, 6DH, 0FH, 3EH, 61H, 0, 0F5H, 31H
   \              F531        
   \   00000690   0B48B910B52C       DC8 0BH, 48H, 0B9H, 10H, 0B5H, 2CH, 0EAH, 96H
   \              EA96        
   \   00000698   18EE01DD7DAC       DC8 18H, 0EEH, 1, 0DDH, 7DH, 0ACH, 0D3H, 51H
   \              D351        
   \   000006A0   EF60ABCAE7A9       DC8 0EFH, 60H, 0ABH, 0CAH, 0E7H, 0A9H, 80H, 0A8H
   \              80A8        
   \   000006A8   375E0B54A669       DC8 37H, 5EH, 0BH, 54H, 0A6H, 69H, 41H, 8AH
   \              418A        
   \   000006B0   CA54DBAFF414       DC8 0CAH, 54H, 0DBH, 0AFH, 0F4H, 14H, 0D8H, 0A5H
   \              D8A5        
   \   000006B8   06060012E169       DC8 6, 6, 0, 12H, 0E1H, 69H, 63H, 0F3H
   \              63F3        
   \   000006C0   60B0C67D56B5       DC8 60H, 0B0H, 0C6H, 7DH, 56H, 0B5H, 6AH, 2
   \              6A02        
   \   000006C8   29AB4861BB0D       DC8 29H, 0ABH, 48H, 61H, 0BBH, 0DH, 0A4H, 0A0H
   \              A4A0        
   \   000006D0   44D1B422E5A6       DC8 44H, 0D1H, 0B4H, 22H, 0E5H, 0A6H, 9BH, 41H
   \              9B41        
   \   000006D8   0ED7DC112551       DC8 0EH, 0D7H, 0DCH, 11H, 25H, 51H, 5FH, 0BBH
   \              5FBB        
   \   000006E0   A074ED17BFAD       DC8 0A0H, 74H, 0EDH, 17H, 0BFH, 0ADH, 97H, 0B0H
   \              97B0        
   \   000006E8   D1AD8EC7B510       DC8 0D1H, 0ADH, 8EH, 0C7H, 0B5H, 10H, 0A2H, 96H
   \              A296        
   \   000006F0   0602F8A5A594       DC8 6, 2, 0F8H, 0A5H, 0A5H, 94H, 29H, 7DH
   \              297D        
   \   000006F8   0CD6711CEB63       DC8 0CH, 0D6H, 71H, 1CH, 0EBH, 63H, 3CH, 0DEH
   \              3CDE        
   \   00000700   1048AA1BAE87       DC8 10H, 48H, 0AAH, 1BH, 0AEH, 87H, 0CFH, 74H
   \              CF74        
   \   00000708   048D0852E618       DC8 4, 8DH, 8, 52H, 0E6H, 18H, 0B9H, 26H
   \              B926        
   \   00000710   E6A12149C313       DC8 0E6H, 0A1H, 21H, 49H, 0C3H, 13H, 55H, 3BH
   \              553B        
   \   00000718   2C3DA8B240A7       DC8 2CH, 3DH, 0A8H, 0B2H, 40H, 0A7H, 41H, 0AH
   \              410A        
   \   00000720   F004234871DB       DC8 0F0H, 4, 23H, 48H, 71H, 0DBH, 5BH, 0E6H
   \              5BE6        
   \   00000728   3C7315F43810       DC8 3CH, 73H, 15H, 0F4H, 38H, 10H, 35H, 51H
   \              3551        
   \   00000730   8E12A4344001       DC8 8EH, 12H, 0A4H, 34H, 40H, 1, 0A4H, 98H
   \              A498        
   \   00000738   C7C2EA165861       DC8 0C7H, 0C2H, 0EAH, 16H, 58H, 61H, 9DH, 0EAH
   \              9DEA        
   \   00000740   9405180D4A00       DC8 94H, 5, 18H, 0DH, 4AH, 0, 29H, 1AH
   \              291A        
   \   00000748   212AACED8FD7       DC8 21H, 2AH, 0ACH, 0EDH, 8FH, 0D7H, 7, 75H
   \              0775        
   \   00000750   CA054BA34455       DC8 0CAH, 5, 4BH, 0A3H, 44H, 55H, 0AH, 54H
   \              0A54        
   \   00000758   A95211B47241       DC8 0A9H, 52H, 11H, 0B4H, 72H, 41H, 0AH, 0B0H
   \              0AB0        
   \   00000760   0478B24BA6B5       DC8 4, 78H, 0B2H, 4BH, 0A6H, 0B5H, 81H, 14H
   \              8114        
   \   00000768   14A79441B19A       DC8 14H, 0A7H, 94H, 41H, 0B1H, 9AH, 56H, 91H
   \              5691        
   \   00000770   6A02A9D79ED9       DC8 6AH, 2, 0A9H, 0D7H, 9EH, 0D9H, 15H, 95H
   \              1595        
   \   00000778   A9A67B0B50FA       DC8 0A9H, 0A6H, 7BH, 0BH, 50H, 0FAH, 0F4H, 67H
   \              F467        
   \   00000780   6E897587E5A7       DC8 6EH, 89H, 75H, 87H, 0E5H, 0A7H, 6FH, 0B9H
   \              6FB9        
   \   00000788   25BCF00F2F54       DC8 25H, 0BCH, 0F0H, 0FH, 2FH, 54H, 4BH, 2AH
   \              4B2A        
   \   00000790   533A0F005478       DC8 53H, 3AH, 0FH, 0, 54H, 78H, 0E9H, 63H
   \              E963        
   \   00000798   49DBB74F065A       DC8 49H, 0DBH, 0B7H, 4FH, 6, 5AH, 7, 0A6H
   \              07A6        
   \   000007A0   741E1AA29A60       DC8 74H, 1EH, 1AH, 0A2H, 9AH, 60H, 0CAH, 82H
   \              CA82        
   \   000007A8   4A1B489D3A25       DC8 4AH, 1BH, 48H, 9DH, 3AH, 25H, 63H, 0B1H
   \              63B1        
   \   000007B0   1880AA0DA42C       DC8 18H, 80H, 0AAH, 0DH, 0A4H, 2CH, 44H, 0FDH
   \              44FD        
   \   000007B8   F94B0F06CF70       DC8 0F9H, 4BH, 0FH, 6, 0CFH, 70H, 1CH, 40H
   \              1C40        
   \   000007C0   4AC3D4768154       DC8 4AH, 0C3H, 0D4H, 76H, 81H, 54H, 5, 49H
   \              0549        
   \   000007C8   46D9423AEE49       DC8 46H, 0D9H, 42H, 3AH, 0EEH, 49H, 0DBH, 7EH
   \              DB7E        
   \   000007D0   8214C0088004       DC8 82H, 14H, 0C0H, 8, 80H, 4, 50H, 2
   \              5002        
   \   000007D8   38FDFE1F7D63       DC8 38H, 0FDH, 0FEH, 1FH, 7DH, 63H, 42H, 0A1H
   \              42A1        
   \   000007E0   02485DFAF38F       DC8 2, 48H, 5DH, 0FAH, 0F3H, 8FH, 44H, 88H
   \              4488        
   \   000007E8   8282D50452EF       DC8 82H, 82H, 0D5H, 4, 52H, 0EFH, 0BCH, 0F3H
   \              BCF3        
   \   000007F0   8EB0476F02A8       DC8 8EH, 0B0H, 47H, 6FH, 2, 0A8H, 34H, 44H
   \              3444        
   \   000007F8   45454A400AD0       DC8 45H, 45H, 4AH, 40H, 0AH, 0D0H, 95H, 0F3H
   \              95F3        
   \   00000800   63BEF5188254       DC8 63H, 0BEH, 0F5H, 18H, 82H, 54H, 0C0H, 0CDH
   \              C0CD        
   \   00000808   2B1529A46998       DC8 2BH, 15H, 29H, 0A4H, 69H, 98H, 2AH, 0B6H
   \              2AB6        
   \   00000810   65BFDC642C09       DC8 65H, 0BFH, 0DCH, 64H, 2CH, 9, 5EH, 2EH
   \              5E2E        
   \   00000818   488D770A04C9       DC8 48H, 8DH, 77H, 0AH, 4, 0C9H, 71H, 25H
   \              7125        
   \   00000820   44498F1C41AA       DC8 44H, 49H, 8FH, 1CH, 41H, 0AAH, 3BH, 28H
   \              3B28        
   \   00000828   E0094B6DECC4       DC8 0E0H, 9, 4BH, 6DH, 0ECH, 0C4H, 0E2H, 40H
   \              E240        
   \   00000830   3D5EA9068B30       DC8 3DH, 5EH, 0A9H, 6, 8BH, 30H, 3AH, 2EH
   \              3A2E        
   \   00000838   79145649D323       DC8 79H, 14H, 56H, 49H, 0D3H, 23H, 0F4H, 2CH
   \              F42C        
   \   00000840   472318E48054       DC8 47H, 23H, 18H, 0E4H, 80H, 54H, 5, 67H
   \              0567        
   \   00000848   A53B2F884B09       DC8 0A5H, 3BH, 2FH, 88H, 4BH, 9, 6AH, 54H
   \              6A54        
   \   00000850   B41690B2EE48       DC8 0B4H, 16H, 90H, 0B2H, 0EEH, 48H, 0BBH, 3DH
   \              BB3D        
   \   00000858   015ACEAF74D6       DC8 1, 5AH, 0CEH, 0AFH, 74H, 0D6H, 8FH, 7
   \              8F07        
   \   00000860   0B18E8A142D1       DC8 0BH, 18H, 0E8H, 0A1H, 42H, 0D1H, 72H, 5CH
   \              725C        
   \   00000868   7B29771E073D       DC8 7BH, 29H, 77H, 1EH, 7, 3DH, 0ECH, 0A7H
   \              ECA7        
   \   00000870   9B4F8314A020       DC8 9BH, 4FH, 83H, 14H, 0A0H, 20H, 57H, 89H
   \              5789        
   \   00000878   C2B1AC5F0D52       DC8 0C2H, 0B1H, 0ACH, 5FH, 0DH, 52H, 84H, 29H
   \              8429        
   \   00000880   AB46D1C5A75D       DC8 0ABH, 46H, 0D1H, 0C5H, 0A7H, 5DH, 7BH, 4CH
   \              7B4C        
   \   00000888   D30354BCBFEA       DC8 0D3H, 3, 54H, 0BCH, 0BFH, 0EAH, 9EH, 0BAH
   \              9EBA        
   \   00000890   EB832361B8B1       DC8 0EBH, 83H, 23H, 61H, 0B8H, 0B1H, 0ABH, 56H
   \              AB56        
   \   00000898   569D07EA28D6       DC8 56H, 9DH, 7, 0EAH, 28H, 0D6H, 9BH, 3
   \              9B03        
   \   000008A0   50368DC7BA03       DC8 50H, 36H, 8DH, 0C7H, 0BAH, 3, 54H, 99H
   \              5499        
   \   000008A8   886B254461DD       DC8 88H, 6BH, 25H, 44H, 61H, 0DDH, 6EH, 0DBH
   \              6EDB        
   \   000008B0   87A7D6A9A7DC       DC8 87H, 0A7H, 0D6H, 0A9H, 0A7H, 0DCH, 0A3H, 4DH
   \              A34D        
   \   000008B8   E9257CA02E36       DC8 0E9H, 25H, 7CH, 0A0H, 2EH, 36H, 57H, 76H
   \              5776        
   \   000008C0   866177BE32A4       DC8 86H, 61H, 77H, 0BEH, 32H, 0A4H, 8DH, 65H
   \              8D65        
   \   000008C8   30A2619FDE0E       DC8 30H, 0A2H, 61H, 9FH, 0DEH, 0EH, 0DDH, 0CDH
   \              DDCD        
   \   000008D0   780E01D78214       DC8 78H, 0EH, 1, 0D7H, 82H, 14H, 0B6H, 8FH
   \              B68F        
   \   000008D8   6EF45CC33E0B       DC8 6EH, 0F4H, 5CH, 0C3H, 3EH, 0BH, 5CH, 0BCH
   \              5CBC        
   \   000008E0   96D1682D5823       DC8 96H, 0D1H, 68H, 2DH, 58H, 23H, 48H, 1
   \              4801        
   \   000008E8   A2085213C718       DC8 0A2H, 8, 52H, 13H, 0C7H, 18H, 90H, 22H
   \              9022        
   \   000008F0   2869784AAD6B       DC8 28H, 69H, 78H, 4AH, 0ADH, 6BH, 0B7H, 32H
   \              B732        
   \   000008F8   DB696EFB1CF5       DC8 0DBH, 69H, 6EH, 0FBH, 1CH, 0F5H, 0A5H, 0BCH
   \              A5BC        
   \   00000900   A50D7B056CB5       DC8 0A5H, 0DH, 7BH, 5, 6CH, 0B5H, 82H, 14H
   \              8214        
   \   00000908   1526F901D7C1       DC8 15H, 26H, 0F9H, 1, 0D7H, 0C1H, 0FH, 39H
   \              0F39        
   \   00000910   5E9772CFD5F2       DC8 5EH, 97H, 72H, 0CFH, 0D5H, 0F2H, 68H, 51H
   \              6851        
   \   00000918   A400EB84290F       DC8 0A4H, 0, 0EBH, 84H, 29H, 0FH, 0A4H, 0D8H
   \              A4D8        
   \   00000920   3779D7445804       DC8 37H, 79H, 0D7H, 44H, 58H, 4, 44H, 75H
   \              4475        
   \   00000928   978BFBA9DD7C       DC8 97H, 8BH, 0FBH, 0A9H, 0DDH, 7CH, 5BH, 3FH
   \              5B3F        
   \   00000930   E6EAEE3CEBE2       DC8 0E6H, 0EAH, 0EEH, 3CH, 0EBH, 0E2H, 73H, 0B7H
   \              73B7        
   \   00000938   9D3E283E77A5       DC8 9DH, 3EH, 28H, 3EH, 77H, 0A5H, 22H, 75H
   \              2275        
   \   00000940   BE20D5E6DE9B       DC8 0BEH, 20H, 0D5H, 0E6H, 0DEH, 9BH, 5, 0A4H
   \              05A4        
   \   00000948   E0CAD34A14D6       DC8 0E0H, 0CAH, 0D3H, 4AH, 14H, 0D6H, 91H, 36H
   \              9136        
   \   00000950   7C7E6F234801       DC8 7CH, 7EH, 6FH, 23H, 48H, 1, 92H, 3EH
   \              923E        
   \   00000958   75D34D7110BC       DC8 75H, 0D3H, 4DH, 71H, 10H, 0BCH, 0EAH, 4BH
   \              EA4B        
   \   00000960   DF8D4B6E7FEA       DC8 0DFH, 8DH, 4BH, 6EH, 7FH, 0EAH, 78H, 91H
   \              7891        
   \   00000968   8E258EF340EA       DC8 8EH, 25H, 8EH, 0F3H, 40H, 0EAH, 0DEH, 0C7H
   \              DEC7        
   \   00000970   3F17682B4FDE       DC8 3FH, 17H, 68H, 2BH, 4FH, 0DEH, 1FH, 0D7H
   \              1FD7        
   \   00000978   015800AD279E       DC8 1, 58H, 0, 0ADH, 27H, 9EH, 78H, 62H
   \              7862        
   \   00000980   02A698471B44       DC8 2, 0A6H, 98H, 47H, 1BH, 44H, 51H, 9DH
   \              519D        
   \   00000988   F2065E0B52E7       DC8 0F2H, 6, 5EH, 0BH, 52H, 0E7H, 0CEH, 9DH
   \              CE9D        
   \   00000990   0B6FBEF966D2       DC8 0BH, 6FH, 0BEH, 0F9H, 66H, 0D2H, 0B5H, 7
   \              B507        
   \   00000998   5723CC53A408       DC8 57H, 23H, 0CCH, 53H, 0A4H, 8, 52H, 58H
   \              5258        
   \   000009A0   A6208AE98429       DC8 0A6H, 20H, 8AH, 0E9H, 84H, 29H, 0AAH, 52H
   \              AA52        
   \   000009A8   ADCF4B2B3514       DC8 0ADH, 0CFH, 4BH, 2BH, 35H, 14H, 3FH, 0A2H
   \              3FA2        
   \   000009B0   222825AC6D1F       DC8 22H, 28H, 25H, 0ACH, 6DH, 1FH, 0FBH, 75H
   \              FB75        
   \   000009B8   B8F6004750A2       DC8 0B8H, 0F6H, 0, 47H, 50H, 0A2H, 34H, 44H
   \              3444        
   \   000009C0   218DD0047022       DC8 21H, 8DH, 0D0H, 4, 70H, 22H, 6CH, 71H
   \              6C71        
   \   000009C8   BD0DA40053B0       DC8 0BDH, 0DH, 0A4H, 0, 53H, 0B0H, 0F1H, 60H
   \              F160        
   \   000009D0   3DC2920751E3       DC8 3DH, 0C2H, 92H, 7, 51H, 0E3H, 0DEH, 42H
   \              DE42        
   \   000009D8   1AA478575817       DC8 1AH, 0A4H, 78H, 57H, 58H, 17H, 76H, 0DBH
   \              76DB        
   \   000009E0   D611A0685281       DC8 0D6H, 11H, 0A0H, 68H, 52H, 81H, 3AH, 50H
   \              3A50        
   \   000009E8   53A00AC8A2C1       DC8 53H, 0A0H, 0AH, 0C8H, 0A2H, 0C1H, 0FDH, 27H
   \              FD27        
   \   000009F0   30E5C4494555       DC8 30H, 0E5H, 0C4H, 49H, 45H, 55H, 8AH, 20H
   \              8A20        
   \   000009F8   3594F53E06AA       DC8 35H, 94H, 0F5H, 3EH, 6, 0AAH, 2, 0A4H
   \              02A4        
   \   00000A00   00519BFD7165       DC8 0, 51H, 9BH, 0FDH, 71H, 65H, 70H, 11H
   \              7011        
   \   00000A08   211DC6CE348C       DC8 21H, 1DH, 0C6H, 0CEH, 34H, 8CH, 24H, 0AEH
   \              24AE        
   \   00000A10   6A5802149634       DC8 6AH, 58H, 2, 14H, 96H, 34H, 0EH, 0C0H
   \              0EC0        
   \   00000A18   D896C1366CD6       DC8 0D8H, 96H, 0C1H, 36H, 6CH, 0D6H, 65H, 68H
   \              6568        
   \   00000A20   EFBE27210A6A       DC8 0EFH, 0BEH, 27H, 21H, 0AH, 6AH, 0D4H, 14H
   \              D414        
   \   00000A28   2005602244A5       DC8 20H, 5, 60H, 22H, 44H, 0A5H, 0D6H, 0B1H
   \              D6B1        
   \   00000A30   3F82951A5C34       DC8 3FH, 82H, 95H, 1AH, 5CH, 34H, 44H, 59H
   \              4459        
   \   00000A38   C56775419423       DC8 0C5H, 67H, 75H, 41H, 94H, 23H, 31H, 0EH
   \              310E        
   \   00000A40   F639EA49534C       DC8 0F6H, 39H, 0EAH, 49H, 53H, 4CH, 14H, 0DCH
   \              14DC        
   \   00000A48   308428C44C61       DC8 30H, 84H, 28H, 0C4H, 4CH, 61H, 5DH, 83H
   \              5D83        
   \   00000A50   54ECD83B755B       DC8 54H, 0ECH, 0D8H, 3BH, 75H, 5BH, 1FH, 0AEH
   \              1FAE        
   \   00000A58   4FA4E118D61B       DC8 4FH, 0A4H, 0E1H, 18H, 0D6H, 1BH, 7, 6CH
   \              076C        
   \   00000A60   0D50DAB5C741       DC8 0DH, 50H, 0DAH, 0B5H, 0C7H, 41H, 82H, 0
   \              8200        
   \   00000A68   A55D7B74EFE1       DC8 0A5H, 5DH, 7BH, 74H, 0EFH, 0E1H, 5CH, 0ADH
   \              5CAD        
   \   00000A70   484D0352BAFE       DC8 48H, 4DH, 3, 52H, 0BAH, 0FEH, 90H, 87H
   \              9087        
   \   00000A78   AE2B42D348DC       DC8 0AEH, 2BH, 42H, 0D3H, 48H, 0DCH, 0C8H, 0A3H
   \              C8A3        
   \   00000A80   F1A2D842B95C       DC8 0F1H, 0A2H, 0D8H, 42H, 0B9H, 5CH, 0AAH, 20H
   \              AA20        
   \   00000A88   CBD66DAAF3D0       DC8 0CBH, 0D6H, 6DH, 0AAH, 0F3H, 0D0H, 0F0H, 0A4H
   \              F0A4        
   \   00000A90   A1AAB123D4B0       DC8 0A1H, 0AAH, 0B1H, 23H, 0D4H, 0B0H, 0D4H, 0B6H
   \              D4B6        
   \   00000A98   8E8C543C1ACA       DC8 8EH, 8CH, 54H, 3CH, 1AH, 0CAH, 0B1H, 21H
   \              B121        
   \   00000AA0   403416579E0C       DC8 40H, 34H, 16H, 57H, 9EH, 0CH, 0E9H, 61H
   \              E961        
   \   00000AA8   385AADC15401       DC8 38H, 5AH, 0ADH, 0C1H, 54H, 1, 54H, 0EBH
   \              54EB        
   \   00000AB0   2EF802AE702E       DC8 2EH, 0F8H, 2, 0AEH, 70H, 2EH, 15H, 29H
   \              1529        
   \   00000AB8   0D4E1696084E       DC8 0DH, 4EH, 16H, 96H, 8, 4EH, 38H, 0C6H
   \              38C6        
   \   00000AC0   421615A9917C       DC8 42H, 16H, 15H, 0A9H, 91H, 7CH, 77H, 0CAH
   \              77CA        
   \   00000AC8   B482943A06E5       DC8 0B4H, 82H, 94H, 3AH, 6, 0E5H, 88H, 81H
   \              8881        
   \   00000AD0   E5727D2B1DB9       DC8 0E5H, 72H, 7DH, 2BH, 1DH, 0B9H, 1BH, 62H
   \              1B62        
   \   00000AD8   3920C563715E       DC8 39H, 20H, 0C5H, 63H, 71H, 5EH, 0F5H, 0ECH
   \              F5EC        
   \   00000AE0   F776BACA695F       DC8 0F7H, 76H, 0BAH, 0CAH, 69H, 5FH, 7EH, 34H
   \              7E34        
   \   00000AE8   F5A5AFE82C17       DC8 0F5H, 0A5H, 0AFH, 0E8H, 2CH, 17H, 6DH, 93H
   \              6D93        
   \   00000AF0   10351EAC852C       DC8 10H, 35H, 1EH, 0ACH, 85H, 2CH, 90H, 72H
   \              9072        
   \   00000AF8   206AB52B317A       DC8 20H, 6AH, 0B5H, 2BH, 31H, 7AH, 26H, 0C6H
   \              26C6        
   \   00000B00   89ED0390840F       DC8 89H, 0EDH, 3, 90H, 84H, 0FH, 5DH, 79H
   \              5D79        
   \   00000B08   7609950A4698       DC8 76H, 9, 95H, 0AH, 46H, 98H, 0CAH, 5
   \              CA05        
   \   00000B10   290254041B81       DC8 29H, 2, 54H, 4, 1BH, 81H, 28H, 0AAH
   \              28AA        
   \   00000B18   518736375B41       DC8 51H, 87H, 36H, 37H, 5BH, 41H, 0CAH, 8BH
   \              CA8B        
   \   00000B20   937A4F40AA6C       DC8 93H, 7AH, 4FH, 40H, 0AAH, 6CH, 0B7H, 8CH
   \              B78C        
   \   00000B28   91CA52A44C5B       DC8 91H, 0CAH, 52H, 0A4H, 4CH, 5BH, 0F7H, 9EH
   \              F79E        
   \   00000B30   23284DDA004E       DC8 23H, 28H, 4DH, 0DAH, 0, 4EH, 0D6H, 0BEH
   \              D6BE        
   \   00000B38   F6859F4C8214       DC8 0F6H, 85H, 9FH, 4CH, 82H, 14H, 0E0H, 0E8H
   \              E0E8        
   \   00000B40   93C78E551005       DC8 93H, 0C7H, 8EH, 55H, 10H, 5, 90H, 22H
   \              9022        
   \   00000B48   4C4191BA41F6       DC8 4CH, 41H, 91H, 0BAH, 41H, 0F6H, 0D1H, 6CH
   \              D16C        
   \   00000B50   9F1C15A9EFFC       DC8 9FH, 1CH, 15H, 0A9H, 0EFH, 0FCH, 55H, 4
   \              5504        
   \   00000B58   A7BB5E79253C       DC8 0A7H, 0BBH, 5EH, 79H, 25H, 3CH, 0FAH, 0ADH
   \              FAAD        
   \   00000B60   6FC5250CE9D8       DC8 6FH, 0C5H, 25H, 0CH, 0E9H, 0D8H, 0FH, 78H
   \              0F78        
   \   00000B68   812AA59529B6       DC8 81H, 2AH, 0A5H, 95H, 29H, 0B6H, 0FH, 2AH
   \              0F2A        
   \   00000B70   509E12E5B9F8       DC8 50H, 9EH, 12H, 0E5H, 0B9H, 0F8H, 8, 1AH
   \              081A        
   \   00000B78   B61C74ED01A6       DC8 0B6H, 1CH, 74H, 0EDH, 1, 0A6H, 60H, 84H
   \              6084        
   \   00000B80   26BD64BA0529       DC8 26H, 0BDH, 64H, 0BAH, 5, 29H, 4FH, 8DH
   \              4F8D        
   \   00000B88   F25C7B16A486       DC8 0F2H, 5CH, 7BH, 16H, 0A4H, 86H, 0C3H, 61H
   \              C361        
   \   00000B90   74F1BD1720D5       DC8 74H, 0F1H, 0BDH, 17H, 20H, 0D5H, 0E4H, 36H
   \              E436        
   \   00000B98   A46245450A6A       DC8 0A4H, 62H, 45H, 45H, 0AH, 6AH, 14H, 0DDH
   \              14DD        
   \   00000BA0   790425829486       DC8 79H, 4, 25H, 82H, 94H, 86H, 29H, 0C6H
   \              29C6        
   \   00000BA8   52A55C7B0026       DC8 52H, 0A5H, 5CH, 7BH, 0, 26H, 80H, 13H
   \              8013        
   \   00000BB0   006A6D651406       DC8 0, 6AH, 6DH, 65H, 14H, 6, 2FH, 8EH
   \              2F8E        
   \   00000BB8   C21B22567810       DC8 0C2H, 1BH, 22H, 56H, 78H, 10H, 15H, 21H
   \              1521        
   \   00000BC0   AB09A470C32C       DC8 0ABH, 9, 0A4H, 70H, 0C3H, 2CH, 0E2H, 36H
   \              E236        
   \   00000BC8   01A68D8DDA52       DC8 1, 0A6H, 8DH, 8DH, 0DAH, 52H, 0A3H, 0EAH
   \              A3EA        
   \   00000BD0   F054A95251B5       DC8 0F0H, 54H, 0A9H, 52H, 51H, 0B5H, 2AH, 54H
   \              2A54        
   \   00000BD8   299BEF573E09       DC8 29H, 9BH, 0EFH, 57H, 3EH, 9, 90H, 92H
   \              9092        
   \   00000BE0   4E62B44B20A8       DC8 4EH, 62H, 0B4H, 4BH, 20H, 0A8H, 0, 29H
   \              0029        
   \   00000BE8   80D2466F5C19       DC8 80H, 0D2H, 46H, 6FH, 5CH, 19H, 7, 0E3H
   \              07E3        
   \   00000BF0   20832CDC7735       DC8 20H, 83H, 2CH, 0DCH, 77H, 35H, 90H, 2
   \              9002        
   \   00000BF8   248979BFE4C2       DC8 24H, 89H, 79H, 0BFH, 0E4H, 0C2H, 0E0H, 0A8H
   \              E0A8        
   \   00000C00   E427FB25C0BA       DC8 0E4H, 27H, 0FBH, 25H, 0C0H, 0BAH, 0DH, 0A4H
   \              0DA4        
   \   00000C08   2A8862E03A7A       DC8 2AH, 88H, 62H, 0E0H, 3AH, 7AH, 1DH, 2
   \              1D02        
   \   00000C10   54095154A45C       DC8 54H, 9, 51H, 54H, 0A4H, 5CH, 39H, 3BH
   \              393B        
   \   00000C18   039EB4229502       DC8 3, 9EH, 0B4H, 22H, 95H, 2, 0A9H, 89H
   \              A989        
   \   00000C20   72487938C013       DC8 72H, 48H, 79H, 38H, 0C0H, 13H, 0A6H, 3CH
   \              A63C        
   \   00000C28   65CD36F4B698       DC8 65H, 0CDH, 36H, 0F4H, 0B6H, 98H, 28H, 0DH
   \              280D        
   \   00000C30   519E22558194       DC8 51H, 9EH, 22H, 55H, 81H, 94H, 7CH, 0FFH
   \              7CFF        
   \   00000C38   4A7F25CCA965       DC8 4AH, 7FH, 25H, 0CCH, 0A9H, 65H, 6DH, 0BDH
   \              6DBD        
   \   00000C40   1CACB422153B       DC8 1CH, 0ACH, 0B4H, 22H, 15H, 3BH, 0FEH, 32H
   \              FE32        
   \   00000C48   36CA5BEAF828       DC8 36H, 0CAH, 5BH, 0EAH, 0F8H, 28H, 0C2H, 94H
   \              C294        
   \   00000C50   8E956A02A9CE       DC8 8EH, 95H, 6AH, 2, 0A9H, 0CEH, 0E2H, 7
   \              E207        
   \   00000C58   03AC022CA548       DC8 3, 0ACH, 2, 2CH, 0A5H, 48H, 35H, 81H
   \              3581        
   \   00000C60   94E0781885E5       DC8 94H, 0E0H, 78H, 18H, 85H, 0E5H, 30H, 14H
   \              3014        
   \   00000C68   80F26D7E0252       DC8 80H, 0F2H, 6DH, 7EH, 2, 52H, 9BH, 3AH
   \              9B3A        
   \   00000C70   0FAA515CA69E       DC8 0FH, 0AAH, 51H, 5CH, 0A6H, 9EH, 97H, 2AH
   \              972A        
   \   00000C78   0F192C963787       DC8 0FH, 19H, 2CH, 96H, 37H, 87H, 0ADH, 0A6H
   \              ADA6        
   \   00000C80   551ABAFF90C7       DC8 55H, 1AH, 0BAH, 0FFH, 90H, 0C7H, 7AH, 4
   \              7A04        
   \   00000C88   A9AE5C432782       DC8 0A9H, 0AEH, 5CH, 43H, 27H, 82H, 14H, 0DBH
   \              14DB        
   \   00000C90   124069345E8F       DC8 12H, 40H, 69H, 34H, 5EH, 8FH, 86H, 75H
   \              8675        
   \   00000C98   9D1EF70D17E2       DC8 9DH, 1EH, 0F7H, 0DH, 17H, 0E2H, 0B9H, 2CH
   \              B92C        
   \   00000CA0   8776E559F79D       DC8 87H, 76H, 0E5H, 59H, 0F7H, 9DH, 0DEH, 26H
   \              DE26        
   \   00000CA8   4CF17876EAA3       DC8 4CH, 0F1H, 78H, 76H, 0EAH, 0A3H, 0D1H, 0B2H
   \              D1B2        
   \   00000CB0   80946F282F5D       DC8 80H, 94H, 6FH, 28H, 2FH, 5DH, 72H, 0A9H
   \              72A9        
   \   00000CB8   633448F15A09       DC8 63H, 34H, 48H, 0F1H, 5AH, 9, 49H, 16H
   \              4916        
   \   00000CC0   AA74BA86B426       DC8 0AAH, 74H, 0BAH, 86H, 0B4H, 26H, 90H, 22H
   \              9022        
   \   00000CC8   440D36EA2005       DC8 44H, 0DH, 36H, 0EAH, 20H, 5, 88H, 2
   \              8802        
   \   00000CD0   50B582540951       DC8 50H, 0B5H, 82H, 54H, 9, 51H, 6BH, 6BH
   \              6B6B        
   \   00000CD8   6B95120545AA       DC8 6BH, 95H, 12H, 5, 45H, 0AAH, 9, 0A4H
   \              09A4        
   \   00000CE0   E8BE2330794B       DC8 0E8H, 0BEH, 23H, 30H, 79H, 4BH, 1CH, 3
   \              1C03        
   \   00000CE8   90C2D282947E       DC8 90H, 0C2H, 0D2H, 82H, 94H, 7EH, 9EH, 0D9H
   \              9ED9        
   \   00000CF0   8FE9B64C88A2       DC8 8FH, 0E9H, 0B6H, 4CH, 88H, 0A2H, 1AH, 0A5H
   \              1AA5        
   \   00000CF8   410ACA94A748       DC8 41H, 0AH, 0CAH, 94H, 0A7H, 48H, 0CDH, 0AH
   \              CD0A        
   \   00000D00   525A8DF25C7A       DC8 52H, 5AH, 8DH, 0F2H, 5CH, 7AH, 54H, 0A8H
   \              54A8        
   \   00000D08   B462C5F2C772       DC8 0B4H, 62H, 0C5H, 0F2H, 0C7H, 72H, 0A8H, 1FH
   \              A81F        
   \   00000D10   096D6A14F6EB       DC8 9, 6DH, 6AH, 14H, 0F6H, 0EBH, 0E3H, 0BDH
   \              E3BD        
   \   00000D18   1F95484B0597       DC8 1FH, 95H, 48H, 4BH, 5, 97H, 23H, 1DH
   \              231D        
   \   00000D20   2A14008A10E5       DC8 2AH, 14H, 0, 8AH, 10H, 0E5H, 0E5H, 1
   \              E501        
   \   00000D28   883A72FDF571       DC8 88H, 3AH, 72H, 0FDH, 0F5H, 71H, 0ECH, 0B9H
   \              ECB9        
   \   00000D30   F28FCF852B1F       DC8 0F2H, 8FH, 0CFH, 85H, 2BH, 1FH, 38H, 17H
   \              3817        
   \   00000D38   AE90E5150FBC       DC8 0AEH, 90H, 0E5H, 15H, 0FH, 0BCH, 2EH, 76H
   \              2E76        
   \   00000D40   2EA663FF91DF       DC8 2EH, 0A6H, 63H, 0FFH, 91H, 0DFH, 0B8H, 0DEH
   \              B8DE        
   \   00000D48   8D918A20F5F6       DC8 8DH, 91H, 8AH, 20H, 0F5H, 0F6H, 37H, 23H
   \              3723        
   \   00000D50   4869888A20F5       DC8 48H, 69H, 88H, 8AH, 20H, 0F5H, 0F6H, 0EBH
   \              F6EB        
   \   00000D58   35902250E972       DC8 35H, 90H, 22H, 50H, 0E9H, 72H, 0, 96H
   \              0096        
   \   00000D60   6CFF60E3A4EC       DC8 6CH, 0FFH, 60H, 0E3H, 0A4H, 0ECH, 31H, 8CH
   \              318C        
   \   00000D68   2DB28A14C669       DC8 2DH, 0B2H, 8AH, 14H, 0C6H, 69H, 28H, 52H
   \              2852        
   \   00000D70   84292E9F7DF6       DC8 84H, 29H, 2EH, 9FH, 7DH, 0F6H, 0D9H, 1AH
   \              D91A        
   \   00000D78   5CE58214E3A1       DC8 5CH, 0E5H, 82H, 14H, 0E3H, 0A1H, 0E8H, 0C6H
   \              E8C6        
   \   00000D80   FBFF045250A6       DC8 0FBH, 0FFH, 4, 52H, 50H, 0A6H, 0, 53H
   \              0053        
   \   00000D88   1E3869806A72       DC8 1EH, 38H, 69H, 80H, 6AH, 72H, 0EDH, 1
   \              ED01        
   \   00000D90   A4A844C1B507       DC8 0A4H, 0A8H, 44H, 0C1H, 0B5H, 7, 90H, 4AH
   \              904A        
   \   00000D98   415416486998       DC8 41H, 54H, 16H, 48H, 69H, 98H, 6AH, 82H
   \              6A82        
   \   00000DA0   28ECB38A9475       DC8 28H, 0ECH, 0B3H, 8AH, 94H, 75H, 0EBH, 0D1H
   \              EBD1        
   \   00000DA8   E5574F9F0429       DC8 0E5H, 57H, 4FH, 9FH, 4, 29H, 40H, 0D4H
   \              40D4        
   \   00000DB0   B707BF237004       DC8 0B7H, 7, 0BFH, 23H, 70H, 4, 45H, 49H
   \              4549        
   \   00000DB8   06478094C447       DC8 6, 47H, 80H, 94H, 0C4H, 47H, 4DH, 0CH
   \              4D0C        
   \   00000DC0   BE3248846812       DC8 0BEH, 32H, 48H, 84H, 68H, 12H, 0D7H, 23H
   \              D723        
   \   00000DC8   C05507A9F922       DC8 0C0H, 55H, 7, 0A9H, 0F9H, 22H, 26H, 42H
   \              2642        
   \   00000DD0   58D05A4A26F7       DC8 58H, 0D0H, 5AH, 4AH, 26H, 0F7H, 0AEH, 0CFH
   \              AECF        
   \   00000DD8   020C800DF150       DC8 2, 0CH, 80H, 0DH, 0F1H, 50H, 9EH, 0A5H
   \              9EA5        
   \   00000DE0   402A029B1806       DC8 40H, 2AH, 2, 9BH, 18H, 6, 0B3H, 0D4H
   \              B3D4        
   \   00000DE8   7AFCEE12BAAC       DC8 7AH, 0FCH, 0EEH, 12H, 0BAH, 0ACH, 22H, 95H
   \              2295        
   \   00000DF0   8228C64601A8       DC8 82H, 28H, 0C6H, 46H, 1, 0A8H, 52H, 30H
   \              5230        
   \   00000DF8   A51FB89C9828       DC8 0A5H, 1FH, 0B8H, 9CH, 98H, 28H, 0C0H, 93H
   \              C093        
   \   00000E00   7E7B8F0F7EFC       DC8 7EH, 7BH, 8FH, 0FH, 7EH, 0FCH, 5, 2FH
   \              052F        
   \   00000E08   31521AA4004E       DC8 31H, 52H, 1AH, 0A4H, 0, 4EH, 16H, 0A4H
   \              16A4        
   \   00000E10   9836D7005216       DC8 98H, 36H, 0D7H, 0, 52H, 16H, 0A8H, 0B4H
   \              A8B4        
   \   00000E18   2265012A07A4       DC8 22H, 65H, 1, 2AH, 7, 0A4H, 34H, 44H
   \              3444        
   \   00000E20   5530950952A3       DC8 55H, 30H, 95H, 9, 52H, 0A3H, 0B0H, 1AH
   \              B01A        
   \   00000E28   0E2DF6A26990       DC8 0EH, 2DH, 0F6H, 0A2H, 69H, 90H, 62H, 0DAH
   \              62DA        
   \   00000E30   40DA60529132       DC8 40H, 0DAH, 60H, 52H, 91H, 32H, 0AH, 52H
   \              0A52        
   \   00000E38   ABFBC9FB855D       DC8 0ABH, 0FBH, 0C9H, 0FBH, 85H, 5DH, 82H, 54H
   \              8254        
   \   00000E40   93FAC2B7F9EC       DC8 93H, 0FAH, 0C2H, 0B7H, 0F9H, 0ECH, 9BH, 7DH
   \              9B7D        
   \   00000E48   11A4C4A5331A       DC8 11H, 0A4H, 0C4H, 0A5H, 33H, 1AH, 0BH, 48H
   \              0B48        
   \   00000E50   C99B72359092       DC8 0C9H, 9BH, 72H, 35H, 90H, 92H, 38H, 0A4H
   \              38A4        
   \   00000E58   A1B20AA49006       DC8 0A1H, 0B2H, 0AH, 0A4H, 90H, 6, 0E5H, 6AH
   \              E56A        
   \   00000E60   283F3CE45C0D       DC8 28H, 3FH, 3CH, 0E4H, 5CH, 0DH, 52H, 8
   \              5208        
   \   00000E68   342734A16D01       DC8 34H, 27H, 34H, 0A1H, 6DH, 1, 96H, 0ECH
   \              96EC        
   \   00000E70   12FBA95EE960       DC8 12H, 0FBH, 0A9H, 5EH, 0E9H, 60H, 0F3H, 0E1H
   \              F3E1        
   \   00000E78   7051F2F44D83       DC8 70H, 51H, 0F2H, 0F4H, 4DH, 83H, 54H, 0EAH
   \              54EA        
   \   00000E80   180D528C93D2       DC8 18H, 0DH, 52H, 8CH, 93H, 0D2H, 83H, 69H
   \              8369        
   \   00000E88   0A9E744C550A       DC8 0AH, 9EH, 74H, 4CH, 55H, 0AH, 0A4H, 34H
   \              A434        
   \   00000E90   4469458A10D5       DC8 44H, 69H, 45H, 8AH, 10H, 0D5H, 0AH, 52H
   \              0A52        
   \   00000E98   8E1205886A02       DC8 8EH, 12H, 5, 88H, 6AH, 2, 29H, 0AAH
   \              29AA        
   \   00000EA0   51A83F1D5365       DC8 51H, 0A8H, 3FH, 1DH, 53H, 65H, 0D7H, 37H
   \              D737        
   \   00000EA8   259F350951A0       DC8 25H, 9FH, 35H, 9, 51H, 0A0H, 2AH, 0A5H
   \              2AA5        
   \   00000EB0   63A45220A595       DC8 63H, 0A4H, 52H, 20H, 0A5H, 95H, 28H, 0EDH
   \              28ED        
   \   00000EB8   D6BB50206521       DC8 0D6H, 0BBH, 50H, 20H, 65H, 21H, 2AH, 0F5H
   \              2AF5        
   \   00000EC0   C69E4D67D079       DC8 0C6H, 9EH, 4DH, 67H, 0D0H, 79H, 0EDH, 87H
   \              ED87        
   \   00000EC8   479BEA9A7067       DC8 47H, 9BH, 0EAH, 9AH, 70H, 67H, 0DBH, 1FH
   \              DB1F        
   \   00000ED0   2F80A5375F3D       DC8 2FH, 80H, 0A5H, 37H, 5FH, 3DH, 31H, 0E1H
   \              31E1        
   \   00000ED8   CAA31B4FAB54       DC8 0CAH, 0A3H, 1BH, 4FH, 0ABH, 54H, 0ECH, 0D7H
   \              ECD7        
   \   00000EE0   751E80A8C3D7       DC8 75H, 1EH, 80H, 0A8H, 0C3H, 0D7H, 5DH, 17H
   \              5D17        
   \   00000EE8   41E6F2CF3E1F       DC8 41H, 0E6H, 0F2H, 0CFH, 3EH, 1FH, 2EH, 0FFH
   \              2EFF        
   \   00000EF0   ECE970F93D58       DC8 0ECH, 0E9H, 70H, 0F9H, 3DH, 58H, 96H, 0EBH
   \              96EB        
   \   00000EF8   B2DC7B4FF106       DC8 0B2H, 0DCH, 7BH, 4FH, 0F1H, 6, 38H, 8EH
   \              388E        
   \   00000F00   F382CD2348FD       DC8 0F3H, 82H, 0CDH, 23H, 48H, 0FDH, 0D3H, 0CDH
   \              D3CD        
   \   00000F08   95224535EAEC       DC8 95H, 22H, 45H, 35H, 0EAH, 0ECH, 5BH, 6FH
   \              5B6F        
   \   00000F10   85F0EACD3590       DC8 85H, 0F0H, 0EAH, 0CDH, 35H, 90H, 42H, 3BH
   \              423B        
   \   00000F18   A02A65AF257C       DC8 0A0H, 2AH, 65H, 0AFH, 25H, 7CH, 0F3H, 0C5H
   \              F3C5        
   \   00000F20   406B1A63DB82       DC8 40H, 6BH, 1AH, 63H, 0DBH, 82H, 0CDH, 1
   \              CD01        
   \   00000F28   528429021495       DC8 52H, 84H, 29H, 2, 14H, 95H, 0A8H, 36H
   \              A836        
   \   00000F30   454ABF9507A5       DC8 45H, 4AH, 0BFH, 95H, 7, 0A5H, 0C9H, 6EH
   \              C96E        
   \   00000F38   6B90821A35AB       DC8 6BH, 90H, 82H, 1AH, 35H, 0ABH, 22H, 15H
   \              2215        
   \   00000F40   DEFFFECA8567       DC8 0DEH, 0FFH, 0FEH, 0CAH, 85H, 67H, 0EFH, 4BH
   \              EF4B        
   \   00000F48   930BCF53A5A8       DC8 93H, 0BH, 0CFH, 53H, 0A5H, 0A8H, 46H, 71H
   \              4671        
   \   00000F50   8C0240BDFEC6       DC8 8CH, 2, 40H, 0BDH, 0FEH, 0C6H, 38H, 0BAH
   \              38BA        
   \   00000F58   F5DA404AAB55       DC8 0F5H, 0DAH, 40H, 4AH, 0ABH, 55H, 0D6H, 0B5H
   \              D6B5        
   \   00000F60   07881A6D5E53       DC8 7, 88H, 1AH, 6DH, 5EH, 53H, 53H, 0A3H
   \              53A3        
   \   00000F68   9A200AA045B7       DC8 9AH, 20H, 0AH, 0A0H, 45H, 0B7H, 5FH, 0F2H
   \              5FF2        
   \   00000F70   FE9D8F22B5E5       DC8 0FEH, 9DH, 8FH, 22H, 0B5H, 0E5H, 0E6H, 13H
   \              E613        
   \   00000F78   452ABEC9B715       DC8 45H, 2AH, 0BEH, 0C9H, 0B7H, 15H, 3BH, 55H
   \              3B55        
   \   00000F80   EC2B62A5B46B       DC8 0ECH, 2BH, 62H, 0A5H, 0B4H, 6BH, 0FH, 10H
   \              0F10        
   \   00000F88   F5EA993F28E1       DC8 0F5H, 0EAH, 99H, 3FH, 28H, 0E1H, 48H, 94H
   \              4894        
   \   00000F90   238214600AEB       DC8 23H, 82H, 14H, 60H, 0AH, 0EBH, 70H, 0CDH
   \              70CD        
   \   00000F98   019CC6129919       DC8 1, 9CH, 0C6H, 12H, 99H, 19H, 4DH, 0E4H
   \              4DE4        
   \   00000FA0   F39104A49781       DC8 0F3H, 91H, 4, 0A4H, 97H, 81H, 0E8H, 55H
   \              E855        
   \   00000FA8   673A6807295E       DC8 67H, 3AH, 68H, 7, 29H, 5EH, 5BH, 0E9H
   \              5BE9        
   \   00000FB0   7A7A9FFDD517       DC8 7AH, 7AH, 9FH, 0FDH, 0D5H, 17H, 0D9H, 26H
   \              D926        
   \   00000FB8   C65BE13BB6E2       DC8 0C6H, 5BH, 0E1H, 3BH, 0B6H, 0E2H, 0ACH, 0BCH
   \              ACBC        
   \   00000FC0   751B6BB5F56B       DC8 75H, 1BH, 6BH, 0B5H, 0F5H, 6BH, 30H, 0DH
   \              300D        
   \   00000FC8   4F1AAAA601A9       DC8 4FH, 1AH, 0AAH, 0A6H, 1, 0A9H, 18H, 3CH
   \              183C        
   \   00000FD0   2F2E490EF058       DC8 2FH, 2EH, 49H, 0EH, 0F0H, 58H, 8FH, 80H
   \              8F80        
   \   00000FD8   E7C47BB11CB9       DC8 0E7H, 0C4H, 7BH, 0B1H, 1CH, 0B9H, 31H, 51H
   \              3151        
   \   00000FE0   16A252204535       DC8 16H, 0A2H, 52H, 20H, 45H, 35H, 0CAH, 3
   \              CA03        
   \   00000FE8   A9B86F4A9022       DC8 0A9H, 0B8H, 6FH, 4AH, 90H, 22H, 30H, 0CDH
   \              30CD        
   \   00000FF0   0A52B8273555       DC8 0AH, 52H, 0B8H, 27H, 35H, 55H, 0AAH, 21H
   \              AA21        
   \   00000FF8   464A83D150EE       DC8 46H, 4AH, 83H, 0D1H, 50H, 0EEH, 0EDH, 50H
   \              ED50        
   \   00001000   EA2E6583D151       DC8 0EAH, 2EH, 65H, 83H, 0D1H, 51H, 1FH, 0A4H
   \              1FA4        
   \   00001008   CA0E9F0014DF       DC8 0CAH, 0EH, 9FH, 0, 14H, 0DFH, 4EH, 2BH
   \              4E2B        
   \   00001010   3F4CAB5CE16A       DC8 3FH, 4CH, 0ABH, 5CH, 0E1H, 6AH, 2AH, 3
   \              2A03        
   \   00001018   C28155A47240       DC8 0C2H, 81H, 55H, 0A4H, 72H, 40H, 0AH, 0E7H
   \              0AE7        
   \   00001020   EA291290C79A       DC8 0EAH, 29H, 12H, 90H, 0C7H, 9AH, 0C0H, 0D0H
   \              C0D0        
   \   00001028   505C624381A9       DC8 50H, 5CH, 62H, 43H, 81H, 0A9H, 81H, 0BCH
   \              81BC        
   \   00001030   0D976512CB34       DC8 0DH, 97H, 65H, 12H, 0CBH, 34H, 90H, 0E7H
   \              90E7        
   \   00001038   03E7A640AA49       DC8 3, 0E7H, 0A6H, 40H, 0AAH, 49H, 95H, 22H
   \              9522        
   \   00001040   4CD5414AEA50       DC8 4CH, 0D5H, 41H, 4AH, 0EAH, 50H, 0E0H, 0ACH
   \              E0AC        
   \   00001048   A624A841D106       DC8 0A6H, 24H, 0A8H, 41H, 0D1H, 6, 89H, 0E3H
   \              89E3        
   \   00001050   586D29903A38       DC8 58H, 6DH, 29H, 90H, 3AH, 38H, 0BFH, 12H
   \              BF12        
   \   00001058   603A5F9DD606       DC8 60H, 3AH, 5FH, 9DH, 0D6H, 6, 52H, 16H
   \              5216        
   \   00001060   A2B06D5D7B8D       DC8 0A2H, 0B0H, 6DH, 5DH, 7BH, 8DH, 20H, 95H
   \              2095        
   \   00001068   50A2A04C796A       DC8 50H, 0A2H, 0A0H, 4CH, 79H, 6AH, 14H, 9FH
   \              149F        
   \   00001070   178214DE2CEE       DC8 17H, 82H, 14H, 0DEH, 2CH, 0EEH, 96H, 0D0H
   \              96D0        
   \   00001078   45F8D2CB0DBC       DC8 45H, 0F8H, 0D2H, 0CBH, 0DH, 0BCH, 2CH, 93H
   \              2C93        
   \   00001080   0029DB29B37F       DC8 0, 29H, 0DBH, 29H, 0B3H, 7FH, 0A2H, 12H
   \              A212        
   \   00001088   6521EA428294       DC8 65H, 21H, 0EAH, 42H, 82H, 94H, 0F7H, 0E3H
   \              F7E3        
   \   00001090   3337CD82D4C2       DC8 33H, 37H, 0CDH, 82H, 0D4H, 0C2H, 5AH, 3FH
   \              5A3F        
   \   00001098   B459F5D24559       DC8 0B4H, 59H, 0F5H, 0D2H, 45H, 59H, 9, 1EH
   \              091E        
   \   000010A0   48793151802B       DC8 48H, 79H, 31H, 51H, 80H, 2BH, 0ADH, 42H
   \              AD42        
   \   000010A8   E93A641E80A2       DC8 0E9H, 3AH, 64H, 1EH, 80H, 0A2H, 8FH, 0FFH
   \              8FFF        
   \   000010B0   F22F4548FAD0       DC8 0F2H, 2FH, 45H, 48H, 0FAH, 0D0H, 4DH, 5FH
   \              4D5F        
   \   000010B8   097B6E7A3C7C       DC8 9, 7BH, 6EH, 7AH, 3CH, 7CH, 0E8H, 0E6H
   \              E8E6        
   \   000010C0   C76589F52DC3       DC8 0C7H, 65H, 89H, 0F5H, 2DH, 0C3H, 0FEH, 3FH
   \              FE3F        
   \   000010C8   7BFCF1E4F407       DC8 7BH, 0FCH, 0F1H, 0E4H, 0F4H, 7, 5, 48H
   \              0548        
   \   000010D0   DD24D0A40CDB       DC8 0DDH, 24H, 0D0H, 0A4H, 0CH, 0DBH, 65H, 9AH
   \              659A        
   \   000010D8   76ED59907AE9       DC8 76H, 0EDH, 59H, 90H, 7AH, 0E9H, 9EH, 4FH
   \              9E4F        
   \   000010E0   54F064414A6F       DC8 54H, 0F0H, 64H, 41H, 4AH, 6FH, 0FFH, 0CFH
   \              FFCF        
   \   000010E8   E9072AD5AACD       DC8 0E9H, 7, 2AH, 0D5H, 0AAH, 0CDH, 0B5H, 97H
   \              B597        
   \   000010F0   0229EDEEF314       DC8 2, 29H, 0EDH, 0EEH, 0F3H, 14H, 29H, 40H
   \              2940        
   \   000010F8   13A63CA00A45       DC8 13H, 0A6H, 3CH, 0A0H, 0AH, 45H, 88H, 0B2H
   \              88B2        
   \   00001100   F152002C42D4       DC8 0F1H, 52H, 0, 2CH, 42H, 0D4H, 68H, 34H
   \              6834        
   \   00001108   CA76ED6978D2       DC8 0CAH, 76H, 0EDH, 69H, 78H, 0D2H, 40H, 0E4H
   \              40E4        
   \   00001110   016E2E4C6988       DC8 1, 6EH, 2EH, 4CH, 69H, 88H, 0D2H, 20H
   \              D220        
   \   00001118   05D71EDFCEF3       DC8 5, 0D7H, 1EH, 0DFH, 0CEH, 0F3H, 0A6H, 42H
   \              A642        
   \   00001120   D0F151A91829       DC8 0D0H, 0F1H, 51H, 0A9H, 18H, 29H, 80H, 14H
   \              8014        
   \   00001128   E08881E64F3F       DC8 0E0H, 88H, 81H, 0E6H, 4FH, 3FH, 0FDH, 74H
   \              FD74        
   \   00001130   5CD76FE8711F       DC8 5CH, 0D7H, 6FH, 0E8H, 71H, 1FH, 8EH, 6BH
   \              8E6B        
   \   00001138   05A9F38F912A       DC8 5, 0A9H, 0F3H, 8FH, 91H, 2AH, 5DH, 7AH
   \              5D7A        
   \   00001140   6560B90E32B7       DC8 65H, 60H, 0B9H, 0EH, 32H, 0B7H, 1, 0E7H
   \              01E7        
   \   00001148   ACD4F8569EB8       DC8 0ACH, 0D4H, 0F8H, 56H, 9EH, 0B8H, 8, 42H
   \              0842        
   \   00001150   0C0617256778       DC8 0CH, 6, 17H, 25H, 67H, 78H, 71H, 0F1H
   \              71F1        
   \   00001158   A69E2CE3F648       DC8 0A6H, 9EH, 2CH, 0E3H, 0F6H, 48H, 5CH, 72H
   \              5C72        
   \   00001160   DA3D8434A855       DC8 0DAH, 3DH, 84H, 34H, 0A8H, 55H, 65H, 0FCH
   \              65FC        
   \   00001168   541B48559D91       DC8 54H, 1BH, 48H, 55H, 9DH, 91H, 5CH, 5CH
   \              5C5C        
   \   00001170   84241584CE60       DC8 84H, 24H, 15H, 84H, 0CEH, 60H, 74H, 0FDH
   \              74FD        
   \   00001178   F015C72C3407       DC8 0F0H, 15H, 0C7H, 2CH, 34H, 7, 0AEH, 23H
   \              AE23        
   \   00001180   DECAC45A4D0D       DC8 0DEH, 0CAH, 0C4H, 5AH, 4DH, 0DH, 52H, 0E5H
   \              52E5        
   \   00001188   9B7D9E6B2F09       DC8 9BH, 7DH, 9EH, 6BH, 2FH, 9, 73H, 0
   \              7300        
   \   00001190   289A5C470AA4       DC8 28H, 9AH, 5CH, 47H, 0AH, 0A4H, 0A6H, 89H
   \              A689        
   \   00001198   89A23BCF7640       DC8 89H, 0A2H, 3BH, 0CFH, 76H, 40H, 17H, 5AH
   \              175A        
   \   000011A0   91B2F1511AAC       DC8 91H, 0B2H, 0F1H, 51H, 1AH, 0ACH, 18H, 27H
   \              1827        
   \   000011A8   75BEAE3D3E70       DC8 75H, 0BEH, 0AEH, 3DH, 3EH, 70H, 58H, 56H
   \              5856        
   \   000011B0   01E432504275       DC8 1, 0E4H, 32H, 50H, 42H, 75H, 82H, 41H
   \              8241        
   \   000011B8   0DD04BAEBBC1       DC8 0DH, 0D0H, 4BH, 0AEH, 0BBH, 0C1H, 0E6H, 0CAH
   \              E6CA        
   \   000011C0   5D4548C0F382       DC8 5DH, 45H, 48H, 0C0H, 0F3H, 82H, 75H, 9CH
   \              759C        
   \   000011C8   B726B12B71FA       DC8 0B7H, 26H, 0B1H, 2BH, 71H, 0FAH, 3, 28H
   \              0328        
   \   000011D0   12CEB1338114       DC8 12H, 0CEH, 0B1H, 33H, 81H, 14H, 0AH, 6EH
   \              0A6E        
   \   000011D8   54ADD5A58BE5       DC8 54H, 0ADH, 0D5H, 0A5H, 8BH, 0E5H, 0FBH, 0A4H
   \              FBA4        
   \   000011E0   131C75633077       DC8 13H, 1CH, 75H, 63H, 30H, 77H, 7FH, 0D4H
   \              7FD4        
   \   000011E8   69B478CC7035       DC8 69H, 0B4H, 78H, 0CCH, 70H, 35H, 0F4H, 5
   \              F405        
   \   000011F0   A470EE2C8A94       DC8 0A4H, 70H, 0EEH, 2CH, 8AH, 94H, 7, 52H
   \              0752        
   \   000011F8   037197A36C9E       DC8 3, 71H, 97H, 0A3H, 6CH, 9EH, 9BH, 52H
   \              9B52        
   \   00001200   5F3FF7230DE7       DC8 5FH, 3FH, 0F7H, 23H, 0DH, 0E7H, 0D0H, 52H
   \              D052        
   \   00001208   207564713DD0       DC8 20H, 75H, 64H, 71H, 3DH, 0D0H, 8, 50H
   \              0850        
   \   00001210   B920E541149E       DC8 0B9H, 20H, 0E5H, 41H, 14H, 9EH, 91H, 6CH
   \              916C        
   \   00001218   909A5289D203       DC8 90H, 9AH, 52H, 89H, 0D2H, 3, 3, 41H
   \              0341        
   \   00001220   0AB39F7800C5       DC8 0AH, 0B3H, 9FH, 78H, 0, 0C5H, 0B4H, 75H
   \              B475        
   \   00001228   81A82589F7A4       DC8 81H, 0A8H, 25H, 89H, 0F7H, 0A4H, 7BH, 0CFH
   \              7BCF        
   \   00001230   1B5C98D6A444       DC8 1BH, 5CH, 98H, 0D6H, 0A4H, 44H, 1, 0A2H
   \              01A2        
   \   00001238   E66530D4F34A       DC8 0E6H, 65H, 30H, 0D4H, 0F3H, 4AH, 0E5H, 0B8H
   \              E5B8        
   \   00001240   F6F4DB7B9C0A       DC8 0F6H, 0F4H, 0DBH, 7BH, 9CH, 0AH, 41H, 0BFH
   \              41BF        
   \   00001248   B9A701267EBF       DC8 0B9H, 0A7H, 1, 26H, 7EH, 0BFH, 0EEH, 73H
   \              EE73        
   \   00001250   1AD65D75BE6C       DC8 1AH, 0D6H, 5DH, 75H, 0BEH, 6CH, 0BFH, 80H
   \              BF80        
   \   00001258   287C8E2CE1ED       DC8 28H, 7CH, 8EH, 2CH, 0E1H, 0EDH, 52H, 7FH
   \              527F        
   \   00001260   392B4801AE72       DC8 39H, 2BH, 48H, 1, 0AEH, 72H, 40H, 0EAH
   \              40EA        
   \   00001268   A31FFBC5F856       DC8 0A3H, 1FH, 0FBH, 0C5H, 0F8H, 56H, 1EH, 8AH
   \              1E8A        
   \   00001270   74D9E1FB43CD       DC8 74H, 0D9H, 0E1H, 0FBH, 43H, 0CDH, 0AEH, 0BBH
   \              AEBB        
   \   00001278   3FA63FFAE52F       DC8 3FH, 0A6H, 3FH, 0FAH, 0E5H, 2FH, 0D7H, 20H
   \              D720        
   \   00001280   4AF71F588F20       DC8 4AH, 0F7H, 1FH, 58H, 8FH, 20H, 0F5H, 0BDH
   \              F5BD        
   \   00001288   7F9669AA649C       DC8 7FH, 96H, 69H, 0AAH, 64H, 9CH, 7BH, 0BBH
   \              7BBB        
   \   00001290   5C7EAF5F6CCB       DC8 5CH, 7EH, 0AFH, 5FH, 6CH, 0CBH, 32H, 7
   \              3207        
   \   00001298   A44EFEF6AD01       DC8 0A4H, 4EH, 0FEH, 0F6H, 0ADH, 1, 0A6H, 0E1H
   \              A6E1        
   \   000012A0   09EB7FF8995F       DC8 9, 0EBH, 7FH, 0F8H, 99H, 5FH, 89H, 6
   \              8906        
   \   000012A8   90027459A84E       DC8 90H, 2, 74H, 59H, 0A8H, 4EH, 0B9H, 0F6H
   \              B9F6        
   \   000012B0   6651A4384F14       DC8 66H, 51H, 0A4H, 38H, 4FH, 14H, 97H, 9EH
   \              979E        
   \   000012B8   3BCF42540E48       DC8 3BH, 0CFH, 42H, 54H, 0EH, 48H, 0A5H, 0
   \              A500        
   \   000012C0   4A03A1AD536C       DC8 4AH, 3, 0A1H, 0ADH, 53H, 6CH, 0B7H, 0C1H
   \              B7C1        
   \   000012C8   9485280B5250       DC8 94H, 85H, 28H, 0BH, 52H, 50H, 0A6H, 0F0H
   \              A6F0        
   \   000012D0   561ED4290D53       DC8 56H, 1EH, 0D4H, 29H, 0DH, 53H, 80H, 2CH
   \              802C        
   \   000012D8   BCC547C58A6F       DC8 0BCH, 0C5H, 47H, 0C5H, 8AH, 6FH, 0F4H, 79H
   \              F479        
   \   000012E0   8A9406258014       DC8 8AH, 94H, 6, 25H, 80H, 14H, 0E2H, 0A3H
   \              E2A3        
   \   000012E8   004C783B8FFB       DC8 0, 4CH, 78H, 3BH, 8FH, 0FBH, 18H, 80H
   \              1880        
   \   000012F0   DE0A52F6E6E5       DC8 0DEH, 0AH, 52H, 0F6H, 0E6H, 0E5H, 6CH, 17H
   \              6C17        
   \   000012F8   7152E55B7902       DC8 71H, 52H, 0E5H, 5BH, 79H, 2, 50H, 0DEH
   \              50DE        
   \   00001300   5407F18DBDD2       DC8 54H, 7, 0F1H, 8DH, 0BDH, 0D2H, 6CH, 7CH
   \              6C7C        
   \   00001308   54014DA24445       DC8 54H, 1, 4DH, 0A2H, 44H, 45H, 40H, 12H
   \              4012        
   \   00001310   780224495C43       DC8 78H, 2, 24H, 49H, 5CH, 43H, 4CH, 1FH
   \              4C1F        
   \   00001318   205E0AAE3E01       DC8 20H, 5EH, 0AH, 0AEH, 3EH, 1, 8, 2CH
   \              082C        
   \   00001320   015425440509       DC8 1, 54H, 25H, 44H, 5, 9, 6EH, 0CEH
   \              6ECE        
   \   00001328   71ED1532F516       DC8 71H, 0EDH, 15H, 32H, 0F5H, 16H, 44H, 69H
   \              4469        
   \   00001330   98F2E2A5E27E       DC8 98H, 0F2H, 0E2H, 0A5H, 0E2H, 7EH, 1DH, 0ACH
   \              1DAC        
   \   00001338   2EEB716E2B9D       DC8 2EH, 0EBH, 71H, 6EH, 2BH, 9DH, 86H, 98H
   \              8698        
   \   00001340   ABF30429FD26       DC8 0ABH, 0F3H, 4, 29H, 0FDH, 26H, 9FH, 0E7H
   \              9FE7        
   \   00001348   DA9B05E6D8C0       DC8 0DAH, 9BH, 5, 0E6H, 0D8H, 0C0H, 0, 52H
   \              0052        
   \   00001350   5A69D2F34479       DC8 5AH, 69H, 0D2H, 0F3H, 44H, 79H, 31H, 51H
   \              3151        
   \   00001358   DE439B03525A       DC8 0DEH, 43H, 9BH, 3, 52H, 5AH, 0A5H, 4AH
   \              A54A        
   \   00001360   295215C82A18       DC8 29H, 52H, 15H, 0C8H, 2AH, 18H, 46H, 1AH
   \              461A        
   \   00001368   82C96D8C14E1       DC8 82H, 0C9H, 6DH, 8CH, 14H, 0E1H, 0CAH, 82H
   \              CA82        
   \   00001370   14CA17EF4B19       DC8 14H, 0CAH, 17H, 0EFH, 4BH, 19H, 7, 0E7H
   \              07E7        
   \   00001378   2EE9863417A3       DC8 2EH, 0E9H, 86H, 34H, 17H, 0A3H, 3BH, 20H
   \              3B20        
   \   00001380   0C5E83B10040       DC8 0CH, 5EH, 83H, 0B1H, 0, 40H, 39H, 29H
   \              3929        
   \   00001388   22818A0085F4       DC8 22H, 81H, 8AH, 0, 85H, 0F4H, 0AEH, 0B4H
   \              AEB4        
   \   00001390   C338C8A90F63       DC8 0C3H, 38H, 0C8H, 0A9H, 0FH, 63H, 3EH, 8
   \              3E08        
   \   00001398   5056950244CD       DC8 50H, 56H, 95H, 2, 44H, 0CDH, 0A3H, 8DH
   \              A38D        
   \   000013A0   2888D2C73230       DC8 28H, 88H, 0D2H, 0C7H, 32H, 30H, 3AH, 66H
   \              3A66        
   \   000013A8   59C2879EEAC0       DC8 59H, 0C2H, 87H, 9EH, 0EAH, 0C0H, 5BH, 0AFH
   \              5BAF        
   \   000013B0   0D2C8029F9A0       DC8 0DH, 2CH, 80H, 29H, 0F9H, 0A0H, 1CH, 2BH
   \              1C2B        
   \   000013B8   02433D8128D8       DC8 2, 43H, 3DH, 81H, 28H, 0D8H, 72H, 0A7H
   \              72A7        
   \   000013C0   80A926C331BD       DC8 80H, 0A9H, 26H, 0C3H, 31H, 0BDH, 81H, 4CH
   \              814C        
   \   000013C8   FD2131823877       DC8 0FDH, 21H, 31H, 82H, 38H, 77H, 0BBH, 14H
   \              BB14        
   \   000013D0   29AA65042599       DC8 29H, 0AAH, 65H, 4, 25H, 99H, 0A7H, 36H
   \              A736        
   \   000013D8   8224B62D4871       DC8 82H, 24H, 0B6H, 2DH, 48H, 71H, 5FH, 1
   \              5F01        
   \   000013E0   5387A2E58094       DC8 53H, 87H, 0A2H, 0E5H, 80H, 94H, 85H, 2AH
   \              852A        
   \   000013E8   9C9F52A45210       DC8 9CH, 9FH, 52H, 0A4H, 52H, 10H, 95H, 0DH
   \              950D        
   \   000013F0   523328511E48       DC8 52H, 33H, 28H, 51H, 1EH, 48H, 0A1H, 0DH
   \              A10D        
   \   000013F8   6D0A2CC1B86E       DC8 6DH, 0AH, 2CH, 0C1H, 0B8H, 6EH, 0D3H, 16H
   \              D316        
   \   00001400   25EED373EDE9       DC8 25H, 0EEH, 0D3H, 73H, 0EDH, 0E9H, 36H, 37H
   \              3637        
   \   00001408   2D44D562A4E2       DC8 2DH, 44H, 0D5H, 62H, 0A4H, 0E2H, 3, 0B3H
   \              03B3        
   \   00001410   F5E69E85A789       DC8 0F5H, 0E6H, 9EH, 85H, 0A7H, 89H, 0A9H, 10H
   \              A910        
   \   00001418   6C5B2FB7CFFB       DC8 6CH, 5BH, 2FH, 0B7H, 0CFH, 0FBH, 47H, 0A5H
   \              47A5        
   \   00001420   DC2FAD44ED3B       DC8 0DCH, 2FH, 0ADH, 44H, 0EDH, 3BH, 0BEH, 12H
   \              BE12        
   \   00001428   5286E3749BF7       DC8 52H, 86H, 0E3H, 74H, 9BH, 0F7H, 14H, 29H
   \              1429        
   \   00001430   C642019EA044       DC8 0C6H, 42H, 1, 9EH, 0A0H, 44H, 0F1H, 0DH
   \              F10D        
   \   00001438   BD3690FAF0FE       DC8 0BDH, 36H, 90H, 0FAH, 0F0H, 0FEH, 5FH, 8
   \              5F08        
   \   00001440   85ED0FCFFFFD       DC8 85H, 0EDH, 0FH, 0CFH, 0FFH, 0FDH, 0F3H, 0F1H
   \              F3F1        
   \   00001448   59BAE4A3BF1B       DC8 59H, 0BAH, 0E4H, 0A3H, 0BFH, 1BH, 68H, 0D8H
   \              68D8        
   \   00001450   7EF891472620       DC8 7EH, 0F8H, 91H, 47H, 26H, 20H, 0CAH, 5
   \              CA05        
   \   00001458   A9EF3C154E2E       DC8 0A9H, 0EFH, 3CH, 15H, 4EH, 2EH, 0DEH, 28H
   \              DE28        
   \   00001460   C1E57F194EDE       DC8 0C1H, 0E5H, 7FH, 19H, 4EH, 0DEH, 8BH, 0A5H
   \              8BA5        
   \   00001468   6C63397CAA15       DC8 6CH, 63H, 39H, 7CH, 0AAH, 15H, 0A4H, 34H
   \              A434        
   \   00001470   40D97500140C       DC8 40H, 0D9H, 75H, 0, 14H, 0CH, 30H, 75H
   \              3075        
   \   00001478   BE2095A348E9       DC8 0BEH, 20H, 95H, 0A3H, 48H, 0E9H, 98H, 28H
   \              9828        
   \   00001480   809476ED619D       DC8 80H, 94H, 76H, 0EDH, 61H, 9DH, 4AH, 14H
   \              4A14        
   \   00001488   9680A826906A       DC8 96H, 80H, 0A8H, 26H, 90H, 6AH, 3, 0A8H
   \              03A8        
   \   00001490   36906A82290F       DC8 36H, 90H, 6AH, 82H, 29H, 0FH, 0A2H, 34H
   \              A234        
   \   00001498   484171C2D407       DC8 48H, 41H, 71H, 0C2H, 0D4H, 7, 0, 29H
   \              0029        
   \   000014A0   B8F7744C14D6       DC8 0B8H, 0F7H, 74H, 4CH, 14H, 0D6H, 0F1H, 46H
   \              F146        
   \   000014A8   1FF703A46CB0       DC8 1FH, 0F7H, 3, 0A4H, 6CH, 0B0H, 39H, 83H
   \              3983        
   \   000014B0   CCB5D204787A       DC8 0CCH, 0B5H, 0D2H, 4, 78H, 7AH, 71H, 5DH
   \              715D        
   \   000014B8   C67D99C39201       DC8 0C6H, 7DH, 99H, 0C3H, 92H, 1, 0E8H, 7AH
   \              E87A        
   \   000014C0   3FD23845420E       DC8 3FH, 0D2H, 38H, 45H, 42H, 0EH, 23H, 65H
   \              2365        
   \   000014C8   1D13E3A40049       DC8 1DH, 13H, 0E3H, 0A4H, 0, 49H, 0E5H, 84H
   \              E584        
   \   000014D0   9B1A9AB81E63       DC8 9BH, 1AH, 9AH, 0B8H, 1EH, 63H, 0A4H, 0CAH
   \              A4CA        
   \   000014D8   63EC1B7B1530       DC8 63H, 0ECH, 1BH, 7BH, 15H, 30H, 0DH, 44H
   \              0D44        
   \   000014E0   5E0324D104A6       DC8 5EH, 3, 24H, 0D1H, 4, 0A6H, 0BAH, 8BH
   \              BA8B        
   \   000014E8   32E0AE0A5C71       DC8 32H, 0E0H, 0AEH, 0AH, 5CH, 71H, 10H, 2EH
   \              102E        
   \   000014F0   DFE4034411B6       DC8 0DFH, 0E4H, 3, 44H, 11H, 0B6H, 0F0H, 0C0H
   \              F0C0        
   \   000014F8   89FD287F3D79       DC8 89H, 0FDH, 28H, 7FH, 3DH, 79H, 0F2H, 73H
   \              F273        
   \   00001500   FC55554E8550       DC8 0FCH, 55H, 55H, 4EH, 85H, 50H, 73H, 0D3H
   \              73D3        
   \   00001508   396FF01503B6       DC8 39H, 6FH, 0F0H, 15H, 3, 0B6H, 0F4H, 42H
   \              F442        
   \   00001510   D5A02DD00470       DC8 0D5H, 0A0H, 2DH, 0D0H, 4, 70H, 12H, 0ABH
   \              12AB        
   \   00001518   06F3BECCD67B       DC8 6, 0F3H, 0BEH, 0CCH, 0D6H, 7BH, 9EH, 20H
   \              9E20        
   \   00001520   559B02A1ACE9       DC8 55H, 9BH, 2, 0A1H, 0ACH, 0E9H, 9AH, 2
   \              9A02        
   \   00001528   3303CC6990A2       DC8 33H, 3, 0CCH, 69H, 90H, 0A2H, 0D2H, 84H
   \              D284        
   \   00001530   39A2F43C515E       DC8 39H, 0A2H, 0F4H, 3CH, 51H, 5EH, 4CH, 54H
   \              4C54        
   \   00001538   0E482D7616A3       DC8 0EH, 48H, 2DH, 76H, 16H, 0A3H, 0FBH, 0EH
   \              FB0E        
   \   00001540   A6D799E68114       DC8 0A6H, 0D7H, 99H, 0E6H, 81H, 14H, 0F2H, 0D5H
   \              F2D5        
   \   00001548   F3483156CA82       DC8 0F3H, 48H, 31H, 56H, 0CAH, 82H, 14H, 81H
   \              1481        
   \   00001550   4ABFB1673B31       DC8 4AH, 0BFH, 0B1H, 67H, 3BH, 31H, 0C2H, 14H
   \              C214        
   \   00001558   A638F04CFF22       DC8 0A6H, 38H, 0F0H, 4CH, 0FFH, 22H, 9EH, 80H
   \              9E80        
   \   00001560   A0320183576F       DC8 0A0H, 32H, 1, 83H, 57H, 6FH, 24H, 33H
   \              2433        
   \   00001568   E68BCAD91FD7       DC8 0E6H, 8BH, 0CAH, 0D9H, 1FH, 0D7H, 0DH, 0E9H
   \              0DE9        
   \   00001570   80A8CDC1075B       DC8 80H, 0A8H, 0CDH, 0C1H, 7, 5BH, 41H, 0AH
   \              410A        
   \   00001578   E0A355290FA4       DC8 0E0H, 0A3H, 55H, 29H, 0FH, 0A4H, 74H, 9CH
   \              749C        
   \   00001580   9305A9943B6C       DC8 93H, 5, 0A9H, 94H, 3BH, 6CH, 22H, 3DH
   \              223D        
   \   00001588   0185CB8B0253       DC8 1, 85H, 0CBH, 8BH, 2, 53H, 0A2H, 46H
   \              A246        
   \   00001590   7486054CC186       DC8 74H, 86H, 5, 4CH, 0C1H, 86H, 87H, 0EH
   \              870E        
   \   00001598   45035461C9F4       DC8 45H, 3, 54H, 61H, 0C9H, 0F4H, 0CEH, 60H
   \              CE60        
   \   000015A0   350CD6D703CE       DC8 35H, 0CH, 0D6H, 0D7H, 3, 0CEH, 0D1H, 75H
   \              D175        
   \   000015A8   EACD25951374       DC8 0EAH, 0CDH, 25H, 95H, 13H, 74H, 5EH, 0E5H
   \              5EE5        
   \   000015B0   51AA6EB84EC0       DC8 51H, 0AAH, 6EH, 0B8H, 4EH, 0C0H, 13H, 0EBH
   \              13EB        
   \   000015B8   8320C56B71F7       DC8 83H, 20H, 0C5H, 6BH, 71H, 0F7H, 95H, 50H
   \              9550        
   \   000015C0   182F4FC111D6       DC8 18H, 2FH, 4FH, 0C1H, 11H, 0D6H, 35H, 3CH
   \              353C        
   \   000015C8   358114CB11DB       DC8 35H, 81H, 14H, 0CBH, 11H, 0DBH, 94H, 0BCH
   \              94BC        
   \   000015D0   B58758280496       DC8 0B5H, 87H, 58H, 28H, 4, 96H, 63H, 9
   \              6309        
   \   000015D8   A8D26FBBB62A       DC8 0A8H, 0D2H, 6FH, 0BBH, 0B6H, 2AH, 52H, 33H
   \              5233        
   \   000015E0   2A511E486D94       DC8 2AH, 51H, 1EH, 48H, 6DH, 94H, 0, 0A5H
   \              00A5        
   \   000015E8   E1895085B425       DC8 0E1H, 89H, 50H, 85H, 0B4H, 25H, 81H, 0A8H
   \              81A8        
   \   000015F0   E32D20958228       DC8 0E3H, 2DH, 20H, 95H, 82H, 28H, 0C0H, 12H
   \              C012        
   \   000015F8   9528AB464D3C       DC8 95H, 28H, 0ABH, 46H, 4DH, 3CH, 2FH, 89H
   \              2F89        
   \   00001600   19CDA79E9073       DC8 19H, 0CDH, 0A7H, 9EH, 90H, 73H, 86H, 7EH
   \              867E        
   \   00001608   48ABAF396A14       DC8 48H, 0ABH, 0AFH, 39H, 6AH, 14H, 55H, 0AAH
   \              55AA        
   \   00001610   3690C28CE580       DC8 36H, 90H, 0C2H, 8CH, 0E5H, 80H, 29H, 80H
   \              2980        
   \   00001618   93175CEEF563       DC8 93H, 17H, 5CH, 0EEH, 0F5H, 63H, 70H, 0EBH
   \              70EB        
   \   00001620   5D71D595518D       DC8 5DH, 71H, 0D5H, 95H, 51H, 8DH, 0FAH, 39H
   \              FA39        
   \   00001628   595E71D5BEF0       DC8 59H, 5EH, 71H, 0D5H, 0BEH, 0F0H, 77H, 8
   \              7708        
   \   00001630   862F610ACBD5       DC8 86H, 2FH, 61H, 0AH, 0CBH, 0D5H, 87H, 1EH
   \              871E        
   \   00001638   7221CA05A933       DC8 72H, 21H, 0CAH, 5, 0A9H, 33H, 1FH, 2FH
   \              1F2F        
   \   00001640   142867D9A448       DC8 14H, 28H, 67H, 0D9H, 0A4H, 48H, 21H, 0AFH
   \              21AF        
   \   00001648   947B0F8A1441       DC8 94H, 7BH, 0FH, 8AH, 14H, 41H, 0EAH, 86H
   \              EA86        
   \   00001650   2F6D8413BDEF       DC8 2FH, 6DH, 84H, 13H, 0BDH, 0EFH, 47H, 4BH
   \              474B        
   \   00001658   F5637C6B6F96       DC8 0F5H, 63H, 7CH, 6BH, 6FH, 96H, 18H, 29H
   \              1829        
   \   00001660   E4A9E787D2F3       DC8 0E4H, 0A9H, 0E7H, 87H, 0D2H, 0F3H, 44H, 0D9H
   \              44D9        
   \   00001668   B828021421CA       DC8 0B8H, 28H, 2, 14H, 21H, 0CAH, 0EBH, 93H
   \              EB93        
   \   00001670   73212A15EFA5       DC8 73H, 21H, 2AH, 15H, 0EFH, 0A5H, 0AFH, 0D1H
   \              AFD1        
   \   00001678   2A5329886239       DC8 2AH, 53H, 29H, 88H, 62H, 39H, 38H, 0B3H
   \              38B3        
   \   00001680   39E008900498       DC8 39H, 0E0H, 8, 90H, 4, 98H, 0C2H, 4
   \              C204        
   \   00001688   9CFFFEED1F4E       DC8 9CH, 0FFH, 0FEH, 0EDH, 1FH, 4EH, 0CCH, 25H
   \              CC25        
   \   00001690   857DB9200550       DC8 85H, 7DH, 0B9H, 20H, 5, 50H, 0C2H, 5BH
   \              C25B        
   \   00001698   79D14A68A20A       DC8 79H, 0D1H, 4AH, 68H, 0A2H, 0AH, 95H, 0E5H
   \              95E5        
   \   000016A0   DAB30D31773B       DC8 0DAH, 0B3H, 0DH, 31H, 77H, 3BH, 0C2H, 94H
   \              C294        
   \   000016A8   80D49972A9D7       DC8 80H, 0D4H, 99H, 72H, 0A9H, 0D7H, 0A3H, 62H
   \              A362        
   \   000016B0   559AF7B65E04       DC8 55H, 9AH, 0F7H, 0B6H, 5EH, 4, 29H, 71H
   \              2971        
   \   000016B8   D3550658F20C       DC8 0D3H, 55H, 6, 58H, 0F2H, 0CH, 0C7H, 74H
   \              C774        
   \   000016C0   21356F4194BD       DC8 21H, 35H, 6FH, 41H, 94H, 0BDH, 0B1H, 29H
   \              B129        
   \   000016C8   29BA4AB7714F       DC8 29H, 0BAH, 4AH, 0B7H, 71H, 4FH, 89H, 0A9H
   \              89A9        
   \   000016D0   10E2F15D89C3       DC8 10H, 0E2H, 0F1H, 5DH, 89H, 0C3H, 2AH, 55H
   \              2A55        
   \   000016D8   0E0D67A12BCA       DC8 0EH, 0DH, 67H, 0A1H, 2BH, 0CAH, 59H, 67H
   \              5967        
   \   000016E0   720A85A95D7B       DC8 72H, 0AH, 85H, 0A9H, 5DH, 7BH, 4EH, 0E5H
   \              4EE5        
   \   000016E8   D640AA23715A       DC8 0D6H, 40H, 0AAH, 23H, 71H, 5AH, 0EH, 0CCH
   \              0ECC        
   \   000016F0   55690ECCE9FA       DC8 55H, 69H, 0EH, 0CCH, 0E9H, 0FAH, 0E0H, 0DFH
   \              E0DF        
   \   000016F8   BED879A2BC98       DC8 0BEH, 0D8H, 79H, 0A2H, 0BCH, 98H, 28H, 0AFH
   \              28AF        
   \   00001700   03A222B51DF3       DC8 3, 0A2H, 22H, 0B5H, 1DH, 0F3H, 48H, 69H
   \              4869        
   \   00001708   80D2B39B6B80       DC8 80H, 0D2H, 0B3H, 9BH, 6BH, 80H, 0D2H, 41H
   \              D241        
   \   00001710   E67A424E0F8C       DC8 0E6H, 7AH, 42H, 4EH, 0FH, 8CH, 73H, 0D3H
   \              73D3        
   \   00001718   6CFB00487504       DC8 6CH, 0FBH, 0, 48H, 75H, 4, 96H, 3AH
   \              963A        
   \   00001720   A27062A90381       DC8 0A2H, 70H, 62H, 0A9H, 3, 81H, 1, 50H
   \              0150        
   \   00001728   1BA280C27214       DC8 1BH, 0A2H, 80H, 0C2H, 72H, 14H, 29H, 0DH
   \              290D        
   \   00001730   5304292A317A       DC8 53H, 4, 29H, 2AH, 31H, 7AH, 1FH, 1
   \              1F01        
   \   00001738   C3FEC2AEEA5C       DC8 0C3H, 0FEH, 0C2H, 0AEH, 0EAH, 5CH, 0B9H, 1
   \              B901        
   \   00001740   DB9E37E6B124       DC8 0DBH, 9EH, 37H, 0E6H, 0B1H, 24H, 50H, 0B4H
   \              50B4        
   \   00001748   D9EF4A5937C5       DC8 0D9H, 0EFH, 4AH, 59H, 37H, 0C5H, 3AH, 15H
   \              3A15        
   \   00001750   484179044861       DC8 48H, 41H, 79H, 4, 48H, 61H, 9, 90H
   \              0990        
   \   00001758   DAE8AFCA1BAF       DC8 0DAH, 0E8H, 0AFH, 0CAH, 1BH, 0AFH, 0BH, 2
   \              0B02        
   \   00001760   16EB01E75890       DC8 16H, 0EBH, 1, 0E7H, 58H, 90H, 4AH, 0CDH
   \              4ACD        
   \   00001768   1DD534A754AD       DC8 1DH, 0D5H, 34H, 0A7H, 54H, 0ADH, 4EH, 0DH
   \              4E0D        
   \   00001770   4CE5BC8D48D0       DC8 4CH, 0E5H, 0BCH, 8DH, 48H, 0D0H, 0A2H, 0CAH
   \              A2CA        
   \   00001778   47E0F202CE2D       DC8 47H, 0E0H, 0F2H, 2, 0CEH, 2DH, 58H, 0D6H
   \              58D6        
   \   00001780   26EF2C618C20       DC8 26H, 0EFH, 2CH, 61H, 8CH, 20H, 95H, 82H
   \              9582        
   \   00001788   28AD48E14D3D       DC8 28H, 0ADH, 48H, 0E1H, 4DH, 3DH, 6DH, 0D5H
   \              6DD5        
   \   00001790   3C52023874BD       DC8 3CH, 52H, 2, 38H, 74H, 0BDH, 0F1H, 2DH
   \              F12D        
   \   00001798   BDA69828EF79       DC8 0BDH, 0A6H, 98H, 28H, 0EFH, 79H, 41H, 1AH
   \              411A        
   \   000017A0   DACD9AB8ED60       DC8 0DAH, 0CDH, 9AH, 0B8H, 0EDH, 60H, 0EBH, 0C6H
   \              EBC6        
   \   000017A8   90B60C88EA2A       DC8 90H, 0B6H, 0CH, 88H, 0EAH, 2AH, 0B7H, 9EH
   \              B79E        
   \   000017B0   FABB9818A220       DC8 0FAH, 0BBH, 98H, 18H, 0A2H, 20H, 70H, 8CH
   \              708C        
   \   000017B8   EBC15B79DA90       DC8 0EBH, 0C1H, 5BH, 79H, 0DAH, 90H, 6, 88H
   \              0688        
   \   000017C0   8AFB4BD32E3D       DC8 8AH, 0FBH, 4BH, 0D3H, 2EH, 3DH, 4EH, 0CAH
   \              4ECA        
   \   000017C8   39D1C61AFE22       DC8 39H, 0D1H, 0C6H, 1AH, 0FEH, 22H, 66H, 28H
   \              6628        
   \   000017D0   A11476324EB7       DC8 0A1H, 14H, 76H, 32H, 4EH, 0B7H, 3FH, 9DH
   \              3F9D        
   \   000017D8   A11FE2BDCD55       DC8 0A1H, 1FH, 0E2H, 0BDH, 0CDH, 55H, 0A3H, 0A8H
   \              A3A8        
   \   000017E0   526955CA5E0B       DC8 52H, 69H, 55H, 0CAH, 5EH, 0BH, 21H, 0CAH
   \              21CA        
   \   000017E8   4E7F60FF6BCF       DC8 4EH, 7FH, 60H, 0FFH, 6BH, 0CFH, 0C2H, 87H
   \              C287        
   \   000017F0   FECB17C0D49E       DC8 0FEH, 0CBH, 17H, 0C0H, 0D4H, 9EH, 0BDH, 7BH
   \              BD7B        
   \   000017F8   C39E9FDD1B3A       DC8 0C3H, 9EH, 9FH, 0DDH, 1BH, 3AH, 0CFH, 3DH
   \              CF3D        
   \   00001800   179F872F7CF1       DC8 17H, 9FH, 87H, 2FH, 7CH, 0F1H, 8BH, 49H
   \              8B49        
   \   00001808   884A81D4C913       DC8 88H, 4AH, 81H, 0D4H, 0C9H, 13H, 97H, 46H
   \              9746        
   \   00001810   90B2CB1C90D2       DC8 90H, 0B2H, 0CBH, 1CH, 90H, 0D2H, 0E5H, 23H
   \              E523        
   \   00001818   3C5569773E18       DC8 3CH, 55H, 69H, 77H, 3EH, 18H, 0FEH, 0F4H
   \              FEF4        
   \   00001820   A9BF094FFEDB       DC8 0A9H, 0BFH, 9, 4FH, 0FEH, 0DBH, 0FH, 0A2H
   \              0FA2        
   \   00001828   BAAD61CAD607       DC8 0BAH, 0ADH, 61H, 0CAH, 0D6H, 7, 0FFH, 2
   \              FF02        
   \   00001830   C673ED41916A       DC8 0C6H, 73H, 0EDH, 41H, 91H, 6AH, 0FAH, 8BH
   \              FA8B        
   \   00001838   98ED02A96920       DC8 98H, 0EDH, 2, 0A9H, 69H, 20H, 2AH, 7
   \              2A07        
   \   00001840   A4500F84A926       DC8 0A4H, 50H, 0FH, 84H, 0A9H, 26H, 88H, 0B2H
   \              88B2        
   \   00001848   2005E509F044       DC8 20H, 5, 0E5H, 9, 0F0H, 44H, 0E5H, 9
   \              E509        
   \   00001850   D0C499CDF50C       DC8 0D0H, 0C4H, 99H, 0CDH, 0F5H, 0CH, 0E7H, 50H
   \              E750        
   \   00001858   A7EC849C509D       DC8 0A7H, 0ECH, 84H, 9CH, 50H, 9DH, 68H, 8
   \              6808        
   \   00001860   388F10558214       DC8 38H, 8FH, 10H, 55H, 82H, 14H, 0B7H, 19H
   \              B719        
   \   00001868   3F8574A441C5       DC8 3FH, 85H, 74H, 0A4H, 41H, 0C5H, 0C2H, 39H
   \              C239        
   \   00001870   DB3621678D26       DC8 0DBH, 36H, 21H, 67H, 8DH, 26H, 5, 0A2H
   \              05A2        
   \   00001878   004D80296BF1       DC8 0, 4DH, 80H, 29H, 6BH, 0F1H, 0BFH, 0F6H
   \              BFF6        
   \   00001880   9C290F787E84       DC8 9CH, 29H, 0FH, 78H, 7EH, 84H, 29H, 0A8H
   \              29A8        
   \   00001888   4C30C09267A5       DC8 4CH, 30H, 0C0H, 92H, 67H, 0A5H, 0AH, 0C5H
   \              0AC5        
   \   00001890   39A4A461557F       DC8 39H, 0A4H, 0A4H, 61H, 55H, 7FH, 4CH, 0A9H
   \              4CA9        
   \   00001898   CBD134C87AFE       DC8 0CBH, 0D1H, 34H, 0C8H, 7AH, 0FEH, 0FEH, 94H
   \              FE94        
   \   000018A0   925174D08B51       DC8 92H, 51H, 74H, 0D0H, 8BH, 51H, 79H, 0AAH
   \              79AA        
   \   000018A8   665F87B2D52D       DC8 66H, 5FH, 87H, 0B2H, 0D5H, 2DH, 0A6H, 58H
   \              A658        
   \   000018B0   4875A6315DBD       DC8 48H, 75H, 0A6H, 31H, 5DH, 0BDH, 0ADH, 0C7H
   \              ADC7        
   \   000018B8   00F38940F306       DC8 0, 0F3H, 89H, 40H, 0F3H, 6, 90H, 8AH
   \              908A        
   \   000018C0   5924600E7097       DC8 59H, 24H, 60H, 0EH, 70H, 97H, 82H, 39H
   \              8239        
   \   000018C8   FDE06330A5E5       DC8 0FDH, 0E0H, 63H, 30H, 0A5H, 0E5H, 0B8H, 0F3H
   \              B8F3        
   \   000018D0   6C0784EF6FFB       DC8 6CH, 7, 84H, 0EFH, 6FH, 0FBH, 0EFH, 0C2H
   \              EFC2        
   \   000018D8   D47E9C3B116B       DC8 0D4H, 7EH, 9CH, 3BH, 11H, 6BH, 51H, 0FEH
   \              51FE        
   \   000018E0   3D4C0E48B12C       DC8 3DH, 4CH, 0EH, 48H, 0B1H, 2CH, 1AH, 2CH
   \              1A2C        
   \   000018E8   534A549B3A65       DC8 53H, 4AH, 54H, 9BH, 3AH, 65H, 3BH, 0A0H
   \              3BA0        
   \   000018F0   6A66734053BF       DC8 6AH, 66H, 73H, 40H, 53H, 0BFH, 6EH, 0DCH
   \              6EDC        
   \   000018F8   E7DE5B13F7E4       DC8 0E7H, 0DEH, 5BH, 13H, 0F7H, 0E4H, 81H, 94H
   \              8194        
   \   00001900   FE0FBDA46B4F       DC8 0FEH, 0FH, 0BDH, 0A4H, 6BH, 4FH, 67H, 0CEH
   \              67CE        
   \   00001908   3C25AD0ACE76       DC8 3CH, 25H, 0ADH, 0AH, 0CEH, 76H, 0DAH, 85H
   \              DA85        
   \   00001910   AD0F6C2F2EEE       DC8 0ADH, 0FH, 6CH, 2FH, 2EH, 0EEH, 12H, 0F7H
   \              12F7        
   \   00001918   6D3774363665       DC8 6DH, 37H, 74H, 36H, 36H, 65H, 0E0H, 96H
   \              E096        
   \   00001920   37F34485D2F7       DC8 37H, 0F3H, 44H, 85H, 0D2H, 0F7H, 7CH, 4DH
   \              7C4D        
   \   00001928   DA6E5700AA2F       DC8 0DAH, 6EH, 57H, 0, 0AAH, 2FH, 0EFH, 0E0H
   \              EFE0        
   \   00001930   E3582F8F69FE       DC8 0E3H, 58H, 2FH, 8FH, 69H, 0FEH, 67H, 8FH
   \              678F        
   \   00001938   81E67670D1F0       DC8 81H, 0E6H, 76H, 70H, 0D1H, 0F0H, 0D8H, 0E6H
   \              D8E6        
   \   00001940   AED4B3B9A740       DC8 0AEH, 0D4H, 0B3H, 0B9H, 0A7H, 40H, 6AH, 9AH
   \              6A9A        
   \   00001948   FFDB8BF0216D       DC8 0FFH, 0DBH, 8BH, 0F0H, 21H, 6DH, 0DH, 8AH
   \              0D8A        
   \   00001950   539B45402967       DC8 53H, 9BH, 45H, 40H, 29H, 67H, 3CH, 0D7H
   \              3CD7        
   \   00001958   CB580E011A04       DC8 0CBH, 58H, 0EH, 1, 1AH, 4, 92H, 13H
   \              9213        
   \   00001960   A2526FE7A56E       DC8 0A2H, 52H, 6FH, 0E7H, 0A5H, 6EH, 0DH, 0DBH
   \              0DDB        
   \   00001968   18DA0F14A745       DC8 18H, 0DAH, 0FH, 14H, 0A7H, 45H, 81H, 0A5H
   \              81A5        
   \   00001970   25310DEAF3B2       DC8 25H, 31H, 0DH, 0EAH, 0F3H, 0B2H, 7DH, 54H
   \              7D54        
   \   00001978   5E9384595067       DC8 5EH, 93H, 84H, 59H, 50H, 67H, 9DH, 12H
   \              9D12        
   \   00001980   A46C1F960351       DC8 0A4H, 6CH, 1FH, 96H, 3, 51H, 13H, 0F7H
   \              13F7        
   \   00001988   A5D62916FFB9       DC8 0A5H, 0D6H, 29H, 16H, 0FFH, 0B9H, 0D7H, 0E4H
   \              D7E4        
   \   00001990   D2F3DAC7ACFD       DC8 0D2H, 0F3H, 0DAH, 0C7H, 0ACH, 0FDH, 10H, 0EFH
   \              10EF        
   \   00001998   2D62A2A635AA       DC8 2DH, 62H, 0A2H, 0A6H, 35H, 0AAH, 52H, 0FAH
   \              52FA        
   \   000019A0   B9E57FE7353C       DC8 0B9H, 0E5H, 7FH, 0E7H, 35H, 3CH, 1AH, 0EEH
   \              1AEE        
   \   000019A8   2EE60198BAE4       DC8 2EH, 0E6H, 1, 98H, 0BAH, 0E4H, 67H, 8AH
   \              678A        
   \   000019B0   FF57BBE4B2CB       DC8 0FFH, 57H, 0BBH, 0E4H, 0B2H, 0CBH, 0E2H, 3AH
   \              E23A        
   \   000019B8   967FF2E0838D       DC8 96H, 7FH, 0F2H, 0E0H, 83H, 8DH, 10H, 65H
   \              1065        
   \   000019C0   EB34C6480940       DC8 0EBH, 34H, 0C6H, 48H, 9, 40H, 0A5H, 8CH
   \              A58C        
   \   000019C8   20C5A90FF8FF       DC8 20H, 0C5H, 0A9H, 0FH, 0F8H, 0FFH, 7BH, 2CH
   \              7B2C        
   \   000019D0   8755A4B0CD34       DC8 87H, 55H, 0A4H, 0B0H, 0CDH, 34H, 40H, 0D5H
   \              40D5        
   \   000019D8   ED9BDD0AA400       DC8 0EDH, 9BH, 0DDH, 0AH, 0A4H, 0, 53H, 4DH
   \              534D        
   \   000019E0   20C50B2630E9       DC8 20H, 0C5H, 0BH, 26H, 30H, 0E9H, 0B7H, 0F6H
   \              B7F6        
   \   000019E8   527F64ACEBD4       DC8 52H, 7FH, 64H, 0ACH, 0EBH, 0D4H, 0C2H, 94H
   \              C294        
   \   000019F0   75ED796A546D       DC8 75H, 0EDH, 79H, 6AH, 54H, 6DH, 7CH, 51H
   \              7C51        
   \   000019F8   6FE335CDFBD4       DC8 6FH, 0E3H, 35H, 0CDH, 0FBH, 0D4H, 16H, 6CH
   \              166C        
   \   00001A00   EEDDB8368862       DC8 0EEH, 0DDH, 0B8H, 36H, 88H, 62H, 39H, 0B4H
   \              39B4        
   \   00001A08   2245971E80CA       DC8 22H, 45H, 97H, 1EH, 80H, 0CAH, 1AH, 62H
   \              1A62        
   \   00001A10   A7F4DC52A909       DC8 0A7H, 0F4H, 0DCH, 52H, 0A9H, 9, 39H, 2DH
   \              392D        
   \   00001A18   54019AA21255       DC8 54H, 1, 9AH, 0A2H, 12H, 55H, 0CEH, 19H
   \              CE19        
   \   00001A20   75C1E0C9AD84       DC8 75H, 0C1H, 0E0H, 0C9H, 0ADH, 84H, 12H, 0A8H
   \              12A8        
   \   00001A28   E29F159796F3       DC8 0E2H, 9FH, 15H, 97H, 96H, 0F3H, 0, 70H
   \              0070        
   \   00001A30   824DB8EC26AC       DC8 82H, 4DH, 0B8H, 0ECH, 26H, 0ACH, 74H, 0EDH
   \              74ED        
   \   00001A38   A94938DF9793       DC8 0A9H, 49H, 38H, 0DFH, 97H, 93H, 0A7H, 3DH
   \              A73D        
   \   00001A40   C683ACA67C52       DC8 0C6H, 83H, 0ACH, 0A6H, 7CH, 52H, 50H, 0E6H
   \              50E6        
   \   00001A48   9D33F96B30F1       DC8 9DH, 33H, 0F9H, 6BH, 30H, 0F1H, 57H, 31H
   \              5731        
   \   00001A50   990365D589AD       DC8 99H, 3, 65H, 0D5H, 89H, 0ADH, 0C8H, 5BH
   \              C85B        
   \   00001A58   8036C873BD08       DC8 80H, 36H, 0C8H, 73H, 0BDH, 8, 86H, 6FH
   \              866F        
   \   00001A60   2A878528B8F4       DC8 2AH, 87H, 85H, 28H, 0B8H, 0F4H, 0BCH, 0C0H
   \              BCC0        
   \   00001A68   F2541EB9AA4F       DC8 0F2H, 54H, 1EH, 0B9H, 0AAH, 4FH, 0EAH, 0B8H
   \              EAB8        
   \   00001A70   59414A97C7E6       DC8 59H, 41H, 4AH, 97H, 0C7H, 0E6H, 91H, 5BH
   \              915B        
   \   00001A78   A6541E3ABDE9       DC8 0A6H, 54H, 1EH, 3AH, 0BDH, 0E9H, 0BFH, 0F6H
   \              BFF6        
   \   00001A80   6C9D7060B031       DC8 6CH, 9DH, 70H, 60H, 0B0H, 31H, 52H, 1AH
   \              521A        
   \   00001A88   A6AC1A75A141       DC8 0A6H, 0ACH, 1AH, 75H, 0A1H, 41H, 0AH, 65H
   \              0A65        
   \   00001A90   5C58D81560AB       DC8 5CH, 58H, 0D8H, 15H, 60H, 0ABH, 0DDH, 85H
   \              DD85        
   \   00001A98   68D53D9779A3       DC8 68H, 0D5H, 3DH, 97H, 79H, 0A3H, 56H, 0BBH
   \              56BB        
   \   00001AA0   C7E33E584E7D       DC8 0C7H, 0E3H, 3EH, 58H, 4EH, 7DH, 4CH, 0F3H
   \              4CF3        
   \   00001AA8   3C4DB475F596       DC8 3CH, 4DH, 0B4H, 75H, 0F5H, 96H, 62H, 0CEH
   \              62CE        
   \   00001AB0   A49A355767F9       DC8 0A4H, 9AH, 35H, 57H, 67H, 0F9H, 0C5H, 39H
   \              C539        
   \   00001AB8   001527F0541F       DC8 0, 15H, 27H, 0F0H, 54H, 1FH, 82H, 0D4H
   \              82D4        
   \   00001AC0   2CED62021C4A       DC8 2CH, 0EDH, 62H, 2, 1CH, 4AH, 98H, 2
   \              9802        
   \   00001AC8   50A5DECE4BD5       DC8 50H, 0A5H, 0DEH, 0CEH, 4BH, 0D5H, 91H, 0AEH
   \              91AE        
   \   00001AD0   0FB62B42935E       DC8 0FH, 0B6H, 2BH, 42H, 93H, 5EH, 0A6H, 40H
   \              A640        
   \   00001AD8   9D0383559972       DC8 9DH, 3, 83H, 55H, 99H, 72H, 0B6H, 2FH
   \              B62F        
   \   00001AE0   F8BD952F883F       DC8 0F8H, 0BDH, 95H, 2FH, 88H, 3FH, 0EAH, 0A6H
   \              EAA6        
   \   00001AE8   E887B46B2FDB       DC8 0E8H, 87H, 0B4H, 6BH, 2FH, 0DBH, 8DH, 0ADH
   \              8DAD        
   \   00001AF0   5EAAA80DD8E5       DC8 5EH, 0AAH, 0A8H, 0DH, 0D8H, 0E5H, 1FH, 10H
   \              1F10        
   \   00001AF8   4FD33E27EEAD       DC8 4FH, 0D3H, 3EH, 27H, 0EEH, 0ADH, 24H, 50H
   \              2450        
   \   00001B00   99DAF5531F08       DC8 99H, 0DAH, 0F5H, 53H, 1FH, 8, 0BBH, 7EH
   \              BB7E        
   \   00001B08   FA03137F4E9C       DC8 0FAH, 3, 13H, 7FH, 4EH, 9CH, 73H, 6FH
   \              736F        
   \   00001B10   714CD37FED71       DC8 71H, 4CH, 0D3H, 7FH, 0EDH, 71H, 42H, 4CH
   \              424C        
   \   00001B18   1CA7FFC45883       DC8 1CH, 0A7H, 0FFH, 0C4H, 58H, 83H, 54H, 0CAH
   \              54CA        
   \   00001B20   BD0790825B8F       DC8 0BDH, 7, 90H, 82H, 5BH, 8FH, 8AH, 54H
   \              8A54        
   \   00001B28   2E48B1DC8027       DC8 2EH, 48H, 0B1H, 0DCH, 80H, 27H, 2AH, 51H
   \              2A51        
   \   00001B30   B9D7C2893875       DC8 0B9H, 0D7H, 0C2H, 89H, 38H, 75H, 3CH, 94H
   \              3C94        
   \   00001B38   8D89D2FFB3A7       DC8 8DH, 89H, 0D2H, 0FFH, 0B3H, 0A7H, 0EFH, 0CBH
   \              EFCB        
   \   00001B40   2CF7C3BB2FB3       DC8 2CH, 0F7H, 0C3H, 0BBH, 2FH, 0B3H, 0E6H, 83H
   \              E683        
   \   00001B48   3AFDCDBF3D36       DC8 3AH, 0FDH, 0CDH, 0BFH, 3DH, 36H, 93H, 0E5H
   \              93E5        
   \   00001B50   FC69B186AA0B       DC8 0FCH, 69H, 0B1H, 86H, 0AAH, 0BH, 0A2H, 3CH
   \              A23C        
   \   00001B58   CD7AE1B9E711       DC8 0CDH, 7AH, 0E1H, 0B9H, 0E7H, 11H, 96H, 0BCH
   \              96BC        
   \   00001B60   656E1EEA86FD       DC8 65H, 6EH, 1EH, 0EAH, 86H, 0FDH, 8, 94H
   \              0894        
   \   00001B68   2BDAB4E74F73       DC8 2BH, 0DAH, 0B4H, 0E7H, 4FH, 73H, 0FCH, 0C4H
   \              FCC4        
   \   00001B70   E032CDC9E5B1       DC8 0E0H, 32H, 0CDH, 0C9H, 0E5H, 0B1H, 5EH, 1EH
   \              5E1E        
   \   00001B78   D3C05CAAA143       DC8 0D3H, 0C0H, 5CH, 0AAH, 0A1H, 43H, 91H, 0A2H
   \              91A2        
   \   00001B80   E5146BBBAFC5       DC8 0E5H, 14H, 6BH, 0BBH, 0AFH, 0C5H, 0BBH, 6
   \              BB06        
   \   00001B88   069BEB0073AC       DC8 6, 9BH, 0EBH, 0, 73H, 0ACH, 0BFH, 17H
   \              BF17        
   \   00001B90   03434E1D78E5       DC8 3, 43H, 4EH, 1DH, 78H, 0E5H, 0B0H, 20H
   \              B020        
   \   00001B98   C5799EB41263       DC8 0C5H, 79H, 9EH, 0B4H, 12H, 63H, 0FFH, 23H
   \              FF23        
   \   00001BA0   2E9E239FEDAE       DC8 2EH, 9EH, 23H, 9FH, 0EDH, 0AEH, 53H, 5DH
   \              535D        
   \   00001BA8   3E0213E3A43C       DC8 3EH, 2, 13H, 0E3H, 0A4H, 3CH, 80H, 0DAH
   \              80DA        
   \   00001BB0   EE4E6CA20EA7       DC8 0EEH, 4EH, 6CH, 0A2H, 0EH, 0A7H, 9CH, 2FH
   \              9C2F        
   \   00001BB8   28551F29A0F2       DC8 28H, 55H, 1FH, 29H, 0A0H, 0F2H, 0EEH, 0D9H
   \              EED9        
   \   00001BC0   B6D7295D6D66       DC8 0B6H, 0D7H, 29H, 5DH, 6DH, 66H, 0E6H, 0F2H
   \              E6F2        
   \   00001BC8   B6F6E295631A       DC8 0B6H, 0F6H, 0E2H, 95H, 63H, 1AH, 50H, 0BFH
   \              50BF        
   \   00001BD0   D0EDA3ADFC39       DC8 0D0H, 0EDH, 0A3H, 0ADH, 0FCH, 39H, 0CFH, 0DCH
   \              CFDC        
   \   00001BD8   34FDD0B6DF97       DC8 34H, 0FDH, 0D0H, 0B6H, 0DFH, 97H, 69H, 2EH
   \              692E        
   \   00001BE0   401D6BCBA1DD       DC8 40H, 1DH, 6BH, 0CBH, 0A1H, 0DDH, 7CH, 0B9H
   \              7CB9        
   \   00001BE8   597AD7E2CD24       DC8 59H, 7AH, 0D7H, 0E2H, 0CDH, 24H, 0AEH, 21H
   \              AE21        
   \   00001BF0   CAE66DF3A012       DC8 0CAH, 0E6H, 6DH, 0F3H, 0A0H, 12H, 65H, 97H
   \              6597        
   \   00001BF8   74E7B5C54879       DC8 74H, 0E7H, 0B5H, 0C5H, 48H, 79H, 65H, 0F7H
   \              65F7        
   \   00001C00   5C796DE5E0FE       DC8 5CH, 79H, 6DH, 0E5H, 0E0H, 0FEH, 0D4H, 9FH
   \              D49F        
   \   00001C08   16BF27CF5CEE       DC8 16H, 0BFH, 27H, 0CFH, 5CH, 0EEH, 8DH, 30H
   \              8D30        
   \   00001C10   C7FD5F6963FF       DC8 0C7H, 0FDH, 5FH, 69H, 63H, 0FFH, 0BH, 0BDH
   \              0BBD        
   \   00001C18   2D6E2538494A       DC8 2DH, 6EH, 25H, 38H, 49H, 4AH, 60H, 0
   \              6000        
   \   00001C20   00000049454E       DC8 0, 0, 0, 49H, 45H, 4EH, 44H, 0AEH
   \              44AE        
   \   00001C28   42608200           DC8 42H, 60H, 82H, 0
   \                     `?<Initializer for STATUS_PNG>`:
   \   00001C2C   89504E470D0A       DC8 89H, 50H, 4EH, 47H, 0DH, 0AH, 1AH, 0AH
   \              1A0A        
   \   00001C34   0000000D4948       DC8 0, 0, 0, 0DH, 49H, 48H, 44H, 52H
   \              4452        
   \   00001C3C   000000D00000       DC8 0, 0, 0, 0D0H, 0, 0, 0, 10H
   \              0010        
   \   00001C44   080300000050       DC8 8, 3, 0, 0, 0, 50H, 92H, 1
   \              9201        
   \   00001C4C   F20000001974       DC8 0F2H, 0, 0, 0, 19H, 74H, 45H, 58H
   \              4558        
   \   00001C54   74536F667477       DC8 74H, 53H, 6FH, 66H, 74H, 77H, 61H, 72H
   \              6172        
   \   00001C5C   650041646F62       DC8 65H, 0, 41H, 64H, 6FH, 62H, 65H, 20H
   \              6520        
   \   00001C64   496D61676552       DC8 49H, 6DH, 61H, 67H, 65H, 52H, 65H, 61H
   \              6561        
   \   00001C6C   647971C9653C       DC8 64H, 79H, 71H, 0C9H, 65H, 3CH, 0, 0
   \              0000        
   \   00001C74   013E504C5445       DC8 1, 3EH, 50H, 4CH, 54H, 45H, 0, 63H
   \              0063        
   \   00001C7C   00005400004D       DC8 0, 0, 54H, 0, 0, 4DH, 0, 4AH
   \              004A        
   \   00001C84   291000990000       DC8 29H, 10H, 0, 99H, 0, 0, 5BH, 0
   \              5B00        
   \   00001C8C   00000000AB00       DC8 0, 0, 0, 0, 0ABH, 0, 0FFH, 0FFH
   \              FFFF        
   \   00001C94   0000FF0000B1       DC8 0, 0, 0FFH, 0, 0, 0B1H, 0, 0
   \              0000        
   \   00001C9C   B80000DC00B5       DC8 0B8H, 0, 0, 0DCH, 0, 0B5H, 7BH, 0
   \              7B00        
   \   00001CA4   00C90063FFFF       DC8 0, 0C9H, 0, 63H, 0FFH, 0FFH, 0FFH, 0
   \              FF00        
   \   00001CAC   00DB00005900       DC8 0, 0DBH, 0, 0, 59H, 0, 0, 84H
   \              0084        
   \   00001CB4   00009D000063       DC8 0, 0, 9DH, 0, 0, 63H, 0, 0
   \              0000        
   \   00001CBC   C40000B60000       DC8 0C4H, 0, 0, 0B6H, 0, 0, 7, 19H
   \              0719        
   \   00001CC4   685C3F00ECEC       DC8 68H, 5CH, 3FH, 0, 0ECH, 0ECH, 0ECH, 4FH
   \              EC4F        
   \   00001CCC   0000F2F2F200       DC8 0, 0, 0F2H, 0F2H, 0F2H, 0, 0C0H, 0
   \              C000        
   \   00001CD4   0C297400D500       DC8 0CH, 29H, 74H, 0, 0D5H, 0, 63H, 63H
   \              6363        
   \   00001CDC   00F9F9F9F6F6       DC8 0, 0F9H, 0F9H, 0F9H, 0F6H, 0F6H, 0F6H, 0FFH
   \              F6FF        
   \   00001CE4   24246D3A1183       DC8 24H, 24H, 6DH, 3AH, 11H, 83H, 0, 0
   \              0000        
   \   00001CEC   004300008000       DC8 0, 43H, 0, 0, 80H, 0, 69H, 48H
   \              6948        
   \   00001CF4   00134085FD00       DC8 0, 13H, 40H, 85H, 0FDH, 0, 0, 0FFH
   \              00FF        
   \   00001CFC   D125FFFF315D       DC8 0D1H, 25H, 0FFH, 0FFH, 31H, 5DH, 2DH, 10H
   \              2D10        
   \   00001D04   D2D2D2A90000       DC8 0D2H, 0D2H, 0D2H, 0A9H, 0, 0, 0, 39H
   \              0039        
   \   00001D0C   00FFFFFFFFE8       DC8 0, 0FFH, 0FFH, 0FFH, 0FFH, 0E8H, 12H, 75H
   \              1275        
   \   00001D14   8FCF1F2695DE       DC8 8FH, 0CFH, 1FH, 26H, 95H, 0DEH, 0DEH, 0DEH
   \              DEDE        
   \   00001D1C   DED619363736       DC8 0DEH, 0D6H, 19H, 36H, 37H, 36H, 0FFH, 0F3H
   \              FFF3        
   \   00001D24   09E2E2E27C45       DC8 9, 0E2H, 0E2H, 0E2H, 7CH, 45H, 12H, 0E6H
   \              12E6        
   \   00001D2C   E6E69C00007A       DC8 0E6H, 0E6H, 9CH, 0, 0, 7AH, 4CH, 22H
   \              4C22        
   \   00001D34   4F4F4FC9C9C9       DC8 4FH, 4FH, 4FH, 0C9H, 0C9H, 0C9H, 0D9H, 0D9H
   \              D9D9        
   \   00001D3C   D9164B8DFFDE       DC8 0D9H, 16H, 4BH, 8DH, 0FFH, 0DEH, 1AH, 40H
   \              1A40        
   \   00001D44   4EAB0F327AF8       DC8 4EH, 0ABH, 0FH, 32H, 7AH, 0F8H, 0C6H, 0B5H
   \              C6B5        
   \   00001D4C   785100FFC61A       DC8 78H, 51H, 0, 0FFH, 0C6H, 1AH, 0AH, 21H
   \              0A21        
   \   00001D54   6E6C6C6CF5C5       DC8 6EH, 6CH, 6CH, 6CH, 0F5H, 0C5H, 0BBH, 0AEH
   \              BBAE        
   \   00001D5C   AEAE919191A6       DC8 0AEH, 0AEH, 91H, 91H, 91H, 0A6H, 0CAH, 0F0H
   \              CAF0        
   \   00001D64   10387F877972       DC8 10H, 38H, 7FH, 87H, 79H, 72H, 1FH, 1FH
   \              1F1F        
   \   00001D6C   1FFFB13EF6C2       DC8 1FH, 0FFH, 0B1H, 3EH, 0F6H, 0C2H, 0AEH, 0F4H
   \              AEF4        
   \   00001D74   C1B05C70BE73       DC8 0C1H, 0B0H, 5CH, 70H, 0BEH, 73H, 4EH, 0
   \              4E00        
   \   00001D7C   5F74C0BDBDBD       DC8 5FH, 74H, 0C0H, 0BDH, 0BDH, 0BDH, 0FFH, 0EEH
   \              FFEE        
   \   00001D84   0DFEC9B3FF48       DC8 0DH, 0FEH, 0C9H, 0B3H, 0FFH, 48H, 48H, 9CH
   \              489C        
   \   00001D8C   9C9CFBCABABD       DC8 9CH, 9CH, 0FBH, 0CAH, 0BAH, 0BDH, 0, 0
   \              0000        
   \   00001D94   31000023271D       DC8 31H, 0, 0, 23H, 27H, 1DH, 0EEH, 0BAH
   \              EEBA        
   \   00001D9C   A9FF6C6CFF94       DC8 0A9H, 0FFH, 6CH, 6CH, 0FFH, 94H, 94H, 0EFH
   \              94EF        
   \   00001DA4   0000626262BA       DC8 0, 0, 62H, 62H, 62H, 0BAH, 3CH, 0
   \              3C00        
   \   00001DAC   CE0000730800       DC8 0CEH, 0, 0, 73H, 8, 0, 9DH, 0A3H
   \              9DA3        
   \   00001DB4   9CFFFFFF323E       DC8 9CH, 0FFH, 0FFH, 0FFH, 32H, 3EH, 0C3H, 0D7H
   \              C3D7        
   \   00001DBC   0000006A7452       DC8 0, 0, 0, 6AH, 74H, 52H, 4EH, 53H
   \              4E53        
   \   00001DC4   FFFFFFFFFFFF       DC8 0FFH, 0FFH, 0FFH, 0FFH, 0FFH, 0FFH, 0FFH, 0FFH
   \              FFFF        
   \   00001DCC   FFFFFFFFFFFF       DC8 0FFH, 0FFH, 0FFH, 0FFH, 0FFH, 0FFH, 0FFH, 0FFH
   \              FFFF        
   \   00001DD4   FFFFFFFFFFFF       DC8 0FFH, 0FFH, 0FFH, 0FFH, 0FFH, 0FFH, 0FFH, 0FFH
   \              FFFF        
   \   00001DDC   FFFFFFFFFFFF       DC8 0FFH, 0FFH, 0FFH, 0FFH, 0FFH, 0FFH, 0FFH, 0FFH
   \              FFFF        
   \   00001DE4   FFFFFFFFFFFF       DC8 0FFH, 0FFH, 0FFH, 0FFH, 0FFH, 0FFH, 0FFH, 0FFH
   \              FFFF        
   \   00001DEC   FFFFFFFFFFFF       DC8 0FFH, 0FFH, 0FFH, 0FFH, 0FFH, 0FFH, 0FFH, 0FFH
   \              FFFF        
   \   00001DF4   FFFFFFFFFFFF       DC8 0FFH, 0FFH, 0FFH, 0FFH, 0FFH, 0FFH, 0FFH, 0FFH
   \              FFFF        
   \   00001DFC   FFFFFFFFFFFF       DC8 0FFH, 0FFH, 0FFH, 0FFH, 0FFH, 0FFH, 0FFH, 0FFH
   \              FFFF        
   \   00001E04   FFFFFFFFFFFF       DC8 0FFH, 0FFH, 0FFH, 0FFH, 0FFH, 0FFH, 0FFH, 0FFH
   \              FFFF        
   \   00001E0C   FFFFFFFFFFFF       DC8 0FFH, 0FFH, 0FFH, 0FFH, 0FFH, 0FFH, 0FFH, 0FFH
   \              FFFF        
   \   00001E14   FFFFFFFFFFFF       DC8 0FFH, 0FFH, 0FFH, 0FFH, 0FFH, 0FFH, 0FFH, 0FFH
   \              FFFF        
   \   00001E1C   FFFFFFFFFFFF       DC8 0FFH, 0FFH, 0FFH, 0FFH, 0FFH, 0FFH, 0FFH, 0FFH
   \              FFFF        
   \   00001E24   FFFFFFFFFFFF       DC8 0FFH, 0FFH, 0FFH, 0FFH, 0FFH, 0FFH, 0FFH, 0FFH
   \              FFFF        
   \   00001E2C   FF00BCE4DCE3       DC8 0FFH, 0, 0BCH, 0E4H, 0DCH, 0E3H, 0, 0
   \              0000        
   \   00001E34   04BA49444154       DC8 4, 0BAH, 49H, 44H, 41H, 54H, 78H, 0DAH
   \              78DA        
   \   00001E3C   DC97697B9B46       DC8 0DCH, 97H, 69H, 7BH, 9BH, 46H, 10H, 0C7H
   \              10C7        
   \   00001E44   17562C06848C       DC8 17H, 56H, 2CH, 6, 84H, 8CH, 10H, 8
   \              1008        
   \   00001E4C   59B225D74658       DC8 59H, 0B2H, 25H, 0D7H, 46H, 58H, 47H, 75H
   \              4775        
   \   00001E54   FA90234BB6E3       DC8 0FAH, 90H, 23H, 4BH, 0B6H, 0E3H, 0F8H, 0B6H
   \              F8B6        
   \   00001E5C   EBB369521F39       DC8 0EBH, 0B3H, 69H, 52H, 1FH, 39H, 9AH, 0F4H
   \              9AF4        
   \   00001E64   E0FB7F81CEEC       DC8 0E0H, 0FBH, 7FH, 81H, 0CEH, 0ECH, 2, 96H
   \              0296        
   \   00001E6C   F354E9D3BEC8       DC8 0F3H, 54H, 0E9H, 0D3H, 0BEH, 0C8H, 8BH, 8CH
   \              8B8C        
   \   00001E74   B4A0BFE7801F       DC8 0B4H, 0A0H, 0BFH, 0E7H, 80H, 1FH, 3BH, 2CH
   \              3B2C        
   \   00001E7C   9884DF9911DC       DC8 98H, 84H, 0DFH, 99H, 11H, 0DCH, 0B8H, 0AEH
   \              B8AE        
   \   00001E84   1BDAB6FDF447       DC8 1BH, 0DAH, 0B6H, 0FDH, 0F4H, 47H, 42H, 42H
   \              4242        
   \   00001E8C   4551125DAFD7       DC8 45H, 51H, 12H, 5DH, 0AFH, 0D7H, 0C3H, 8BH
   \              C38B        
   \   00001E94   FDFDA95AF6E5       DC8 0FDH, 0FDH, 0A9H, 5AH, 0F6H, 0E5H, 50H, 0EH
   \              500E        
   \   00001E9C   82A9F9DF5223       DC8 82H, 0A9H, 0F9H, 0DFH, 52H, 23H, 90H, 9BH
   \              909B        
   \   00001EA4   CF7A38622292       DC8 0CFH, 7AH, 38H, 62H, 22H, 92H, 49H, 0ABH
   \              49AB        
   \   00001EAC   38A448BFFC79       DC8 38H, 0A4H, 48H, 0BFH, 0FCH, 79H, 0F5H, 97H
   \              F597        
   \   00001EB4   3A8CF2142D0D       DC8 3AH, 8CH, 0F2H, 14H, 2DH, 0DH, 0C7H, 43H
   \              C743        
   \   00001EBC   19E28329F9CF       DC8 19H, 0E2H, 83H, 29H, 0F9H, 0CFH, 34H, 7DH
   \              347D        
   \   00001EC4   A669E2CF4D89       DC8 0A6H, 69H, 0E2H, 0CFH, 4DH, 89H, 0E7H, 9AH
   \              E79A        
   \   00001ECC   529AF99A7F42       DC8 52H, 9AH, 0F9H, 9AH, 7FH, 42H, 73H, 0A0H
   \              73A0        
   \   00001ED4   6C238F23014A       DC8 6CH, 23H, 8FH, 23H, 1, 4AH, 6BH, 0C0H
   \              6BC0        
   \   00001EDC   AC2809D0EA4F       DC8 0ACH, 28H, 9, 0D0H, 0EAH, 4FH, 0ABH, 75H
   \              AB75        
   \   00001EE4   18E5295A1AFE       DC8 18H, 0E5H, 29H, 5AH, 1AH, 0FEH, 3AH, 94H
   \              3A94        
   \   00001EEC   D39A9100A51D       DC8 0D3H, 9AH, 91H, 0, 0A5H, 1DH, 0B0H, 0AAH
   \              B0AA        
   \   00001EF4   911C307DF8BA       DC8 91H, 1CH, 30H, 7DH, 0F8H, 0BAH, 56H, 0ABH
   \              56AB        
   \   00001EFC   094D29D63770       DC8 9, 4DH, 29H, 0D6H, 37H, 70H, 48H, 28H
   \              4828        
   \   00001F04   C4F18C9C959B       DC8 0C4H, 0F1H, 8CH, 9CH, 95H, 9BH, 88H, 8FH
   \              888F        
   \   00001F0C   FDB1A633F499       DC8 0FDH, 0B1H, 0A6H, 33H, 0F4H, 99H, 0FEH, 0D2H
   \              FED2        
   \   00001F14   3F519F40BFE5       DC8 3FH, 51H, 9FH, 40H, 0BFH, 0E5H, 0E1H, 3
   \              E103        
   \   00001F1C   5B3B6B97F8FC       DC8 5BH, 3BH, 6BH, 97H, 0F8H, 0FCH, 2DH, 10H
   \              2D10        
   \   00001F24   727EB23DD896       DC8 72H, 7EH, 0B2H, 3DH, 0D8H, 96H, 24H, 0CH
   \              240C        
   \   00001F2C   A9BF44ABD72F       DC8 0A9H, 0BFH, 44H, 0ABH, 0D7H, 2FH, 0F6H, 0CBH
   \              F6CB        
   \   00001F34   E563D0D90658       DC8 0E5H, 63H, 0D0H, 0D9H, 6, 58H, 16H, 2CH
   \              162C        
   \   00001F3C   9FF73CEC3769       DC8 9FH, 0F7H, 3CH, 0ECH, 37H, 69H, 1, 81H
   \              0181        
   \   00001F44   6423D082AEC8       DC8 64H, 23H, 0D0H, 82H, 0AEH, 0C8H, 0EFH, 7CH
   \              EF7C        
   \   00001F4C   BC5B5E5EAE6A       DC8 0BCH, 5BH, 5EH, 5EH, 0AEH, 6AH, 3CH, 1FH
   \              3C1F        
   \   00001F54   F4E12C5A8D6B       DC8 0F4H, 0E1H, 2CH, 5AH, 8DH, 6BH, 6AH, 51H
   \              6A51        
   \   00001F5C   4A0CB8608642       DC8 4AH, 0CH, 0B8H, 60H, 86H, 42H, 0E9H, 88H
   \              E988        
   \   00001F64   8AE3018F65E5       DC8 8AH, 0E3H, 1, 8FH, 65H, 0E5H, 92H, 78H
   \              9278        
   \   00001F6C   62C616690082       DC8 62H, 0C6H, 16H, 69H, 0, 82H, 0F8H, 27H
   \              F827        
   \   00001F74   BFC87FAABFB9       DC8 0BFH, 0C8H, 7FH, 0AAH, 0BFH, 0B9H, 0F9H, 0B6H
   \              F9B6        
   \   00001F7C   BF27EA13B7D1       DC8 0BFH, 27H, 0EAH, 13H, 0B7H, 0D1H, 0C8H, 3BH
   \              C83B        
   \   00001F84   EE66BF69C31C       DC8 0EEH, 66H, 0BFH, 69H, 0C3H, 1CH, 39H, 0A5H
   \              39A5        
   \   00001F8C   90681AB93FDF       DC8 90H, 68H, 1AH, 0B9H, 3FH, 0DFH, 0BEH, 1CH
   \              BE1C        
   \   00001F94   BC0722550EEB       DC8 0BCH, 7, 22H, 55H, 0EH, 0EBH, 3FH, 80H
   \              3F80        
   \   00001F9C   2D2DCDCF178B       DC8 2DH, 2DH, 0CDH, 0CFH, 17H, 8BH, 5BH, 2FH
   \              5B2F        
   \   00001FA4   D60B61F699EE       DC8 0D6H, 0BH, 61H, 0F6H, 99H, 0EEH, 84H, 0B2H
   \              84B2        
   \   00001FAC   A62150BF893F       DC8 0A6H, 21H, 50H, 0BFH, 89H, 3FH, 0D4H, 2EH
   \              D42E        
   \   00001FB4   E63B1F7BC0D3       DC8 0E6H, 3BH, 1FH, 7BH, 0C0H, 0D3H, 5BH, 0AEH
   \              5BAE        
   \   00001FBC   2E403EE8C359       DC8 2EH, 40H, 3EH, 0E8H, 0C3H, 59H, 0C6H, 0F0H
   \              C6F0        
   \   00001FC4   3B879A5AEF18       DC8 3BH, 87H, 9AH, 5AH, 0EFH, 18H, 25H, 70H
   \              2570        
   \   00001FCC   3C85B29145D1       DC8 3CH, 85H, 0B2H, 91H, 45H, 0D1H, 0BFH, 0A0H
   \              BFA0        
   \   00001FD4   220F1045F10B       DC8 22H, 0FH, 10H, 45H, 0F1H, 0BH, 0E6H, 8FH
   \              E68F        
   \   00001FDC   C2368008358D       DC8 0C2H, 36H, 80H, 8, 35H, 8DH, 2DH, 0F2H
   \              2DF2        
   \   00001FE4   AB3C1F7F88FA       DC8 0ABH, 3CH, 1FH, 7FH, 88H, 0FAH, 9BH, 8CH
   \              9B8C        
   \   00001FEC   C1B7C9EB13D7       DC8 0C1H, 0B7H, 0C9H, 0EBH, 13H, 0D7H, 0F3H, 1CH
   \              F31C        
   \   00001FF4   D7EDEF1DD9B6       DC8 0D7H, 0EDH, 0EFH, 1DH, 0D9H, 0B6H, 0E7H, 54H
   \              E754        
   \   00001FFC   014827F79730       DC8 1, 48H, 27H, 0F7H, 97H, 30H, 3DH, 57H
   \              3D57        
   \   00002004   ECEAFD401240       DC8 0ECH, 0EAH, 0FDH, 40H, 12H, 40H, 0C9H, 0F9H
   \              C9F9        
   \   0000200C   EF7220B6B4C4       DC8 0EFH, 72H, 20H, 0B6H, 0B4H, 0C4H, 0E6H, 8BH
   \              E68B        
   \   00002014   8C810620DD50       DC8 8CH, 81H, 6, 20H, 0DDH, 50H, 87H, 43H
   \              8743        
   \   0000201C   DFF783C05053       DC8 0DFH, 0F7H, 83H, 0C0H, 50H, 53H, 0, 0A4H
   \              00A4        
   \   00002024   1BCEDD5D0F78       DC8 1BH, 0CEH, 0DDH, 5DH, 0FH, 78H, 0B2H, 55H
   \              B255        
   \   0000202C   3525A37E1D03       DC8 35H, 25H, 0A3H, 7EH, 1DH, 3, 0A1H, 0A6H
   \              A1A6        
   \   00002034   96CB7A148E47       DC8 96H, 0CBH, 7AH, 14H, 8EH, 47H, 59H, 0CFH
   \              59CF        
   \   0000203C   4220C8CFC526       DC8 42H, 20H, 0C8H, 0CFH, 0C5H, 26H, 0E2H, 23H
   \              E223        
   \   00002044   9E8D8D8D4593       DC8 9EH, 8DH, 8DH, 8DH, 45H, 93H, 0FBH, 0E9H
   \              FBE9        
   \   0000204C   8C302AFC2A21       DC8 8CH, 30H, 2AH, 0FCH, 2AH, 21H, 90H, 0AFH
   \              90AF        
   \   00002054   28465C3F06E2       DC8 28H, 46H, 5CH, 3FH, 6, 0E2H, 1AH, 97H
   \              1A97        
   \   0000205C   38CF6D1E5DDB       DC8 38H, 0CFH, 6DH, 1EH, 5DH, 0DBH, 0DH, 0BBH
   \              0DBB        
   \   00002064   C45BEEFC64FD       DC8 0C4H, 5BH, 0EEH, 0FCH, 64H, 0FDH, 6CH, 67H
   \              6C67        
   \   0000206C   9BB1ABED014C       DC8 9BH, 0B1H, 0ABH, 0EDH, 1, 4CH, 0E1H, 0C5H
   \              E1C5        
   \   00002074   244F5B00B179       DC8 24H, 4FH, 5BH, 0, 0B1H, 79H, 56H, 64H
   \              5664        
   \   0000207C   5B2FD86EBB03       DC8 5BH, 2FH, 0D8H, 6EH, 0BBH, 3, 2DH, 27H
   \              2D27        
   \   00002084   FBE3CBD3031F       DC8 0FBH, 0E3H, 0CBH, 0D3H, 3, 1FH, 3BH, 4EH
   \              3B4E        
   \   0000208C   B49CC3E727EB       DC8 0B4H, 9CH, 0C3H, 0E7H, 27H, 0EBH, 55H, 0A3H
   \              55A3        
   \   00002094   96A8CD0A9B13       DC8 96H, 0A8H, 0CDH, 0AH, 9BH, 13H, 2DH, 97H
   \              2D97        
   \   0000209C   63BD113DA223       DC8 63H, 0BDH, 11H, 3DH, 0A2H, 23H, 1, 84H
   \              0184        
   \   000020A4   4B94012D859F       DC8 4BH, 94H, 1, 2DH, 85H, 9FH, 28H, 0DEH
   \              28DE        
   \   000020AC   E4301B0208FD       DC8 0E4H, 30H, 1BH, 2, 8, 0FDH, 91H, 1BH
   \              911B        
   \   000020B4   02C492661038       DC8 2, 0C4H, 92H, 66H, 10H, 38H, 5FH, 0ECH
   \              5FEC        
   \   000020BC   B8A8FE5BDE72       DC8 0B8H, 0A8H, 0FEH, 5BH, 0DEH, 72H, 4DH, 5EH
   \              4D5E        
   \   000020C4   9F40A7653D07       DC8 9FH, 40H, 0A7H, 65H, 3DH, 7, 16H, 6DH
   \              166D        
   \   000020CC   BE2FC1F277D6       DC8 0BEH, 2FH, 0C1H, 0F2H, 77H, 0D6H, 2EH, 7EH
   \              2E7E        
   \   000020D4   469EC1E5B62C       DC8 46H, 9EH, 0C1H, 0E5H, 0B6H, 2CH, 87H, 0FBH
   \              87FB        
   \   000020DC   933C1C08A687       DC8 93H, 3CH, 1CH, 8, 0A6H, 87H, 1, 10H
   \              0110        
   \   000020E4   58BBED84415A       DC8 58H, 0BBH, 0EDH, 84H, 41H, 5AH, 0F3H, 0FH
   \              F30F        
   \   000020EC   4E4F0FC63049       DC8 4EH, 4FH, 0FH, 0C6H, 30H, 49H, 6, 0CCH
   \              06CC        
   \   000020F4   9092D61CE4E9       DC8 90H, 92H, 0D6H, 1CH, 0E4H, 0E9H, 79H, 9DH
   \              799D        
   \   000020FC   AA01570C3400       DC8 0AAH, 1, 57H, 0CH, 34H, 0, 41H, 30H
   \              4130        
   \   00002104   00197C8646EC       DC8 0, 19H, 7CH, 86H, 46H, 0ECH, 37H, 6BH
   \              376B        
   \   0000210C   44479F600740       DC8 44H, 47H, 9FH, 60H, 7, 40H, 0E0H, 4FH
   \              E04F        
   \   00002114   1B514745F1E6       DC8 1BH, 51H, 47H, 45H, 0F1H, 0E6H, 9FH, 8BH
   \              9F8B        
   \   0000211C   91E54CEE4F80       DC8 91H, 0E5H, 4CH, 0EEH, 4FH, 80H, 84H, 3FH
   \              843F        
   \   00002124   6DACC0228DFB       DC8 6DH, 0ACH, 0C0H, 22H, 8DH, 0FBH, 0A8H, 7EH
   \              A87E        
   \   0000212C   9FF5FB7B3043       DC8 9FH, 0F5H, 0FBH, 7BH, 30H, 43H, 0A8H, 89H
   \              A889        
   \   00002134   9DCFE63BB607       DC8 9DH, 0CFH, 0E6H, 3BH, 0B6H, 7, 2BH, 2
   \              2B02        
   \   0000213C   EC1128A3283B       DC8 0ECH, 11H, 28H, 0A3H, 28H, 3BH, 67H, 3
   \              6703        
   \   00002144   B0937B0902F6       DC8 0B0H, 93H, 7BH, 9, 2, 0F6H, 27H, 79H
   \              2779        
   \   0000214C   760A615EF4DB       DC8 76H, 0AH, 61H, 5EH, 0F4H, 0DBH, 16H, 5BH
   \              165B        
   \   00002154   DF65ED1D00CA       DC8 0DFH, 65H, 0EDH, 1DH, 0, 0CAH, 54H, 0
   \              5400        
   \   0000215C   68ECDFF8372D       DC8 68H, 0ECH, 0DFH, 0F8H, 37H, 2DH, 1DH, 81H
   \              1D81        
   \   00002164   32952ACECFEF       DC8 32H, 95H, 2AH, 0CEH, 0CFH, 0EFH, 3DH, 0A7H
   \              3DA7        
   \   0000216C   AAE3013395DA       DC8 0AAH, 0E3H, 1, 33H, 95H, 0DAH, 2CH, 0D0H
   \              2CD0        
   \   00002174   C098434D478F       DC8 0C0H, 98H, 43H, 4DH, 47H, 8FH, 2EH, 0DCH
   \              2EDC        
   \   0000217C   2F23CB721F81       DC8 2FH, 23H, 0CBH, 72H, 1FH, 81H, 0BH, 0FDH
   \              0BFD        
   \   00002184   195DF4148DE2       DC8 19H, 5DH, 0F4H, 14H, 8DH, 0E2H, 33H, 66H
   \              3366        
   \   0000218C   DC82A6D0932D       DC8 0DCH, 82H, 0A6H, 0D0H, 93H, 2DH, 0C7H, 0E3H
   \              C7E3        
   \   00002194   1543A948B08F       DC8 15H, 43H, 0A9H, 48H, 0B0H, 8FH, 0EAH, 0EFH
   \              EAEF        
   \   0000219C   EDC1056B5EF3       DC8 0EDH, 0C1H, 5, 6BH, 5EH, 0F3H, 0FAH, 0C4H
   \              FAC4        
   \   000021A4   EE781D1B96EC       DC8 0EEH, 78H, 1DH, 1BH, 96H, 0ECH, 46H, 0A3H
   \              46A3        
   \   000021AC   D4C17B485275       DC8 0D4H, 0C1H, 7BH, 48H, 52H, 75H, 55H, 29H
   \              5529        
   \   000021B4   9E9D7C3E3997       DC8 9EH, 9DH, 7CH, 3EH, 39H, 97H, 52H, 2BH
   \              522B        
   \   000021BC   72589EE4E140       DC8 72H, 58H, 9EH, 0E4H, 0E1H, 40H, 93H, 1AH
   \              931A        
   \   000021C4   8054DD1F1FF8       DC8 80H, 54H, 0DDH, 1FH, 1FH, 0F8H, 1FH, 3EH
   \              1F3E        
   \   000021CC   00506AA5CBF3       DC8 0, 50H, 6AH, 0A5H, 0CBH, 0F3H, 0ABH, 0D0H
   \              ABD0        
   \   000021D4   6F504CC57CD4       DC8 6FH, 50H, 4CH, 0C5H, 7CH, 0D4H, 0A2H, 0E7H
   \              A2E7        
   \   000021DC   E684A69FDEC1       DC8 0E6H, 84H, 0A6H, 9FH, 0DEH, 0C1H, 42H, 27H
   \              4227        
   \   000021E4   51FAC7A34585       DC8 51H, 0FAH, 0C7H, 0A3H, 45H, 85H, 5FH, 0A1H
   \              5FA1        
   \   000021EC   336FE81B385F       DC8 33H, 6FH, 0E8H, 1BH, 38H, 5FH, 11H, 6FH
   \              116F        
   \   000021F4   CE008A09AD65       DC8 0CEH, 0, 8AH, 9, 0ADH, 65H, 42H, 0CBH
   \              42CB        
   \   000021FC   A19F03C18646       DC8 0A1H, 9FH, 3, 0C1H, 86H, 46H, 0F5H, 14H
   \              F514        
   \   00002204   2D23699AF454       DC8 2DH, 23H, 69H, 9AH, 0F4H, 54H, 0BFH, 9
   \              BF09        
   \   0000220C   762DEA137C45       DC8 76H, 2DH, 0EAH, 13H, 7CH, 45H, 0C8H, 0C2H
   \              C8C2        
   \   00002214   43154689DF43       DC8 43H, 15H, 46H, 89H, 0DFH, 43H, 0D0H, 99H
   \              D099        
   \   0000221C   1549DAF9EB4C       DC8 15H, 49H, 0DAH, 0F9H, 0EBH, 4CH, 92H, 0A1H
   \              92A1        
   \   00002224   E3C2B01CDB71       DC8 0E3H, 0C2H, 0B0H, 1CH, 0DBH, 71H, 0A1H, 50H
   \              A150        
   \   0000222C   009D17E6795E       DC8 0, 9DH, 17H, 0E6H, 79H, 5EH, 0A7H, 0E3H
   \              A7E3        
   \   00002234   800E82C03F18       DC8 80H, 0EH, 82H, 0C0H, 3FH, 18H, 0B7H, 5AH
   \              B75A        
   \   0000223C   E39B16BF8730       DC8 0E3H, 9BH, 16H, 0BFH, 87H, 30H, 0BFH, 8AH
   \              BF8A        
   \   00002244   66887CD47368       DC8 66H, 88H, 7CH, 0D4H, 73H, 68H, 0B1H, 0E6H
   \              B1E6        
   \   0000224C   CD25557017FB       DC8 0CDH, 25H, 55H, 70H, 17H, 0FBH, 23H, 0A0H
   \              23A0        
   \   00002254   28DEE4D3018B       DC8 28H, 0DEH, 0E4H, 0D3H, 1, 8BH, 0F6H, 22H
   \              F622        
   \   0000225C   DE43E04F80E2       DC8 0DEH, 43H, 0E0H, 4FH, 80H, 0E2H, 0F8H, 8AH
   \              F88A        
   \   00002264   81E31FEBE383       DC8 81H, 0E3H, 1FH, 0EBH, 0E3H, 83H, 0D5H, 86H
   \              D586        
   \   0000226C   85AE84237E50       DC8 85H, 0AEH, 84H, 23H, 7EH, 50H, 0EAH, 7AH
   \              EA7A        
   \   00002274   0AC25272A4CB       DC8 0AH, 0C2H, 52H, 72H, 0A4H, 0CBH, 0AFH, 5EH
   \              AF5E        
   \   0000227C   ADE1284CD181       DC8 0ADH, 0E1H, 28H, 4CH, 0D1H, 81H, 0FFH, 0F0H
   \              FFF0        
   \   00002284   703BBE1DB726       DC8 70H, 3BH, 0BEH, 1DH, 0B7H, 26H, 0F3H, 75H
   \              F375        
   \   0000228C   3DC9FF771DDD       DC8 3DH, 0C9H, 0FFH, 77H, 1DH, 0DDH, 43H, 0B1H
   \              43B1        
   \   00002294   461434FE1C8A       DC8 46H, 14H, 34H, 0FEH, 1CH, 8AH, 2EH, 0C1H
   \              2EC1        
   \   0000229C   44C057EB2150       DC8 44H, 0C0H, 57H, 0EBH, 21H, 50H, 0C9H, 1
   \              C901        
   \   000022A4   9612F65B1490       DC8 96H, 12H, 0F6H, 5BH, 14H, 90H, 4AH, 49H
   \              4A49        
   \   000022AC   A18CF327EC78       DC8 0A1H, 8CH, 0F3H, 27H, 0ECH, 78H, 6DH, 0EDH
   \              6DED        
   \   000022B4   382CAC25005F       DC8 38H, 2CH, 0ACH, 25H, 0, 5FH, 0EAH, 6EH
   \              EA6E        
   \   000022BC   6BFC707A7BDB       DC8 6BH, 0FCH, 70H, 7AH, 7BH, 0DBH, 0EAH, 4EH
   \              EA4E        
   \   000022C4   C9FF1F3A79AC       DC8 0C9H, 0FFH, 1FH, 3AH, 79H, 0ACH, 0FEH, 0E7H
   \              FEE7        
   \   000022CC   7CFE72CA5BAD       DC8 7CH, 0FEH, 72H, 0CAH, 5BH, 0ADH, 54H, 7AH
   \              547A        
   \   000022D4   7AD994E38D30       DC8 7AH, 0D9H, 94H, 0E3H, 8DH, 30H, 0DEH, 6AH
   \              DE6A        
   \   000022DC   85C254DD6D71       DC8 85H, 0C2H, 54H, 0DDH, 6DH, 71H, 9BH, 9AH
   \              9B9A        
   \   000022E4   FF2D35F9DEFE       DC8 0FFH, 2DH, 35H, 0F9H, 0DEH, 0FEH, 7DH, 0F8H
   \              7DF8        
   \   000022EC   5B800100A157       DC8 5BH, 80H, 1, 0, 0A1H, 57H, 0B4H, 0EDH
   \              B4ED        
   \   000022F4   1C13DED10000       DC8 1CH, 13H, 0DEH, 0D1H, 0, 0, 0, 0
   \              0000        
   \   000022FC   49454E44AE42       DC8 49H, 45H, 4EH, 44H, 0AEH, 42H, 60H, 82H
   \              6082        
   \   00002304   00                 DC8 0
   \   00002305   000000             DC8 0, 0, 0
   \                     `?<Initializer for IMAGE_PNG>`:
   \   00002308   89504E470D0A       DC8 89H, 50H, 4EH, 47H, 0DH, 0AH, 1AH, 0AH
   \              1A0A        
   \   00002310   0000000D4948       DC8 0, 0, 0, 0DH, 49H, 48H, 44H, 52H
   \              4452        
   \   00002318   000001000000       DC8 0, 0, 1, 0, 0, 0, 0, 10H
   \              0010        
   \   00002320   0803000000CE       DC8 8, 3, 0, 0, 0, 0CEH, 0DH, 51H
   \              0D51        
   \   00002328   7B0000001974       DC8 7BH, 0, 0, 0, 19H, 74H, 45H, 58H
   \              4558        
   \   00002330   74536F667477       DC8 74H, 53H, 6FH, 66H, 74H, 77H, 61H, 72H
   \              6172        
   \   00002338   650041646F62       DC8 65H, 0, 41H, 64H, 6FH, 62H, 65H, 20H
   \              6520        
   \   00002340   496D61676552       DC8 49H, 6DH, 61H, 67H, 65H, 52H, 65H, 61H
   \              6561        
   \   00002348   647971C9653C       DC8 64H, 79H, 71H, 0C9H, 65H, 3CH, 0, 0
   \              0000        
   \   00002350   0300504C5445       DC8 3, 0, 50H, 4CH, 54H, 45H, 0E4H, 9AH
   \              E49A        
   \   00002358   2D52AF24FAFA       DC8 2DH, 52H, 0AFH, 24H, 0FAH, 0FAH, 0FAH, 73H
   \              FA73        
   \   00002360   7272B7DCB18C       DC8 72H, 72H, 0B7H, 0DCH, 0B1H, 8CH, 73H, 65H
   \              7365        
   \   00002368   E9E8E8008647       DC8 0E9H, 0E8H, 0E8H, 0, 86H, 47H, 4DH, 92H
   \              4D92        
   \   00002370   D88B55552E99       DC8 0D8H, 8BH, 55H, 55H, 2EH, 99H, 6, 9BH
   \              069B        
   \   00002378   C2E7499C47F5       DC8 0C2H, 0E7H, 49H, 9CH, 47H, 0F5H, 95H, 94H
   \              9594        
   \   00002380   006201ECD401       DC8 0, 62H, 1, 0ECH, 0D4H, 1, 0E6H, 0CFH
   \              E6CF        
   \   00002388   E503A700DAA9       DC8 0E5H, 3, 0A7H, 0, 0DAH, 0A9H, 0CEH, 77H
   \              CE77        
   \   00002390   6F8C8DDB3FC5       DC8 6FH, 8CH, 8DH, 0DBH, 3FH, 0C5H, 7BH, 73H
   \              7B73        
   \   00002398   8478847A677B       DC8 84H, 78H, 84H, 7AH, 67H, 7BH, 4CH, 0A1H
   \              4CA1        
   \   000023A0   17FEE7010050       DC8 17H, 0FEH, 0E7H, 1, 0, 50H, 0, 41H
   \              0041        
   \   000023A8   3D37FEFE72F6       DC8 3DH, 37H, 0FEH, 0FEH, 72H, 0F6H, 0F5H, 0F5H
   \              F5F5        
   \   000023B0   C5BD72EDE98E       DC8 0C5H, 0BDH, 72H, 0EDH, 0E9H, 8EH, 0DAH, 0D8H
   \              DAD8        
   \   000023B8   D8D9D5CAEEED       DC8 0D8H, 0D9H, 0D5H, 0CAH, 0EEH, 0EDH, 0EEH, 0FBH
   \              EEFB        
   \   000023C0   F4A785847AD4       DC8 0F4H, 0A7H, 85H, 84H, 7AH, 0D4H, 0A3H, 0A3H
   \              A3A3        
   \   000023C8   CFC8BB589962       DC8 0CFH, 0C8H, 0BBH, 58H, 99H, 62H, 58H, 0C7H
   \              58C7        
   \   000023D0   5A988C67A059       DC8 5AH, 98H, 8CH, 67H, 0A0H, 59H, 59H, 7AH
   \              597A        
   \   000023D8   B57BD3CFCFB5       DC8 0B5H, 7BH, 0D3H, 0CFH, 0CFH, 0B5H, 0C6H, 0E6H
   \              C6E6        
   \   000023E0   EDE44FC2B8A8       DC8 0EDH, 0E4H, 4FH, 0C2H, 0B8H, 0A8H, 1AH, 62H
   \              1A62        
   \   000023E8   3FFEFB64CD94       DC8 3FH, 0FEH, 0FBH, 64H, 0CDH, 94H, 94H, 0E7H
   \              94E7        
   \   000023F0   DFBEFDF496CB       DC8 0DFH, 0BEH, 0FDH, 0F4H, 96H, 0CBH, 0B6H, 0B6H
   \              B6B6        
   \   000023F8   FAF2016679BB       DC8 0FAH, 0F2H, 1, 66H, 79H, 0BBH, 0A5H, 84H
   \              A584        
   \   00002400   A56894786ED5       DC8 0A5H, 68H, 94H, 78H, 6EH, 0D5H, 70H, 0
   \              7000        
   \   00002408   6FD6F1F0F1E9       DC8 6FH, 0D6H, 0F1H, 0F0H, 0F1H, 0E9H, 0ABH, 47H
   \              AB47        
   \   00002410   AAC2E5867C7C       DC8 0AAH, 0C2H, 0E5H, 86H, 7CH, 7CH, 0, 9AH
   \              009A        
   \   00002418   FFB0D89A4E4D       DC8 0FFH, 0B0H, 0D8H, 9AH, 4EH, 4DH, 4DH, 0E0H
   \              4DE0        
   \   00002420   DA6D006A2641       DC8 0DAH, 6DH, 0, 6AH, 26H, 41H, 0BBH, 1EH
   \              BB1E        
   \   00002428   00B400327B29       DC8 0, 0B4H, 0, 32H, 7BH, 29H, 1, 1
   \              0101        
   \   00002430   01ADB6DDADB5       DC8 1, 0ADH, 0B6H, 0DDH, 0ADH, 0B5H, 0ADH, 0D3H
   \              ADD3        
   \   00002438   CCC0009700F7       DC8 0CCH, 0C0H, 0, 97H, 0, 0F7H, 0A4H, 0A6H
   \              A4A6        
   \   00002440   E7C38BB96D6D       DC8 0E7H, 0C3H, 8BH, 0B9H, 6DH, 6DH, 0F1H, 0F1H
   \              F1F1        
   \   00002448   ECFDF5A0F7F6       DC8 0ECH, 0FDH, 0F5H, 0A0H, 0F7H, 0F6H, 0F3H, 49H
   \              F349        
   \   00002450   BF4D00C50037       DC8 0BFH, 4DH, 0, 0C5H, 0, 37H, 80H, 2DH
   \              802D        
   \   00002458   00DA005474B4       DC8 0, 0DAH, 0, 54H, 74H, 0B4H, 0F7H, 0EAH
   \              F7EA        
   \   00002460   DE0B78B3E5B6       DC8 0DEH, 0BH, 78H, 0B3H, 0E5H, 0B6H, 0D5H, 0FCH
   \              D5FC        
   \   00002468   FCFBFFEF9CFE       DC8 0FCH, 0FBH, 0FFH, 0EFH, 9CH, 0FEH, 0FEH, 1
   \              FE01        
   \   00002470   74D74BA24E4E       DC8 74H, 0D7H, 4BH, 0A2H, 4EH, 4EH, 0D3H, 9BH
   \              D39B        
   \   00002478   C615A62EB9F7       DC8 0C6H, 15H, 0A6H, 2EH, 0B9H, 0F7H, 0B5H, 3
   \              B503        
   \   00002480   87BAEDE66503       DC8 87H, 0BAH, 0EDH, 0E6H, 65H, 3, 73H, 1
   \              7301        
   \   00002488   B6B6B6E5E1DA       DC8 0B6H, 0B6H, 0B6H, 0E5H, 0E1H, 0DAH, 0AEH, 0D6H
   \              AED6        
   \   00002490   94119A90F8AC       DC8 94H, 11H, 9AH, 90H, 0F8H, 0ACH, 0A5H, 0AAH
   \              A5AA        
   \   00002498   D488FFEF94EE       DC8 0D4H, 88H, 0FFH, 0EFH, 94H, 0EEH, 0E6H, 0E5H
   \              E6E5        
   \   000024A0   EDE97EF7B14B       DC8 0EDH, 0E9H, 7EH, 0F7H, 0B1H, 4BH, 30H, 0B6H
   \              30B6        
   \   000024A8   152C2A25737B       DC8 15H, 2CH, 2AH, 25H, 73H, 7BH, 7BH, 53H
   \              7B53        
   \   000024B0   645BEDE901D9       DC8 64H, 5BH, 0EDH, 0E9H, 1, 0D9H, 0A1H, 0C9H
   \              A1C9        
   \   000024B8   F0F8F09BBAE1       DC8 0F0H, 0F8H, 0F0H, 9BH, 0BAH, 0E1H, 0FEH, 0FEH
   \              FEFE        
   \   000024C0   976C647C737B       DC8 97H, 6CH, 64H, 7CH, 73H, 7BH, 73H, 0FEH
   \              73FE        
   \   000024C8   FE7F0082009C       DC8 0FEH, 7FH, 0, 82H, 0, 9CH, 73H, 6BH
   \              736B        
   \   000024D0   52A55A8C7B5C       DC8 52H, 0A5H, 5AH, 8CH, 7BH, 5CH, 53H, 64H
   \              5364        
   \   000024D8   530057C66B84       DC8 53H, 0, 57H, 0C6H, 6BH, 84H, 73H, 0A3H
   \              73A3        
   \   000024E0   BBE2846B8494       DC8 0BBH, 0E2H, 84H, 6BH, 84H, 94H, 7CH, 74H
   \              7C74        
   \   000024E8   5A645A3187BA       DC8 5AH, 64H, 5AH, 31H, 87H, 0BAH, 0C1H, 0E1H
   \              C1E1        
   \   000024F0   C6D9EDDBCFCE       DC8 0C6H, 0D9H, 0EDH, 0DBH, 0CFH, 0CEH, 0CEH, 0DEH
   \              CEDE        
   \   000024F8   AED1EFEEE6E0       DC8 0AEH, 0D1H, 0EFH, 0EEH, 0E6H, 0E0H, 0F0H, 0E3H
   \              F0E3        
   \   00002500   3A7C42526B52       DC8 3AH, 7CH, 42H, 52H, 6BH, 52H, 5FH, 8CH
   \              5F8C        
   \   00002508   6B747479437C       DC8 6BH, 74H, 74H, 79H, 43H, 7CH, 4BH, 4AH
   \              4B4A        
   \   00002510   7353526B5BFF       DC8 73H, 53H, 52H, 6BH, 5BH, 0FFH, 0FFH, 0FFH
   \              FFFF        
   \   00002518   F0EFEFB5B5B5       DC8 0F0H, 0EFH, 0EFH, 0B5H, 0B5H, 0B5H, 1AH, 64H
   \              1A64        
   \   00002520   9CA8A2A28080       DC8 9CH, 0A8H, 0A2H, 0A2H, 80H, 80H, 80H, 0B1H
   \              80B1        
   \   00002528   ACAC472207B5       DC8 0ACH, 0ACH, 47H, 22H, 7, 0B5H, 0B5H, 0B6H
   \              B5B6        
   \   00002530   E2E0E0BBB7B7       DC8 0E2H, 0E0H, 0E0H, 0BBH, 0B7H, 0B7H, 6DH, 0B5H
   \              6DB5        
   \   00002538   D0C7C3C3BA7F       DC8 0D0H, 0C7H, 0C3H, 0C3H, 0BAH, 7FH, 29H, 0B5H
   \              29B5        
   \   00002540   B6B6ADCFEFDF       DC8 0B6H, 0B6H, 0ADH, 0CFH, 0EFH, 0DFH, 0DDH, 0E0H
   \              DDE0        
   \   00002548   97969660CB2E       DC8 97H, 96H, 96H, 60H, 0CBH, 2EH, 57H, 0C5H
   \              57C5        
   \   00002550   08E7E6E8005E       DC8 8, 0E7H, 0E6H, 0E8H, 0, 5EH, 68H, 3AH
   \              683A        
   \   00002558   A8031F8C1F01       DC8 0A8H, 3, 1FH, 8CH, 1FH, 1, 7BH, 0E6H
   \              7BE6        
   \   00002560   68D33600FF00       DC8 68H, 0D3H, 36H, 0, 0FFH, 0, 9AH, 0EAH
   \              9AEA        
   \   00002568   48366278F0F0       DC8 48H, 36H, 62H, 78H, 0F0H, 0F0H, 0F0H, 7EH
   \              F07E        
   \   00002570   3C0B78E33F41       DC8 3CH, 0BH, 78H, 0E3H, 3FH, 41H, 7BH, 1EH
   \              7B1E        
   \   00002578   F3D29C1F791E       DC8 0F3H, 0D2H, 9CH, 1FH, 79H, 1EH, 26H, 72H
   \              2672        
   \   00002580   C67B7373F0F7       DC8 0C6H, 7BH, 73H, 73H, 0F0H, 0F7H, 0F0H, 0FDH
   \              F0FD        
   \   00002588   FCFDB6B6B563       DC8 0FCH, 0FDH, 0B6H, 0B6H, 0B5H, 63H, 0CBH, 1BH
   \              CB1B        
   \   00002590   F7A49CF4A037       DC8 0F7H, 0A4H, 9CH, 0F4H, 0A0H, 37H, 74H, 6BH
   \              746B        
   \   00002598   6E948787714C       DC8 6EH, 94H, 87H, 87H, 71H, 4CH, 4CH, 5DH
   \              4C5D        
   \   000025A0   4545DCB2B2E2       DC8 45H, 45H, 0DCH, 0B2H, 0B2H, 0E2H, 0BEH, 0BCH
   \              BEBC        
   \   000025A8   97C3DF629C6B       DC8 97H, 0C3H, 0DFH, 62H, 9CH, 6BH, 1EH, 8AH
   \              1E8A        
   \   000025B0   02B6D8FA2DA6       DC8 2, 0B6H, 0D8H, 0FAH, 2DH, 0A6H, 6, 0DBH
   \              06DB        
   \   000025B8   8F25E6E5E793       DC8 8FH, 25H, 0E6H, 0E5H, 0E7H, 93H, 0BEH, 0D7H
   \              BED7        
   \   000025C0   B2A0A08CDF68       DC8 0B2H, 0A0H, 0A0H, 8CH, 0DFH, 68H, 68H, 0CFH
   \              68CF        
   \   000025C8   36E4E3E54FC7       DC8 36H, 0E4H, 0E3H, 0E5H, 4FH, 0C7H, 26H, 11H
   \              2611        
   \   000025D0   A41100399CEE       DC8 0A4H, 11H, 0, 39H, 9CH, 0EEH, 0B5H, 0ADH
   \              B5AD        
   \   000025D8   60CBFFAD8CAD       DC8 60H, 0CBH, 0FFH, 0ADH, 8CH, 0ADH, 0EBH, 0EAH
   \              EBEA        
   \   000025E0   EBEFEFEF8276       DC8 0EBH, 0EFH, 0EFH, 0EFH, 82H, 76H, 6BH, 0C5H
   \              6BC5        
   \   000025E8   BDD6DEC5D67B       DC8 0BDH, 0D6H, 0DEH, 0C5H, 0D6H, 7BH, 0B5H, 84H
   \              B584        
   \   000025F0   ADEF9C006615       DC8 0ADH, 0EFH, 9CH, 0, 66H, 15H, 0, 72H
   \              0072        
   \   000025F8   15DDBDDA1990       DC8 15H, 0DDH, 0BDH, 0DAH, 19H, 90H, 19H, 3FH
   \              193F        
   \   00002600   8A840046B5FD       DC8 8AH, 84H, 0, 46H, 0B5H, 0FDH, 0EEH, 0F4H
   \              EEF4        
   \   00002608   007660F9BCB5       DC8 0, 76H, 60H, 0F9H, 0BCH, 0B5H, 0AFH, 5DH
   \              AF5D        
   \   00002610   5DEEDDCE3FA7       DC8 5DH, 0EEH, 0DDH, 0CEH, 3FH, 0A7H, 17H, 0E6H
   \              17E6        
   \   00002618   9512CECE6AED       DC8 95H, 12H, 0CEH, 0CEH, 6AH, 0EDH, 0D8H, 3BH
   \              D83B        
   \   00002620   F0E7CFFFF7F6       DC8 0F0H, 0E7H, 0CFH, 0FFH, 0F7H, 0F6H, 9CH, 0EBH
   \              9CEB        
   \   00002628   AD0092DE268A       DC8 0ADH, 0, 92H, 0DEH, 26H, 8AH, 0CEH, 26H
   \              CE26        
   \   00002630   B2FFEFE4EEF0       DC8 0B2H, 0FFH, 0EFH, 0E4H, 0EEH, 0F0H, 0EFH, 0E6H
   \              EFE6        
   \   00002638   E0C401007A3F       DC8 0E0H, 0C4H, 1, 0, 7AH, 3FH, 6EH, 0AEH
   \              6EAE        
   \   00002640   42B5B6B5EFF0       DC8 42H, 0B5H, 0B6H, 0B5H, 0EFH, 0F0H, 0ADH, 0FBH
   \              ADFB        
   \   00002648   F6B7E5E0E5F7       DC8 0F6H, 0B7H, 0E5H, 0E0H, 0E5H, 0F7H, 0F7H, 0F5H
   \              F7F5        
   \   00002650   4F7294FFFFFF       DC8 4FH, 72H, 94H, 0FFH, 0FFH, 0FFH, 4AH, 54H
   \              4A54        
   \   00002658   526F00000100       DC8 52H, 6FH, 0, 0, 1, 0, 74H, 52H
   \              7452        
   \   00002660   4E53FFFFFFFF       DC8 4EH, 53H, 0FFH, 0FFH, 0FFH, 0FFH, 0FFH, 0FFH
   \              FFFF        
   \   00002668   FFFFFFFFFFFF       DC8 0FFH, 0FFH, 0FFH, 0FFH, 0FFH, 0FFH, 0FFH, 0FFH
   \              FFFF        
   \   00002670   FFFFFFFFFFFF       DC8 0FFH, 0FFH, 0FFH, 0FFH, 0FFH, 0FFH, 0FFH, 0FFH
   \              FFFF        
   \   00002678   FFFFFFFFFFFF       DC8 0FFH, 0FFH, 0FFH, 0FFH, 0FFH, 0FFH, 0FFH, 0FFH
   \              FFFF        
   \   00002680   FFFFFFFFFFFF       DC8 0FFH, 0FFH, 0FFH, 0FFH, 0FFH, 0FFH, 0FFH, 0FFH
   \              FFFF        
   \   00002688   FFFFFFFFFFFF       DC8 0FFH, 0FFH, 0FFH, 0FFH, 0FFH, 0FFH, 0FFH, 0FFH
   \              FFFF        
   \   00002690   FFFFFFFFFFFF       DC8 0FFH, 0FFH, 0FFH, 0FFH, 0FFH, 0FFH, 0FFH, 0FFH
   \              FFFF        
   \   00002698   FFFFFFFFFFFF       DC8 0FFH, 0FFH, 0FFH, 0FFH, 0FFH, 0FFH, 0FFH, 0FFH
   \              FFFF        
   \   000026A0   FFFFFFFFFFFF       DC8 0FFH, 0FFH, 0FFH, 0FFH, 0FFH, 0FFH, 0FFH, 0FFH
   \              FFFF        
   \   000026A8   FFFFFFFFFFFF       DC8 0FFH, 0FFH, 0FFH, 0FFH, 0FFH, 0FFH, 0FFH, 0FFH
   \              FFFF        
   \   000026B0   FFFFFFFFFFFF       DC8 0FFH, 0FFH, 0FFH, 0FFH, 0FFH, 0FFH, 0FFH, 0FFH
   \              FFFF        
   \   000026B8   FFFFFFFFFFFF       DC8 0FFH, 0FFH, 0FFH, 0FFH, 0FFH, 0FFH, 0FFH, 0FFH
   \              FFFF        
   \   000026C0   FFFFFFFFFFFF       DC8 0FFH, 0FFH, 0FFH, 0FFH, 0FFH, 0FFH, 0FFH, 0FFH
   \              FFFF        
   \   000026C8   FFFFFFFFFFFF       DC8 0FFH, 0FFH, 0FFH, 0FFH, 0FFH, 0FFH, 0FFH, 0FFH
   \              FFFF        
   \   000026D0   FFFFFFFFFFFF       DC8 0FFH, 0FFH, 0FFH, 0FFH, 0FFH, 0FFH, 0FFH, 0FFH
   \              FFFF        
   \   000026D8   FFFFFFFFFFFF       DC8 0FFH, 0FFH, 0FFH, 0FFH, 0FFH, 0FFH, 0FFH, 0FFH
   \              FFFF        
   \   000026E0   FFFFFFFFFFFF       DC8 0FFH, 0FFH, 0FFH, 0FFH, 0FFH, 0FFH, 0FFH, 0FFH
   \              FFFF        
   \   000026E8   FFFFFFFFFFFF       DC8 0FFH, 0FFH, 0FFH, 0FFH, 0FFH, 0FFH, 0FFH, 0FFH
   \              FFFF        
   \   000026F0   FFFFFFFFFFFF       DC8 0FFH, 0FFH, 0FFH, 0FFH, 0FFH, 0FFH, 0FFH, 0FFH
   \              FFFF        
   \   000026F8   FFFFFFFFFFFF       DC8 0FFH, 0FFH, 0FFH, 0FFH, 0FFH, 0FFH, 0FFH, 0FFH
   \              FFFF        
   \   00002700   FFFFFFFFFFFF       DC8 0FFH, 0FFH, 0FFH, 0FFH, 0FFH, 0FFH, 0FFH, 0FFH
   \              FFFF        
   \   00002708   FFFFFFFFFFFF       DC8 0FFH, 0FFH, 0FFH, 0FFH, 0FFH, 0FFH, 0FFH, 0FFH
   \              FFFF        
   \   00002710   FFFFFFFFFFFF       DC8 0FFH, 0FFH, 0FFH, 0FFH, 0FFH, 0FFH, 0FFH, 0FFH
   \              FFFF        
   \   00002718   FFFFFFFFFFFF       DC8 0FFH, 0FFH, 0FFH, 0FFH, 0FFH, 0FFH, 0FFH, 0FFH
   \              FFFF        
   \   00002720   FFFFFFFFFFFF       DC8 0FFH, 0FFH, 0FFH, 0FFH, 0FFH, 0FFH, 0FFH, 0FFH
   \              FFFF        
   \   00002728   FFFFFFFFFFFF       DC8 0FFH, 0FFH, 0FFH, 0FFH, 0FFH, 0FFH, 0FFH, 0FFH
   \              FFFF        
   \   00002730   FFFFFFFFFFFF       DC8 0FFH, 0FFH, 0FFH, 0FFH, 0FFH, 0FFH, 0FFH, 0FFH
   \              FFFF        
   \   00002738   FFFFFFFFFFFF       DC8 0FFH, 0FFH, 0FFH, 0FFH, 0FFH, 0FFH, 0FFH, 0FFH
   \              FFFF        
   \   00002740   FFFFFFFFFFFF       DC8 0FFH, 0FFH, 0FFH, 0FFH, 0FFH, 0FFH, 0FFH, 0FFH
   \              FFFF        
   \   00002748   FFFFFFFFFFFF       DC8 0FFH, 0FFH, 0FFH, 0FFH, 0FFH, 0FFH, 0FFH, 0FFH
   \              FFFF        
   \   00002750   FFFFFFFFFFFF       DC8 0FFH, 0FFH, 0FFH, 0FFH, 0FFH, 0FFH, 0FFH, 0FFH
   \              FFFF        
   \   00002758   FFFFFFFFFFFF       DC8 0FFH, 0FFH, 0FFH, 0FFH, 0FFH, 0FFH, 0FFH, 0FFH
   \              FFFF        
   \   00002760   FF0053F70725       DC8 0FFH, 0, 53H, 0F7H, 7, 25H, 0, 0
   \              0000        
   \   00002768   06AB49444154       DC8 6, 0ABH, 49H, 44H, 41H, 54H, 78H, 0DAH
   \              78DA        
   \   00002770   E497795C9375       DC8 0E4H, 97H, 79H, 5CH, 93H, 75H, 1CH, 0C7H
   \              1CC7        
   \   00002778   670352C2D990       DC8 67H, 3, 52H, 0C2H, 0D9H, 90H, 0DH, 0D9H
   \              0DD9        
   \   00002780   DAE252444085       DC8 0DAH, 0E2H, 52H, 44H, 40H, 85H, 8AH, 0DH
   \              8A0D        
   \   00002788   096833707218       DC8 9, 68H, 33H, 70H, 72H, 18H, 1EH, 0D3H
   \              1ED3        
   \   00002790   54B43C9849A1       DC8 54H, 0B4H, 3CH, 98H, 49H, 0A1H, 18H, 0A6H
   \              18A6        
   \   00002798   1916581C1EA1       DC8 19H, 16H, 58H, 1CH, 1EH, 0A1H, 0A0H, 0FEH
   \              A0FE        
   \   000027A0   362207E19622       DC8 36H, 22H, 7, 0E1H, 96H, 22H, 47H, 20H
   \              4720        
   \   000027A8   5E056A9E785F       DC8 5EH, 5, 6AH, 9EH, 78H, 5FH, 0D9H, 21H
   \              D921        
   \   000027B0   74DF765FDAA9       DC8 74H, 0DFH, 76H, 5FH, 0DAH, 0A9H, 3DH, 7DH
   \              3D7D        
   \   000027B8   BFBFE7D99E67       DC8 0BFH, 0BFH, 0E7H, 0D9H, 9EH, 67H, 20H, 56H
   \              2056        
   \   000027C0   FED5EBD5FBC5       DC8 0FEH, 0D5H, 0EBH, 0D5H, 0FBH, 0C5H, 0B3H, 3DH
   \              B33D        
   \   000027C8   9F67CF6BECFB       DC8 9FH, 67H, 0CFH, 6BH, 0ECH, 0FBH, 7EH, 0BEH
   \              7EBE        
   \   000027D0   DFE71031FF73       DC8 0DFH, 0E7H, 10H, 31H, 0FFH, 73H, 44H, 0DCH
   \              44DC        
   \   000027D8   BBC160106E96       DC8 0BBH, 0C1H, 60H, 10H, 6EH, 96H, 48H, 24H
   \              4824        
   \   000027E0   8C4421B9C12F       DC8 8CH, 44H, 21H, 0B9H, 0C1H, 2FH, 0DDH, 88H
   \              DD88        
   \   000027E8   08B2D168E45E       DC8 8, 0B2H, 0D1H, 68H, 0E4H, 5EH, 4, 0DFH
   \              04DF        
   \   000027F0   2FE9E9DBC378       DC8 2FH, 0E9H, 0E9H, 0DBH, 0C3H, 78H, 68H, 0D6H
   \              68D6        
   \   000027F8   F2D0ACE6A159       DC8 0F2H, 0D0H, 0ACH, 0E6H, 0A1H, 59H, 0C6H, 43H
   \              C643        
   \   00002800   B38607E326BD       DC8 0B3H, 86H, 7, 0E3H, 26H, 0BDH, 80H, 4DH
   \              804D        
   \   00002808   DDB253C036A1       DC8 0DDH, 0B2H, 53H, 0C0H, 36H, 0A1H, 0, 0C9H
   \              00C9        
   \   00002810   8489525C1437       DC8 84H, 89H, 52H, 5CH, 14H, 37H, 56H, 0FFH
   \              56FF        
   \   00002818   89B8B8B81302       DC8 89H, 0B8H, 0B8H, 0B8H, 13H, 2, 3, 0C6H
   \              03C6        
   \   00002820   E6FA51A39A6B       DC8 0E6H, 0FAH, 51H, 0A3H, 9AH, 6BH, 85H, 2
   \              8502        
   \   00002828   A452A9438058       DC8 0A4H, 52H, 0A9H, 43H, 80H, 58H, 0, 0D6H
   \              00D6        
   \   00002830   4F78D0805690       DC8 4FH, 78H, 0D0H, 80H, 56H, 90H, 0D1H, 80H
   \              D180        
   \   00002838   5A90D1804C90       DC8 5AH, 90H, 0D1H, 80H, 4CH, 90H, 0D1H, 80H
   \              D180        
   \   00002840   4690D1805E90       DC8 46H, 90H, 0D1H, 80H, 5EH, 90H, 89H, 0BEH
   \              89BE        
   \   00002848   5BEE41C0C44A       DC8 5BH, 0EEH, 41H, 0C0H, 0C4H, 4AH, 24H, 0C9H
   \              24C9        
   \   00002850   2940C9B2A0A7       DC8 29H, 40H, 0C9H, 0B2H, 0A0H, 0A7H, 0ECH, 2AH
   \              EC2A        
   \   00002858   206EE7CE9D71       DC8 20H, 6EH, 0E7H, 0CEH, 9DH, 71H, 1BH, 0F9H
   \              1BF9        
   \   00002860   E33FA0F668AD       DC8 0E3H, 3FH, 0A0H, 0F6H, 68H, 0ADH, 0E7H, 9EH
   \              E79E        
   \   00002868   7A470FE0D14F       DC8 7AH, 47H, 0FH, 0E0H, 0D1H, 4FH, 4CH, 4CH
   \              4C4C        
   \   00002870   E49A402CFC41       DC8 0E4H, 9AH, 40H, 2CH, 0FCH, 41H, 62H, 26H
   \              6226        
   \   00002878   ECD3D6D6D645       DC8 0ECH, 0D3H, 0D6H, 0D6H, 0D6H, 45H, 0ADH, 8BH
   \              AD8B        
   \   00002880   80D645BA3046       DC8 80H, 0D6H, 45H, 0BAH, 30H, 46H, 0FBH, 5DH
   \              FB5D        
   \   00002888   8BB9C56C3677       DC8 8BH, 0B9H, 0C5H, 6CH, 36H, 77H, 0B4H, 0C0H
   \              B4C0        
   \   00002890   BBB79651AB3A       DC8 0BBH, 0B7H, 96H, 51H, 0ABH, 3AH, 0CCH, 0B0H
   \              CCB0        
   \   00002898   A1A303FF32D4       DC8 0A1H, 0A3H, 3, 0FFH, 32H, 0D4H, 8CH, 4CH
   \              8C4C        
   \   000028A0   059F4208C42D       DC8 5, 9FH, 42H, 8, 0C4H, 2DH, 69H, 32H
   \              6932        
   \   000028A8   4673B5A5A303       DC8 46H, 73H, 0B5H, 0A5H, 0A3H, 3, 0D7H, 5BH
   \              D75B        
   \   000028B0   CC81E67830A0       DC8 0CCH, 81H, 0E6H, 78H, 30H, 0A0H, 9FH, 2AH
   \              9F2A        
   \   000028B8   40DF2D8B9805       DC8 40H, 0DFH, 2DH, 8BH, 98H, 5, 6, 0CAH
   \              06CA        
   \   000028C0   36F66D01FD81       DC8 36H, 0F6H, 6DH, 1, 0FDH, 81H, 13H, 2AH
   \              132A        
   \   000028C8   E9CFA96C52B0       DC8 0E9H, 0CFH, 0A9H, 6CH, 52H, 0B0H, 0AH, 94H
   \              0A94        
   \   000028D0   DCEF1BA764AE       DC8 0DCH, 0EFH, 1BH, 0A7H, 64H, 0AEH, 99H, 0BBH
   \              99BB        
   \   000028D8   0A401C028CBF       DC8 0AH, 40H, 1CH, 2, 8CH, 0BFH, 7AH, 19H
   \              7A19        
   \   000028E0   3D4140ED5163       DC8 3DH, 41H, 40H, 0EDH, 51H, 63H, 2FH, 4FH
   \              2F4F        
   \   000028E8   6AC02ED9CC92       DC8 6AH, 0C0H, 2EH, 0D9H, 0CCH, 92H, 69H, 47H
   \              6947        
   \   000028F0   016DED25ED6D       DC8 1, 6DH, 0EDH, 25H, 0EDH, 6DH, 6CH, 3
   \              6C03        
   \   000028F8   B48100525A5A       DC8 0B4H, 81H, 0, 52H, 5AH, 5AH, 0FAH, 34H
   \              FA34        
   \   00002900   A5B4541796AC       DC8 0A5H, 0B4H, 54H, 17H, 96H, 0ACH, 25H, 50H
   \              2550        
   \   00002908   D013948E0E6F       DC8 0D0H, 13H, 94H, 8EH, 0EH, 6FH, 0EDH, 6EH
   \              ED6E        
   \   00002910   3581C21EA598       DC8 35H, 81H, 0C2H, 1EH, 0A5H, 98H, 41H, 80H
   \              4180        
   \   00002918   4546A05C2EB7       DC8 45H, 46H, 0A0H, 5CH, 2EH, 0B7H, 0A4H, 0C9H
   \              A4C9        
   \   00002920   4C1A027ED8FD       DC8 4CH, 1AH, 2, 7EH, 0D8H, 0FDH, 0CDH, 2DH
   \              CD2D        
   \   00002928   F11A0BA357A9       DC8 0F1H, 1AH, 0BH, 0A3H, 57H, 0A9H, 0F6H, 9FH
   \              F69F        
   \   00002930   BE0B38BD5FA5       DC8 0BEH, 0BH, 38H, 0BDH, 5FH, 0A5H, 42H, 1
   \              4201        
   \   00002938   2A0128C030F2       DC8 2AH, 1, 28H, 0C0H, 30H, 0F2H, 76H, 0
   \              7600        
   \   00002940   04CC0346421F       DC8 4, 0CCH, 3, 46H, 42H, 1FH, 48H, 9AH
   \              489A        
   \   00002948   9AA07E900106       DC8 9AH, 0A0H, 7EH, 90H, 1, 6, 26H, 0B0H
   \              26B0        
   \   00002950   53A0647D8D73       DC8 53H, 0A0H, 64H, 7DH, 8DH, 73H, 0AH, 80H
   \              0A80        
   \   00002958   A054F2B98B80       DC8 0A0H, 54H, 0F2H, 0B9H, 8BH, 80H, 0F9H, 0F3H
   \              F9F3        
   \   00002960   E7C75500AC00       DC8 0E7H, 0C7H, 55H, 0, 0ACH, 0, 9FH, 0DAH
   \              9FDA        
   \   00002968   01464FCF515F       DC8 1, 46H, 4FH, 0CFH, 51H, 5FH, 1AH, 7BH
   \              1A7B        
   \   00002970   D51E47017575       DC8 0D5H, 1EH, 47H, 1, 75H, 75H, 0F6H, 0CCH
   \              F6CC        
   \   00002978   97904CFBEB28       DC8 97H, 90H, 4CH, 0FBH, 0EBH, 28H, 0E0H, 0A6H
   \              E0A6        
   \   00002980   92C9253771A0       DC8 92H, 0C9H, 25H, 37H, 71H, 0A0H, 80H, 15H
   \              8015        
   \   00002988   2BCA96C700CB       DC8 2BH, 0CAH, 96H, 0C7H, 0, 0CBH, 0CBH, 56H
   \              CB56        
   \   00002990   5001972E89C3       DC8 50H, 1, 97H, 2EH, 89H, 0C3H, 0E5H, 40H
   \              E540        
   \   00002998   B8F892B7D6A2       DC8 0B8H, 0F8H, 92H, 0B7H, 0D6H, 0A2H, 26H, 97H
   \              2697        
   \   000029A0   9F1507040301       DC8 9FH, 15H, 7, 4, 3, 1, 0E2H, 0CBH
   \              E2CB        
   \   000029A8   196A938C6467       DC8 19H, 6AH, 93H, 8CH, 64H, 67H, 8BH, 53H
   \              8B53        
   \   000029B0   128094F2EC34       DC8 12H, 80H, 94H, 0F2H, 0ECH, 34H, 99H, 4DH
   \              994D        
   \   000029B8   03B97C25E695       DC8 3, 0B9H, 7CH, 25H, 0E6H, 95H, 0E2H, 0ECH
   \              E2EC        
   \   000029C0   788D95D19BCD       DC8 78H, 8DH, 95H, 0D1H, 9BH, 0CDH, 0FBH, 6
   \              FB06        
   \   000029C8   1E3A7CF8D0A1       DC8 1EH, 3AH, 7CH, 0F8H, 0D0H, 0A1H, 7DH, 66H
   \              7D66        
   \   000029D0   330A300BA002       DC8 33H, 0AH, 30H, 0BH, 0A0H, 2, 0E6H, 3DH
   \              E63D        
   \   000029D8   0E40BD797979       DC8 0EH, 40H, 0BDH, 79H, 79H, 79H, 0B7H, 0CDH
   \              B7CD        
   \   000029E0   46014949B401       DC8 46H, 1, 49H, 49H, 0B4H, 1, 50H, 80H
   \              5080        
   \   000029E8   349515701548       DC8 34H, 95H, 15H, 70H, 15H, 48H, 4FH, 9FH
   \              4F9F        
   \   000029F0   33C72100A252       DC8 33H, 0C7H, 21H, 0, 0A2H, 52H, 0C9H, 0E7H
   \              C9E7        
   \   000029F8   2E025E052A8E       DC8 2EH, 2, 5EH, 5, 2AH, 8EH, 1DH, 0E3H
   \              1DE3        
   \   00002A00   04D47BD61F37       DC8 4, 0D4H, 7BH, 0D6H, 1FH, 37H, 46H, 47H
   \              4647        
   \   00002A08   1BEBEB3D8F1A       DC8 1BH, 0EBH, 0EBH, 3DH, 8FH, 1AH, 0B1H, 0FEH
   \              B1FE        
   \   00002A10   ADC3ED92EDDB       DC8 0ADH, 0C3H, 0EDH, 92H, 0EDH, 0DBH, 0B7H, 4BH
   \              B74B        
   \   00002A18   ECCB3E791904       DC8 0ECH, 0CBH, 3EH, 79H, 19H, 4, 5CH, 3DH
   \              5C3D        
   \   00002A20   55724AA5C206       DC8 55H, 72H, 4AH, 0A5H, 0C2H, 6, 80H, 57H
   \              8057        
   \   00002A28   266CEA8A3212       DC8 26H, 6CH, 0EAH, 8AH, 32H, 12H, 0B3H, 7CH
   \              B37C        
   \   00002A30   DDBA9818B732       DC8 0DDH, 0BAH, 98H, 18H, 0B7H, 32H, 56H, 80H
   \              5680        
   \   00002A38   98C86F5DBF3E       DC8 98H, 0C8H, 6FH, 5DH, 0BFH, 3EH, 41H, 0FEH
   \              41FE        
   \   00002A40   8E980AB85F4C       DC8 8EH, 98H, 0AH, 0B8H, 5FH, 4CH, 82H, 0BFH
   \              82BF        
   \   00002A48   CDCD0D0EBE43       DC8 0CDH, 0CDH, 0DH, 0EH, 0BEH, 43H, 4CH, 3BH
   \              4C3B        
   \   00002A50   00F317980F8B       DC8 0, 0F3H, 17H, 98H, 0FH, 8BH, 0D3H, 64H
   \              D364        
   \   00002A58   160DB902FBFB       DC8 16H, 0DH, 0B9H, 2, 0FBH, 0FBH, 17H, 17H
   \              1717        
   \   00002A60   CBE56F8B6907       DC8 0CBH, 0E5H, 6FH, 8BH, 69H, 7, 78H, 6CH
   \              786C        
   \   00002A68   D147450D1C18       DC8 0D1H, 47H, 45H, 0DH, 1CH, 18H, 15H, 0A5H
   \              15A5        
   \   00002A70   F7F040011E02       DC8 0F7H, 0F0H, 40H, 1, 1EH, 2, 0A8H, 80H
   \              A880        
   \   00002A78   D979583A1019       DC8 0D9H, 79H, 58H, 3AH, 10H, 19H, 19H, 39H
   \              1939        
   \   00002A80   D44047A092AD       DC8 0D4H, 40H, 47H, 0A0H, 92H, 0ADH, 9FH, 54H
   \              9F54        
   \   00002A88   3A46601C3BF3       DC8 3AH, 46H, 60H, 1CH, 3BH, 0F3H, 4EH, 1
   \              4E01        
   \   00002A90   5D7217012291       DC8 5DH, 72H, 17H, 1, 22H, 91H, 0E8H, 44H
   \              E844        
   \   00002A98   457B7B85F31A       DC8 45H, 7BH, 7BH, 85H, 0F3H, 1AH, 0, 0F5H
   \              00F5        
   \   00002AA0   8301F61C5027       DC8 83H, 1, 0F6H, 1CH, 50H, 27H, 19H, 2EH
   \              192E        
   \   00002AA8   C9B4BF0FF5C7       DC8 0C9H, 0B4H, 0BFH, 0FH, 0F5H, 0C7H, 0C6H, 2EH
   \              C62E        
   \   00002AB0   4301770BC00E       DC8 43H, 1, 77H, 0BH, 0C0H, 0EH, 8, 69H
   \              0869        
   \   00002AB8   2347DE5DBB76       DC8 23H, 47H, 0DEH, 5DH, 0BBH, 76H, 0EDH, 11H
   \              ED11        
   \   00002AC0   E2E68502E024       DC8 0E2H, 0E6H, 85H, 2, 0E0H, 24H, 21H, 7FH
   \              217F        
   \   00002AC8   6BCD9A3572F2       DC8 6BH, 0CDH, 9AH, 35H, 72H, 0F2H, 0A1H, 0AFH
   \              A1AF        
   \   00002AD0   D6AA26AF1012       DC8 0D6H, 0AAH, 26H, 0AFH, 10H, 12H, 0FCH, 75H
   \              FC75        
   \   00002AD8   2E544C7ECF47       DC8 2EH, 54H, 4CH, 7EH, 0CFH, 47H, 1, 90H
   \              0190        
   \   00002AE0   1364C5B9B909       DC8 13H, 64H, 0C5H, 0B9H, 0B9H, 9, 0E4H, 0DH
   \              E40D        
   \   00002AE8   77D96E0DDD7F       DC8 77H, 0D9H, 6EH, 0DH, 0DDH, 7FH, 52H, 31H
   \              5231        
   \   00002AF0   1820A397684C       DC8 18H, 20H, 0A3H, 97H, 68H, 4CH, 8CH, 0BEH
   \              8CBE        
   \   00002AF8   AA4A79F13E44       DC8 0AAH, 4AH, 79H, 0F1H, 3EH, 44H, 79H, 0A5H
   \              79A5        
   \   00002B00   0A055409A002       DC8 0AH, 5, 54H, 9, 0A0H, 2, 86H, 6EH
   \              866E        
   \   00002B08   00223750BEC1       DC8 0, 22H, 37H, 50H, 0BEH, 0C1H, 0EH, 98H
   \              0E98        
   \   00002B10   D854C9CD7865       DC8 0D8H, 54H, 0C9H, 0CDH, 78H, 65H, 12H, 0D7H
   \              12D7        
   \   00002B18   01E95D04A45F       DC8 1, 0E9H, 5DH, 4, 0A4H, 5FH, 4FH, 0
   \              4F00        
   \   00002B20   B311FB1F04D0       DC8 0B3H, 11H, 0FBH, 1FH, 4, 0D0H, 29H, 30H
   \              2930        
   \   00002B28   FAF834EFC10E       DC8 0FAH, 0F8H, 34H, 0EFH, 0C1H, 0EH, 68H, 6EH
   \              686E        
   \   00002B30   F6C10B419D44       DC8 0F6H, 0C1H, 0BH, 41H, 9DH, 44H, 92H, 99H
   \              9299        
   \   00002B38   79B3FD5EFB8C       DC8 79H, 0B3H, 0FDH, 5EH, 0FBH, 8CH, 0F3H, 93H
   \              F393        
   \   00002B40   63978180C031       DC8 63H, 97H, 81H, 80H, 0C0H, 31H, 0A2H, 31H
   \              A231        
   \   00002B48   17D873402076       DC8 17H, 0D8H, 73H, 40H, 20H, 76H, 40H, 88H
   \              4088        
   \   00002B50   1B090959BD3A       DC8 1BH, 9, 9, 59H, 0BDH, 3AH, 24H, 84H
   \              2484        
   \   00002B58   13B06F0A2994       DC8 13H, 0B0H, 6FH, 0AH, 29H, 94H, 17H, 14H
   \              1714        
   \   00002B60   14CAC9145FAD       DC8 14H, 0CAH, 0C9H, 14H, 5FH, 0ADH, 0DH, 4
   \              0D04        
   \   00002B68   0491D0D0DCDC       DC8 4, 91H, 0D0H, 0D0H, 0DCH, 0DCH, 0D0H, 50H
   \              D050        
   \   00002B70   1294AFB68280       DC8 12H, 94H, 0AFH, 0B6H, 82H, 80H, 2CH, 52H
   \              2C52        
   \   00002B78   545450505444       DC8 54H, 54H, 50H, 50H, 54H, 44H, 0B2H, 0DCH
   \              B2DC        
   \   00002B80   7104C4A34979       DC8 71H, 4, 0C4H, 0A3H, 49H, 79H, 0FFH, 82H
   \              FF82        
   \   00002B88   82FE0E01FEFE       DC8 82H, 0FEH, 0EH, 1, 0FEH, 0FEH, 7, 1FH
   \              071F        
   \   00002B90   402E1EF4F747       DC8 40H, 2EH, 1EH, 0F4H, 0F7H, 47H, 1, 0FEH
   \              01FE        
   \   00002B98   02A88085D328       DC8 2, 0A8H, 80H, 85H, 0D3H, 28H, 0D1H, 0D1H
   \              D1D1        
   \   00002BA0   7E7E7EFD0CF4       DC8 7EH, 7EH, 7EH, 0FDH, 0CH, 0F4H, 1AH, 0E8H
   \              1AE8        
   \   00002BA8   EC0087803901       DC8 0ECH, 0, 87H, 80H, 39H, 1, 1, 1
   \              0101        
   \   00002BB0   292983063904       DC8 29H, 29H, 83H, 6, 39H, 4, 40H, 56H
   \              4056        
   \   00002BB8   2AF9ECCA8E1D       DC8 2AH, 0F9H, 0ECH, 0CAH, 8EH, 1DH, 15H, 2FH
   \              152F        
   \   00002BC0   708000E20215       DC8 70H, 80H, 0, 0E2H, 2, 15H, 0F0H, 0C1H
   \              F0C1        
   \   00002BC8   D259F7D8C7E7       DC8 0D2H, 59H, 0F7H, 0D8H, 0C7H, 0E7H, 0E4H, 9CH
   \              E49C        
   \   00002BD0   8F9D05023C44       DC8 8FH, 9DH, 5, 2, 3CH, 44H, 5FH, 89H
   \              5F89        
   \   00002BD8   3CB6503CB003       DC8 3CH, 0B6H, 50H, 3CH, 0B0H, 3, 0DCH, 0BCH
   \              DCBC        
   \   00002BE0   74E42980E8BC       DC8 74H, 0E4H, 29H, 80H, 0E8H, 0BCH, 0E8H, 8
   \              E808        
   \   00002BE8   4C295C450A01       DC8 4CH, 29H, 5CH, 45H, 0AH, 1, 0B2H, 0CAH
   \              B2CA        
   \   00002BF0   D71B3BE08FCE       DC8 0D7H, 1BH, 3BH, 0E0H, 8FH, 0CEH, 0B1H, 60H
   \              B160        
   \   00002BF8   00EA1FDB49CF       DC8 0, 0EAH, 1FH, 0DBH, 49H, 0CFH, 1, 9FH
   \              019F        
   \   00002C00   77EE254F0264       DC8 77H, 0EEH, 25H, 4FH, 2, 64H, 6FH, 27H
   \              6F27        
   \   00002C08   1D8188F26748       DC8 1DH, 81H, 88H, 0F2H, 67H, 48H, 7FH, 0A0H
   \              7FA0        
   \   00002C10   6D71391D81F0       DC8 6DH, 71H, 39H, 1DH, 81H, 0F0H, 0F0H, 3
   \              F003        
   \   00002C18   54C09003E1E1       DC8 54H, 0C0H, 90H, 3, 0E1H, 0E1H, 28H, 20H
   \              2820        
   \   00002C20   5C002B008EFC       DC8 5CH, 0, 2BH, 0, 8EH, 0FCH, 34H, 58H
   \              3458        
   \   00002C28   FC6041010A69       DC8 0FCH, 60H, 41H, 1, 0AH, 69H, 92H, 94H
   \              9294        
   \   00002C30   BB0A485397B2       DC8 0BBH, 0AH, 48H, 53H, 97H, 0B2H, 2, 52H
   \              0252        
   \   00002C38   806180430044       DC8 80H, 61H, 80H, 43H, 0, 44H, 0A5H, 92H
   \              A592        
   \   00002C40   CF2E348C18E1       DC8 0CFH, 2EH, 34H, 8CH, 18H, 0E1H, 22H, 0
   \              2200        
   \   00002C48   4FA78E05046C       DC8 4FH, 0A7H, 8EH, 5, 4, 6CH, 85H, 6
   \              8506        
   \   00002C50   48FDE1A737CF       DC8 48H, 0FDH, 0E1H, 0A7H, 37H, 0CFH, 9EH, 7DH
   \              9E7D        
   \   00002C58   2D67168EC039       DC8 2DH, 67H, 16H, 8EH, 0C0H, 39H, 0E8H, 80H
   \              E880        
   \   00002C60   2B6C079C4301       DC8 2BH, 6CH, 7, 9CH, 43H, 1, 3AH, 9DH
   \              3A9D        
   \   00002C68   D743142F1D15       DC8 0D7H, 43H, 14H, 2FH, 1DH, 15H, 0E0H, 0EDH
   \              E0ED        
   \   00002C70   EDFB18C57715       DC8 0EDH, 0FBH, 18H, 0C5H, 77H, 15H, 3DH, 7
   \              3D07        
   \   00002C78   0405E5DF49C9       DC8 4, 5, 0E5H, 0DFH, 49H, 0C9H, 0FH, 0CAH
   \              0FCA        
   \   00002C80   C00EC8CA72EF       DC8 0C0H, 0EH, 0C8H, 0CAH, 72H, 0EFH, 4BH, 71H
   \              4B71        
   \   00002C88   CFA257818808       DC8 0CFH, 0A2H, 57H, 81H, 88H, 8, 0DFH, 0C5H
   \              DFC5        
   \   00002C90   14DF88788D8D       DC8 14H, 0DFH, 88H, 78H, 8DH, 8DH, 0D1H, 0D7H
   \              D1D7        
   \   00002C98   D4F41942E953       DC8 0D4H, 0F4H, 19H, 42H, 0E9H, 53H, 53H, 83H
   \              5383        
   \   00002CA0   026A04F01D40       DC8 2, 6AH, 4, 0F0H, 1DH, 40H, 8FH, 3FH
   \              8F3F        
   \   00002CA8   DB018C42A170       DC8 0DBH, 1, 8CH, 42H, 0A1H, 70H, 0DCH, 7
   \              DC07        
   \   00002CB0   38CE01C3381C       DC8 38H, 0CEH, 1, 0C3H, 38H, 1CH, 2, 0BAH
   \              02BA        
   \   00002CB8   6497E33F78F0       DC8 64H, 97H, 0E3H, 3FH, 78H, 0F0H, 60H, 6CH
   \              606C        
   \   00002CC0   FEDEBDD911A0       DC8 0FEH, 0DEH, 0BDH, 0D9H, 11H, 0A0H, 0BDH, 64H
   \              BD64        
   \   00002CC8   A02D4505305B       DC8 0A0H, 2DH, 45H, 5, 30H, 5BH, 3FH, 0FBH
   \              3FFB        
   \   00002CD0   A571C6F8E933       DC8 0A5H, 71H, 0C6H, 0F8H, 0E9H, 33H, 0DFH, 3BH
   \              DF3B        
   \   00002CD8   B3598A5781AA       DC8 0B3H, 59H, 8AH, 57H, 81H, 0AAH, 17H, 9DH
   \              179D        
   \   00002CE0   54B102745E14       DC8 54H, 0B1H, 2, 74H, 5EH, 14H, 9DH, 43H
   \              9D43        
   \   00002CE8   80B72F055650       DC8 80H, 0B7H, 2FH, 5, 56H, 50H, 40H, 46H
   \              4046        
   \   00002CF0   46463E055650       DC8 46H, 46H, 3EH, 5, 56H, 50H, 40H, 5AH
   \              405A        
   \   00002CF8   5A9A7BBE3B00       DC8 5AH, 9AH, 7BH, 0BEH, 3BH, 0, 2BH, 0D8H
   \              2BD8        
   \   00002D00   01F1F1F14B28       DC8 1, 0F1H, 0F1H, 0F1H, 4BH, 28H, 0B0H, 82H
   \              B082        
   \   00002D08   23505DED1050       DC8 23H, 50H, 5DH, 0EDH, 10H, 50H, 5DH, 8DH
   \              5D8D        
   \   00002D10   02AA055001FD       DC8 2, 0AAH, 5, 50H, 1, 0FDH, 16H, 2
   \              1602        
   \   00002D18   FD587E666F87       DC8 0FDH, 58H, 7EH, 66H, 6FH, 87H, 14H, 49H
   \              1449        
   \   00002D20   D0FB495CFF0B       DC8 0D0H, 0FBH, 49H, 5CH, 0FFH, 0BH, 6EH, 7CH
   \              6E7C        
   \   00002D28   943D65011F8D       DC8 94H, 3DH, 65H, 1, 1FH, 8DH, 0A7H, 0A0H
   \              A7A0        
   \   00002D30   009ABB0BF8B3       DC8 0, 9AH, 0BBH, 0BH, 0F8H, 0B3H, 0B1H, 71H
   \              B171        
   \   00002D38   6EE2F499DF9F       DC8 6EH, 0E2H, 0F4H, 99H, 0DFH, 9FH, 0C9H, 49H
   \              C949        
   \   00002D40   4501272F3839       DC8 45H, 1, 27H, 2FH, 38H, 39H, 89H, 2
   \              8902        
   \   00002D48   1EE6A1021EE4       DC8 1EH, 0E6H, 0A1H, 2, 1EH, 0E4H, 0A1H, 2
   \              A102        
   \   00002D50   1EE1A15781BE       DC8 1EH, 0E1H, 0A1H, 57H, 81H, 0BEH, 3CH, 0B4H
   \              3CB4        
   \   00002D58   036EE1A123F0       DC8 3, 6EH, 0E1H, 0A1H, 23H, 0F0H, 0BCH, 0
   \              BC00        
   \   00002D60   14E09A458CC1       DC8 14H, 0E0H, 9AH, 45H, 8CH, 0C1H, 15H, 56H
   \              1556        
   \   00002D68   402AD4AEE0FA       DC8 40H, 2AH, 0D4H, 0AEH, 0E0H, 0FAH, 0FFH, 5FH
   \              FF5F        
   \   00002D70   D2E010308913       DC8 0D2H, 0E0H, 10H, 30H, 89H, 13H, 20H, 18H
   \              2018        
   \   00002D78   01030A601A1B       DC8 1, 3, 0AH, 60H, 1AH, 1BH, 7FH, 9CH
   \              7F9C        
   \   00002D80   9B034853AF79       DC8 9BH, 3, 48H, 53H, 0AFH, 79H, 2BH, 0ACH
   \              2BAC        
   \   00002D88   E3094B4E66B4       DC8 0E3H, 9, 4BH, 4EH, 66H, 0B4H, 0DEH, 3CH
   \              DE3C        
   \   00002D90   5A8B895167F0       DC8 5AH, 8BH, 89H, 51H, 67H, 0F0H, 0A8H, 0ADH
   \              A8AD        
   \   00002D98   164696C623B3       DC8 16H, 46H, 96H, 0C6H, 23H, 0B3H, 99H, 18H
   \              9918        
   \   00002DA0   4D3C8FC60423       DC8 4DH, 3CH, 8FH, 0C6H, 4, 23H, 0F0H, 9CH
   \              F09C        
   \   00002DA8   0014E09A45D7       DC8 0, 14H, 0E0H, 9AH, 45H, 0D7H, 0AEH, 82H
   \              AE82        
   \   00002DB0   B6BEE2C61E05       DC8 0B6H, 0BEH, 0E2H, 0C6H, 1EH, 5, 1AH, 1AH
   \              1A1A        
   \   00002DB8   1A76EDDAE5BC       DC8 1AH, 76H, 0EDH, 0DAH, 0E5H, 0BCH, 11H, 0EAH
   \              11EA        
   \   00002DC0   7A1264157C2C       DC8 7AH, 12H, 64H, 15H, 7CH, 2CH, 0E5H, 0CAH
   \              E5CA        
   \   00002DC8   BFEEC310D4EF       DC8 0BFH, 0EEH, 0C3H, 10H, 0D4H, 0EFH, 0F2H, 30H
   \              F230        
   \   00002DD0   64B1B83E0C99       DC8 64H, 0B1H, 0B8H, 3EH, 0CH, 99H, 4CH, 0AEH
   \              4CAE        
   \   00002DD8   0F4316ABEBC3       DC8 0FH, 43H, 16H, 0ABH, 0EBH, 0C3H, 10H, 7EH
   \              107E        
   \   00002DE0   FE0F1F86FE43       DC8 0FEH, 0FH, 1FH, 86H, 0FEH, 43H, 24H, 0BH
   \              240B        
   \   00002DE8   C06CB25A2D16       DC8 0C0H, 6CH, 0B2H, 5AH, 2DH, 16H, 8BH, 0D5H
   \              8BD5        
   \   00002DF0   64FBCD6AC36C       DC8 64H, 0FBH, 0CDH, 6AH, 0C3H, 6CH, 41H, 4CH
   \              414C        
   \   00002DF8   EC1FCD568BCD       DC8 0ECH, 1FH, 0CDH, 56H, 8BH, 0CDH, 66H, 0B2H
   \              66B2        
   \   00002E00   9A4CB060DE6D       DC8 9AH, 4CH, 0B0H, 60H, 0DEH, 6DH, 83H, 0FDH
   \              83FD        
   \   00002E08   4D260B6CB3FC       DC8 4DH, 26H, 0BH, 6CH, 0B3H, 0FCH, 0FDH, 7FH
   \              FD7F        
   \   00002E10   FB4B800100DB       DC8 0FBH, 4BH, 80H, 1, 0, 0DBH, 46H, 77H
   \              4677        
   \   00002E18   954742827E00       DC8 95H, 47H, 42H, 82H, 7EH, 0, 0, 0
   \              0000        
   \   00002E20   0049454E44AE       DC8 0, 49H, 45H, 4EH, 44H, 0AEH, 42H, 60H
   \              4260        
   \   00002E28   8200               DC8 82H, 0
   \   00002E2A   0000               DC8 0, 0

   \                                 In segment DATA_C, align 4, align-sorted
   \                     `?<Constant "status.png">`:
   \   00000000   737461747573       DC8 "status.png"
   \              2E706E6700  
   \   0000000B   00                 DC8 0
   \   0000000C   25735C257300       DC8 "%s\\%s"
   \   00000012   0000               DC8 0, 0
   \   00000014   25735C25642E       DC8 "%s\\%d.png"
   \              706E6700    
   \   0000001E   0000               DC8 0, 0

   \                                 In segment DATA_C, align 4, align-sorted
   \                     `?<Constant "smiles.png">`:
   \   00000000   736D696C6573       DC8 "smiles.png"
   \              2E706E6700  
   \   0000000B   00                 DC8 0

   Maximum stack usage in bytes:

     Function         CSTACK
     --------         ------
     AddIcon              8
     AddXIcon            16
     CheckSmiles         64
     CountIcon            0
     CountXIcon           0
     FindSmileById        0
     FindSmileByUni       0
     FreeAllList          8
     FreeIconList         4
     FreeList             4
     FreeSmileList        4
     FreeSmiles          28
     FreeXIconList        4
     FreeXStatusesImg     4
     GetIconByItem        0
     GetSmileByItem       0
     GetXIconByItem       0
     InitSmiles          60
     LoadImages         272
     LoadImg             36
     LoadingImages        4
     LoadingSmiles       44
     NewIcon             12
     ProcessNextSmile    32
     free_bitmap          8
     get_file_size       48


   Segment part sizes:

     Function/Label             Bytes
     --------------             -----
     s_top                         40
     XStatusesImgList               4
     XStatusesIconArray             4
     FindSmileById                 44
     FindSmileByUni                44
     FreeSmiles                   208
     InitSmiles                   160
     CheckSmiles                  208
     FreeList                      24
     NewIcon                       48
     GetSmileByItem                56
     FreeSmileList                 12
     ProcessNextSmile             608
     FreeXStatusesImg              12
     AddXIcon                     104
     FreeXIconList                 12
     CountXIcon                    40
     GetXIconByItem                56
     get_file_size                 40
     AddIcon                       76
     FreeIconList                  12
     CountIcon                     40
     GetIconByItem                 56
     XST_PNG                    11820
     free_bitmap                   32
     LoadImg                      244
     LoadImages                   204
     LoadingSmiles                344
     LoadingImages                 48
     FreeAllList                   40
     ??DataTable5                   4
     ??DataTable7                   4
     ??DataTable8                   4
     ??DataTable13                  4
     ??DataTable17                  4
     ??DataTable20                  4
     ??DataTable22                  4
     ?<Initializer for XST_PNG> 11820
     ?<Constant "status.png">      32
     ?<Constant "smiles.png">      12
      Others                      188

 
  2 964 bytes in segment CODE
     44 bytes in segment DATA_C
 11 820 bytes in segment DATA_I
 11 820 bytes in segment DATA_ID
     48 bytes in segment DATA_Z
     24 bytes in segment INITTAB
 
  2 800 bytes of CODE  memory (+ 188 bytes shared)
 11 864 bytes of CONST memory
 11 868 bytes of DATA  memory

Errors: none
Warnings: 1
