Error[e46]: Undefined external "??divu32_a" referred in main ( F:\SVN\cn\ScrTool2\Release_NEWSGOLD\Obj\main.r79 )
Error[e46]: Undefined external "??div32_a" referred in main ( F:\SVN\cn\ScrTool2\Release_NEWSGOLD\Obj\main.r79 )
Error[e46]: Undefined external "AF13" referred in main ( F:\SVN\cn\ScrTool2\Release_NEWSGOLD\Obj\main.r79 )
Error[e46]: Undefined external "AI13" referred in main ( F:\SVN\cn\ScrTool2\Release_NEWSGOLD\Obj\main.r79 )
Error[e46]: Undefined external "AT13" referred in main ( F:\SVN\cn\ScrTool2\Release_NEWSGOLD\Obj\main.r79 )
Error[e46]: Undefined external "AN13" referred in main ( F:\SVN\cn\ScrTool2\Release_NEWSGOLD\Obj\main.r79 )
Error[e46]: Undefined external "strtoul" referred in main ( F:\SVN\cn\ScrTool2\Release_NEWSGOLD\Obj\main.r79 )
################################################################################
#                                                                              #
#      IAR Universal Linker V4.60I/386                                         #
#                                                                              #
#           Link time     =  08/Jul/2010  13:52:48                             #
#           Target CPU    =  ARM                                               #
#           List file     =  F:\SVN\cn\ScrTool2\Release_NEWSGOLD\List\ScrTool_ #
#                            NSG.map                                           #
#           Output file 1 =  F:\SVN\cn\ScrTool2\Release_NEWSGOLD\exe\ScrTool_N #
#                            SG.elf                                            #
#                            Format: elf, variant: -ynpra                      #
#           Command line  =  F:\SVN\cn\ScrTool2\Release_NEWSGOLD\Obj\conf_load #
#                            er.r79                                            #
#                            F:\SVN\cn\ScrTool2\Release_NEWSGOLD\Obj\config_da #
#                            ta.r79                                            #
#                            F:\SVN\cn\ScrTool2\Release_NEWSGOLD\Obj\func.r79  #
#                            F:\SVN\cn\ScrTool2\Release_NEWSGOLD\Obj\main.r79  #
#                            -o                                                #
#                            F:\SVN\cn\ScrTool2\Release_NEWSGOLD\exe\ScrTool_N #
#                            SG.elf                                            #
#                            -Felf -l                                          #
#                            F:\SVN\cn\ScrTool2\Release_NEWSGOLD\List\ScrTool_ #
#                            NSG.map                                           #
#                            -xmsnio                                           #
#                            "-IF:\software\Embedded Workbench 4.0 Evaluation\ #
#                            ARM\LIB\"                                         #
#                            -f F:\SVN\cn\ScrTool2\test.xcl (-carm             #
#                            -V(CODE)CODE_AREA,12 -V(DATA)DATA_AREA,12         #
#                            -Z(CODE_AREA)ELFBEGIN,DATA_ID,START,CODE,DATA_C,I #
#                            NITTAB,DATA_Z,DATA_N,CONFIG_C=0-FFFFFFFF          #
#                            -Z(DATA_AREA)DATA_I=0-FFFFFFFF) -ynpra -s main    #
#                                                                              #
#                        Copyright 1987-2007 IAR Systems. All rights reserved. #
################################################################################





                ****************************************
                *                                      *
                *           CROSS REFERENCE            *
                *                                      *
                ****************************************

       Program entry at : CODE_AREA 0000395C  Relocatable, from module : main




                ****************************************
                *                                      *
                *            RUNTIME MODEL             *
                *                                      *
                ****************************************

  StackAlign4  = USED
  __cpu_mode   = __pcs__interwork
  __data_model = absolute
  __endian     = little
  __rt_version = 6



                ****************************************
                *                                      *
                *              MODULE MAP              *
                *                                      *
                ****************************************


  DEFINED ABSOLUTE ENTRIES
    *************************************************************************

  DEFINED ABSOLUTE ENTRIES
    *************************************************************************

  FILE NAME : F:\SVN\cn\ScrTool2\Release_NEWSGOLD\Obj\conf_loader.r79
  PROGRAM MODULE, NAME : conf_loader

  SEGMENTS IN THE MODULE
  ======================
DATA_I
  Relative segment, address: DATA_AREA 00000000 - 00000003 (0x4 bytes), align: 2
  Segment part 4.             Intra module refs:   LoadConfigData
           ENTRY                   ADDRESS         REF BY
           =====                   =======         ======
           cfn                     00000000        Segment part 124 (main)
    -------------------------------------------------------------------------
CODE
  Segment part 6. NOT NEEDED.
    -------------------------------------------------------------------------
CODE
  Relative segment, address: CODE_AREA 000002C4 - 000003BF (0xfc bytes), align: 2
  Segment part 7.             Intra module refs:   InitConfig
           ENTRY                   ADDRESS         REF BY
           =====                   =======         ======
           LoadConfigData          000002C4 
               stack 1 = 00000000 ( 00000024 )
    -------------------------------------------------------------------------
CODE
  Segment part 8. NOT NEEDED.
    -------------------------------------------------------------------------
CODE
  Relative segment, address: CODE_AREA 000003C0 - 000003E7 (0x28 bytes), align: 2
  Segment part 9.
           ENTRY                   ADDRESS         REF BY
           =====                   =======         ======
           InitConfig              000003C0        DaemonOnMessage (main)
                                                   main (main)
               stack 1 = 00000000 ( 00000008 )
    -------------------------------------------------------------------------
CSTACK
  Segment part 1. NOT NEEDED.
    -------------------------------------------------------------------------
DATA_ID
  Relative segment, address: CODE_AREA 00000000 - 00000003 (0x4 bytes), align: 2
  Segment part 5.             Intra module refs:   cfn
    -------------------------------------------------------------------------
DATA_ID
  Segment part 10. NOT NEEDED.
           ENTRY                   ADDRESS         REF BY
           =====                   =======         ======
           ?*?DATA_ID              
    -------------------------------------------------------------------------
INITTAB
  Relative segment, address: CODE_AREA 0000449C - 000044A7 (0xc bytes), align: 2
  Segment part 11. ROOT.
           ENTRY                   ADDRESS         REF BY
           =====                   =======         ======
           ?init?tab?DATA_I        0000449C 
    -------------------------------------------------------------------------
CONFIG_C
  Segment part 12. NOT NEEDED.
    -------------------------------------------------------------------------
DATA_C
  Relative segment, address: CODE_AREA 00004498 - 00004498 (0x1 bytes), align: 0
  Segment part 2.             Intra module refs:   Segment part 5
    -------------------------------------------------------------------------
DATA_C
  Relative segment, address: CODE_AREA 00003A34 - 00003A6B (0x38 bytes), align: 2
  Segment part 3.             Intra module refs:   InitConfig

    *************************************************************************

  FILE NAME : F:\SVN\cn\ScrTool2\Release_NEWSGOLD\Obj\config_data.r79
  PROGRAM MODULE, NAME : config_data

  SEGMENTS IN THE MODULE
  ======================
CONFIG_C
  Relative segment, address: CODE_AREA 00004680 - 000046AB (0x2c bytes), align: 2
  Segment part 2. ROOT.
           ENTRY                   ADDRESS         REF BY
           =====                   =======         ======
           cfghdr0                 00004680        LoadConfigData (conf_loader)
    -------------------------------------------------------------------------
CONFIG_C
  Relative segment, address: CODE_AREA 000046AC - 000046AF (0x4 bytes), align: 2
  Segment part 3. ROOT.
           ENTRY                   ADDRESS         REF BY
           =====                   =======         ======
           TASK_ENA                000046AC        Segment part 138 (main)
                                                   Segment part 95 (main)
    -------------------------------------------------------------------------
CONFIG_C
  Relative segment, address: CODE_AREA 000046B0 - 000046DB (0x2c bytes), align: 2
  Segment part 4. ROOT.
           ENTRY                   ADDRESS         REF BY
           =====                   =======         ======
           SCR11                   000046B0 
    -------------------------------------------------------------------------
CONFIG_C
  Relative segment, address: CODE_AREA 000046DC - 00004707 (0x2c bytes), align: 2
  Segment part 5. ROOT.
           ENTRY                   ADDRESS         REF BY
           =====                   =======         ======
           SCR1_1                  000046DC 
    -------------------------------------------------------------------------
CONFIG_C
  Relative segment, address: CODE_AREA 00004708 - 0000470B (0x4 bytes), align: 2
  Segment part 6. ROOT.
           ENTRY                   ADDRESS         REF BY
           =====                   =======         ======
           TEXT_ENA                00004708        InitShow (main)
    -------------------------------------------------------------------------
CONFIG_C
  Relative segment, address: CODE_AREA 0000470C - 00004737 (0x2c bytes), align: 2
  Segment part 7. ROOT.
           ENTRY                   ADDRESS         REF BY
           =====                   =======         ======
           SCR1_3                  0000470C 
    -------------------------------------------------------------------------
CONFIG_C
  Relative segment, address: CODE_AREA 00004738 - 00004757 (0x20 bytes), align: 2
  Segment part 8. ROOT.
           ENTRY                   ADDRESS         REF BY
           =====                   =======         ======
           TEXT_CP                 00004738        InitScreen (main)
    -------------------------------------------------------------------------
CONFIG_C
  Relative segment, address: CODE_AREA 00004758 - 00004783 (0x2c bytes), align: 2
  Segment part 9. ROOT.
           ENTRY                   ADDRESS         REF BY
           =====                   =======         ======
           SCR1_2                  00004758 
    -------------------------------------------------------------------------
CONFIG_C
  Relative segment, address: CODE_AREA 00004784 - 00004787 (0x4 bytes), align: 2
  Segment part 10. ROOT.
           ENTRY                   ADDRESS         REF BY
           =====                   =======         ======
           TEXT_X                  00004784        InitScreen (main)
    -------------------------------------------------------------------------
CONFIG_C
  Relative segment, address: CODE_AREA 00004788 - 0000478B (0x4 bytes), align: 2
  Segment part 11. ROOT.
           ENTRY                   ADDRESS         REF BY
           =====                   =======         ======
           TEXT_Y                  00004788        InitScreen (main)
    -------------------------------------------------------------------------
CONFIG_C
  Relative segment, address: CODE_AREA 0000478C - 000047B7 (0x2c bytes), align: 2
  Segment part 12. ROOT.
           ENTRY                   ADDRESS         REF BY
           =====                   =======         ======
           SCR1_4                  0000478C 
    -------------------------------------------------------------------------
CONFIG_C
  Relative segment, address: CODE_AREA 000047B8 - 000047BB (0x4 bytes), align: 2
  Segment part 13. ROOT.
           ENTRY                   ADDRESS         REF BY
           =====                   =======         ======
           TEXT_CS                 000047B8        InitShow (main)
    -------------------------------------------------------------------------
CONFIG_C
  Relative segment, address: CODE_AREA 000047BC - 000047E7 (0x2c bytes), align: 2
  Segment part 14. ROOT.
           ENTRY                   ADDRESS         REF BY
           =====                   =======         ======
           SCR1_5                  000047BC 
    -------------------------------------------------------------------------
CONFIG_C
  Relative segment, address: CODE_AREA 000047E8 - 000047EB (0x4 bytes), align: 2
  Segment part 15. ROOT.
           ENTRY                   ADDRESS         REF BY
           =====                   =======         ======
           TEXT_CB                 000047E8        InitShow (main)
    -------------------------------------------------------------------------
CONFIG_C
  Relative segment, address: CODE_AREA 000047EC - 00004817 (0x2c bytes), align: 2
  Segment part 16. ROOT.
           ENTRY                   ADDRESS         REF BY
           =====                   =======         ======
           SCR1_6                  000047EC 
    -------------------------------------------------------------------------
CONFIG_C
  Relative segment, address: CODE_AREA 00004818 - 0000481B (0x4 bytes), align: 2
  Segment part 17. ROOT.
           ENTRY                   ADDRESS         REF BY
           =====                   =======         ======
           TEXT_T                  00004818        InitShow (main)
    -------------------------------------------------------------------------
CONFIG_C
  Relative segment, address: CODE_AREA 0000481C - 00004847 (0x2c bytes), align: 2
  Segment part 18. ROOT.
           ENTRY                   ADDRESS         REF BY
           =====                   =======         ======
           SCR1_7                  0000481C 
    -------------------------------------------------------------------------
CONFIG_C
  Relative segment, address: CODE_AREA 00004848 - 0000484B (0x4 bytes), align: 2
  Segment part 19. ROOT.
           ENTRY                   ADDRESS         REF BY
           =====                   =======         ======
           TEXT_FT                 00004848        InitShow (main)
    -------------------------------------------------------------------------
CONFIG_C
  Relative segment, address: CODE_AREA 0000484C - 00004877 (0x2c bytes), align: 2
  Segment part 20. ROOT.
           ENTRY                   ADDRESS         REF BY
           =====                   =======         ======
           SCR10                   0000484C 
    -------------------------------------------------------------------------
CONFIG_C
  Relative segment, address: CODE_AREA 00004878 - 000048A3 (0x2c bytes), align: 2
  Segment part 21. ROOT.
           ENTRY                   ADDRESS         REF BY
           =====                   =======         ======
           mBAR1                   00004878 
    -------------------------------------------------------------------------
CONFIG_C
  Relative segment, address: CODE_AREA 000048A4 - 000048CF (0x2c bytes), align: 2
  Segment part 22. ROOT.
           ENTRY                   ADDRESS         REF BY
           =====                   =======         ======
           BAR_0                   000048A4 
    -------------------------------------------------------------------------
CONFIG_C
  Relative segment, address: CODE_AREA 000048D0 - 000048D3 (0x4 bytes), align: 2
  Segment part 23. ROOT.
           ENTRY                   ADDRESS         REF BY
           =====                   =======         ======
           DEST_ENA                000048D0        DrawGUI (main)
    -------------------------------------------------------------------------
CONFIG_C
  Relative segment, address: CODE_AREA 000048D4 - 000048FF (0x2c bytes), align: 2
  Segment part 24. ROOT.
           ENTRY                   ADDRESS         REF BY
           =====                   =======         ======
           SCR                     000048D4 
    -------------------------------------------------------------------------
CONFIG_C
  Relative segment, address: CODE_AREA 00004900 - 00004903 (0x4 bytes), align: 2
  Segment part 25. ROOT.
           ENTRY                   ADDRESS         REF BY
           =====                   =======         ======
           INFO_ENA                00004900        DaemonOnMessage (main)
    -------------------------------------------------------------------------
CONFIG_C
  Relative segment, address: CODE_AREA 00004904 - 00004983 (0x80 bytes), align: 2
  Segment part 26. ROOT.
           ENTRY                   ADDRESS         REF BY
           =====                   =======         ======
           BOX01                   00004904 
    -------------------------------------------------------------------------
CONFIG_C
  Relative segment, address: CODE_AREA 00004984 - 000049AF (0x2c bytes), align: 2
  Segment part 27. ROOT.
           ENTRY                   ADDRESS         REF BY
           =====                   =======         ======
           BAR_3                   00004984 
    -------------------------------------------------------------------------
CONFIG_C
  Relative segment, address: CODE_AREA 000049B0 - 000049B3 (0x4 bytes), align: 2
  Segment part 28. ROOT.
           ENTRY                   ADDRESS         REF BY
           =====                   =======         ======
           CALL_BTN                000049B0        Segment part 119 (main)
    -------------------------------------------------------------------------
CONFIG_C
  Relative segment, address: CODE_AREA 000049B4 - 00004A93 (0xe0 bytes), align: 2
  Segment part 29. ROOT.
           ENTRY                   ADDRESS         REF BY
           =====                   =======         ======
           BOX02                   000049B4 
    -------------------------------------------------------------------------
CONFIG_C
  Relative segment, address: CODE_AREA 00004A94 - 00004ABF (0x2c bytes), align: 2
  Segment part 30. ROOT.
           ENTRY                   ADDRESS         REF BY
           =====                   =======         ======
           BAR_1                   00004A94 
    -------------------------------------------------------------------------
CONFIG_C
  Relative segment, address: CODE_AREA 00004AC0 - 00004AC3 (0x4 bytes), align: 2
  Segment part 31. ROOT.
           ENTRY                   ADDRESS         REF BY
           =====                   =======         ======
           REFRESH                 00004AC0        DaemonOnMessage (main)
    -------------------------------------------------------------------------
CONFIG_C
  Relative segment, address: CODE_AREA 00004AC4 - 00004AEF (0x2c bytes), align: 2
  Segment part 32. ROOT.
           ENTRY                   ADDRESS         REF BY
           =====                   =======         ======
           BAR_2                   00004AC4 
    -------------------------------------------------------------------------
CONFIG_C
  Relative segment, address: CODE_AREA 00004AF0 - 00004AF3 (0x4 bytes), align: 2
  Segment part 33. ROOT.
           ENTRY                   ADDRESS         REF BY
           =====                   =======         ======
           AUTO_CLOSE              00004AF0        DrawGUI (main)
    -------------------------------------------------------------------------
CONFIG_C
  Relative segment, address: CODE_AREA 00004AF4 - 00004B1F (0x2c bytes), align: 2
  Segment part 34. ROOT.
           ENTRY                   ADDRESS         REF BY
           =====                   =======         ======
           BAR_5                   00004AF4 
    -------------------------------------------------------------------------
CONFIG_C
  Relative segment, address: CODE_AREA 00004B20 - 00004B23 (0x4 bytes), align: 2
  Segment part 35. ROOT.
           ENTRY                   ADDRESS         REF BY
           =====                   =======         ======
           MODE_KBD                00004B20        DaemonKeyHook (main)
    -------------------------------------------------------------------------
CONFIG_C
  Relative segment, address: CODE_AREA 00004B24 - 00004B83 (0x60 bytes), align: 2
  Segment part 36. ROOT.
           ENTRY                   ADDRESS         REF BY
           =====                   =======         ======
           BOX03                   00004B24 
    -------------------------------------------------------------------------
CONFIG_C
  Relative segment, address: CODE_AREA 00004B84 - 00004BAF (0x2c bytes), align: 2
  Segment part 37. ROOT.
           ENTRY                   ADDRESS         REF BY
           =====                   =======         ======
           BAR_7                   00004B84 
    -------------------------------------------------------------------------
CONFIG_C
  Relative segment, address: CODE_AREA 00004BB0 - 00004BB3 (0x4 bytes), align: 2
  Segment part 38. ROOT.
           ENTRY                   ADDRESS         REF BY
           =====                   =======         ======
           OFFSET                  00004BB0        DrawGUI (main)
    -------------------------------------------------------------------------
CONFIG_C
  Relative segment, address: CODE_AREA 00004BB4 - 00004BDF (0x2c bytes), align: 2
  Segment part 39. ROOT.
           ENTRY                   ADDRESS         REF BY
           =====                   =======         ======
           PSize                   00004BB4 
    -------------------------------------------------------------------------
CONFIG_C
  Relative segment, address: CODE_AREA 00004BE0 - 00004BE3 (0x4 bytes), align: 2
  Segment part 40. ROOT.
           ENTRY                   ADDRESS         REF BY
           =====                   =======         ======
           PicSize                 00004BE0        DrawGUI (main)
    -------------------------------------------------------------------------
CONFIG_C
  Relative segment, address: CODE_AREA 00004BE4 - 00004C0F (0x2c bytes), align: 2
  Segment part 41. ROOT.
           ENTRY                   ADDRESS         REF BY
           =====                   =======         ======
           BAR_8                   00004BE4 
    -------------------------------------------------------------------------
CONFIG_C
  Relative segment, address: CODE_AREA 00004C10 - 00004C13 (0x4 bytes), align: 2
  Segment part 42. ROOT.
           ENTRY                   ADDRESS         REF BY
           =====                   =======         ======
           ATEXT_CS                00004C10        DrawGUI (main)
    -------------------------------------------------------------------------
CONFIG_C
  Relative segment, address: CODE_AREA 00004C14 - 00004C3F (0x2c bytes), align: 2
  Segment part 43. ROOT.
           ENTRY                   ADDRESS         REF BY
           =====                   =======         ======
           BAR_9                   00004C14 
    -------------------------------------------------------------------------
CONFIG_C
  Relative segment, address: CODE_AREA 00004C40 - 00004C43 (0x4 bytes), align: 2
  Segment part 44. ROOT.
           ENTRY                   ADDRESS         REF BY
           =====                   =======         ======
           ATEXT_FT                00004C40        DrawGUI (main)
    -------------------------------------------------------------------------
CONFIG_C
  Relative segment, address: CODE_AREA 00004C44 - 00004C6F (0x2c bytes), align: 2
  Segment part 45. ROOT.
           ENTRY                   ADDRESS         REF BY
           =====                   =======         ======
           BAR_A                   00004C44 
    -------------------------------------------------------------------------
CONFIG_C
  Relative segment, address: CODE_AREA 00004C70 - 00004C73 (0x4 bytes), align: 2
  Segment part 46. ROOT.
           ENTRY                   ADDRESS         REF BY
           =====                   =======         ======
           PBDCol                  00004C70        DrawGUI (main)
    -------------------------------------------------------------------------
CONFIG_C
  Relative segment, address: CODE_AREA 00004C74 - 00004C9F (0x2c bytes), align: 2
  Segment part 47. ROOT.
           ENTRY                   ADDRESS         REF BY
           =====                   =======         ======
           BAR_B                   00004C74 
    -------------------------------------------------------------------------
CONFIG_C
  Relative segment, address: CODE_AREA 00004CA0 - 00004CA3 (0x4 bytes), align: 2
  Segment part 48. ROOT.
           ENTRY                   ADDRESS         REF BY
           =====                   =======         ======
           PBGCol                  00004CA0        DrawGUI (main)
    -------------------------------------------------------------------------
CONFIG_C
  Relative segment, address: CODE_AREA 00004CA4 - 00004CCF (0x2c bytes), align: 2
  Segment part 49. ROOT.
           ENTRY                   ADDRESS         REF BY
           =====                   =======         ======
           BAR_C                   00004CA4 
    -------------------------------------------------------------------------
CONFIG_C
  Relative segment, address: CODE_AREA 00004CD0 - 00004CD3 (0x4 bytes), align: 2
  Segment part 50. ROOT.
           ENTRY                   ADDRESS         REF BY
           =====                   =======         ======
           BBDCol                  00004CD0        DrawGUI (main)
    -------------------------------------------------------------------------
CONFIG_C
  Relative segment, address: CODE_AREA 00004CD4 - 00004CFF (0x2c bytes), align: 2
  Segment part 51. ROOT.
           ENTRY                   ADDRESS         REF BY
           =====                   =======         ======
           BAR_J                   00004CD4 
    -------------------------------------------------------------------------
CONFIG_C
  Relative segment, address: CODE_AREA 00004D00 - 00004D03 (0x4 bytes), align: 2
  Segment part 52. ROOT.
           ENTRY                   ADDRESS         REF BY
           =====                   =======         ======
           SHOW_EXT                00004D00        FindBCFGFile (main)
    -------------------------------------------------------------------------
CONFIG_C
  Relative segment, address: CODE_AREA 00004D04 - 00004D2F (0x2c bytes), align: 2
  Segment part 53. ROOT.
           ENTRY                   ADDRESS         REF BY
           =====                   =======         ======
           mBAR0                   00004D04 
    -------------------------------------------------------------------------
CONFIG_C
  Relative segment, address: CODE_AREA 00004D30 - 00004D5B (0x2c bytes), align: 2
  Segment part 54. ROOT.
           ENTRY                   ADDRESS         REF BY
           =====                   =======         ======
           mMENU1                  00004D30 
    -------------------------------------------------------------------------
CONFIG_C
  Relative segment, address: CODE_AREA 00004D5C - 00004D87 (0x2c bytes), align: 2
  Segment part 55. ROOT.
           ENTRY                   ADDRESS         REF BY
           =====                   =======         ======
           BAR_I                   00004D5C 
    -------------------------------------------------------------------------
CONFIG_C
  Relative segment, address: CODE_AREA 00004D88 - 00004DBB (0x34 bytes), align: 2
  Segment part 56. ROOT.
           ENTRY                   ADDRESS         REF BY
           =====                   =======         ======
           AITO                    00004D88        InitMenu (main)
    -------------------------------------------------------------------------
CONFIG_C
  Relative segment, address: CODE_AREA 00004DBC - 00004DE7 (0x2c bytes), align: 2
  Segment part 57. ROOT.
           ENTRY                   ADDRESS         REF BY
           =====                   =======         ======
           BAR_H                   00004DBC 
    -------------------------------------------------------------------------
CONFIG_C
  Relative segment, address: CODE_AREA 00004DE8 - 00004E1B (0x34 bytes), align: 2
  Segment part 58. ROOT.
           ENTRY                   ADDRESS         REF BY
           =====                   =======         ======
           AIRT                    00004DE8        InitMenu (main)
    -------------------------------------------------------------------------
CONFIG_C
  Relative segment, address: CODE_AREA 00004E1C - 00004E47 (0x2c bytes), align: 2
  Segment part 59. ROOT.
           ENTRY                   ADDRESS         REF BY
           =====                   =======         ======
           BAR_G                   00004E1C 
    -------------------------------------------------------------------------
CONFIG_C
  Relative segment, address: CODE_AREA 00004E48 - 00004E7B (0x34 bytes), align: 2
  Segment part 60. ROOT.
           ENTRY                   ADDRESS         REF BY
           =====                   =======         ======
           AILK                    00004E48        InitMenu (main)
    -------------------------------------------------------------------------
CONFIG_C
  Relative segment, address: CODE_AREA 00004E7C - 00004EA7 (0x2c bytes), align: 2
  Segment part 61. ROOT.
           ENTRY                   ADDRESS         REF BY
           =====                   =======         ======
           BAR_E                   00004E7C 
    -------------------------------------------------------------------------
CONFIG_C
  Relative segment, address: CODE_AREA 00004EA8 - 00004EDB (0x34 bytes), align: 2
  Segment part 62. ROOT.
           ENTRY                   ADDRESS         REF BY
           =====                   =======         ======
           AIST                    00004EA8        InitMenu (main)
    -------------------------------------------------------------------------
CONFIG_C
  Relative segment, address: CODE_AREA 00004EDC - 00004F07 (0x2c bytes), align: 2
  Segment part 63. ROOT.
           ENTRY                   ADDRESS         REF BY
           =====                   =======         ======
           BAR_F                   00004EDC 
    -------------------------------------------------------------------------
CONFIG_C
  Relative segment, address: CODE_AREA 00004F08 - 00004F3B (0x34 bytes), align: 2
  Segment part 64. ROOT.
           ENTRY                   ADDRESS         REF BY
           =====                   =======         ======
           AINO                    00004F08        DrawGUI (main)
    -------------------------------------------------------------------------
CONFIG_C
  Relative segment, address: CODE_AREA 00004F3C - 00004F67 (0x2c bytes), align: 2
  Segment part 65. ROOT.
           ENTRY                   ADDRESS         REF BY
           =====                   =======         ======
           mMENU0                  00004F3C 
    -------------------------------------------------------------------------
CONFIG_C
  Relative segment, address: CODE_AREA 00004F68 - 00004F93 (0x2c bytes), align: 2
  Segment part 66. ROOT.
           ENTRY                   ADDRESS         REF BY
           =====                   =======         ======
           mAPP1                   00004F68 
    -------------------------------------------------------------------------
CONFIG_C
  Relative segment, address: CODE_AREA 00004F94 - 00004FBF (0x2c bytes), align: 2
  Segment part 67. ROOT.
           ENTRY                   ADDRESS         REF BY
           =====                   =======         ======
           mA041                   00004F94 
    -------------------------------------------------------------------------
CONFIG_C
  Relative segment, address: CODE_AREA 00004FC0 - 00004FEB (0x2c bytes), align: 2
  Segment part 68. ROOT.
           ENTRY                   ADDRESS         REF BY
           =====                   =======         ======
           A04_4                   00004FC0 
    -------------------------------------------------------------------------
CONFIG_C
  Relative segment, address: CODE_AREA 00004FEC - 00004FEF (0x4 bytes), align: 2
  Segment part 69. ROOT.
           ENTRY                   ADDRESS         REF BY
           =====                   =======         ======
           AT04                    00004FEC        InitMenu (main)
    -------------------------------------------------------------------------
CONFIG_C
  Relative segment, address: CODE_AREA 00004FF0 - 0000506F (0x80 bytes), align: 2
  Segment part 70. ROOT.
           ENTRY                   ADDRESS         REF BY
           =====                   =======         ======
           BOX05                   00004FF0 
    -------------------------------------------------------------------------
CONFIG_C
  Relative segment, address: CODE_AREA 00005070 - 0000509B (0x2c bytes), align: 2
  Segment part 71. ROOT.
           ENTRY                   ADDRESS         REF BY
           =====                   =======         ======
           A04_1                   00005070 
    -------------------------------------------------------------------------
CONFIG_C
  Relative segment, address: CODE_AREA 0000509C - 000050BB (0x20 bytes), align: 2
  Segment part 72. ROOT.
           ENTRY                   ADDRESS         REF BY
           =====                   =======         ======
           AN04                    0000509C        InitMenu (main)
    -------------------------------------------------------------------------
CONFIG_C
  Relative segment, address: CODE_AREA 000050BC - 000050E7 (0x2c bytes), align: 2
  Segment part 73. ROOT.
           ENTRY                   ADDRESS         REF BY
           =====                   =======         ======
           A04_2                   000050BC 
    -------------------------------------------------------------------------
CONFIG_C
  Relative segment, address: CODE_AREA 000050E8 - 0000511B (0x34 bytes), align: 2
  Segment part 74. ROOT.
           ENTRY                   ADDRESS         REF BY
           =====                   =======         ======
           AI04                    000050E8        InitMenu (main)
    -------------------------------------------------------------------------
CONFIG_C
  Relative segment, address: CODE_AREA 0000511C - 00005147 (0x2c bytes), align: 2
  Segment part 75. ROOT.
           ENTRY                   ADDRESS         REF BY
           =====                   =======         ======
           A04_3                   0000511C 
    -------------------------------------------------------------------------
CONFIG_C
  Relative segment, address: CODE_AREA 00005148 - 0000517B (0x34 bytes), align: 2
  Segment part 76. ROOT.
           ENTRY                   ADDRESS         REF BY
           =====                   =======         ======
           AF04                    00005148        InitMenu (main)
    -------------------------------------------------------------------------
CONFIG_C
  Relative segment, address: CODE_AREA 0000517C - 000051A7 (0x2c bytes), align: 2
  Segment part 77. ROOT.
           ENTRY                   ADDRESS         REF BY
           =====                   =======         ======
           mA040                   0000517C 
    -------------------------------------------------------------------------
CONFIG_C
  Relative segment, address: CODE_AREA 000051A8 - 000051D3 (0x2c bytes), align: 2
  Segment part 78. ROOT.
           ENTRY                   ADDRESS         REF BY
           =====                   =======         ======
           mA051                   000051A8 
    -------------------------------------------------------------------------
CONFIG_C
  Relative segment, address: CODE_AREA 000051D4 - 000051FF (0x2c bytes), align: 2
  Segment part 79. ROOT.
           ENTRY                   ADDRESS         REF BY
           =====                   =======         ======
           A05_4                   000051D4 
    -------------------------------------------------------------------------
CONFIG_C
  Relative segment, address: CODE_AREA 00005200 - 00005203 (0x4 bytes), align: 2
  Segment part 80. ROOT.
           ENTRY                   ADDRESS         REF BY
           =====                   =======         ======
           AT05                    00005200        InitMenu (main)
    -------------------------------------------------------------------------
CONFIG_C
  Relative segment, address: CODE_AREA 00005204 - 00005283 (0x80 bytes), align: 2
  Segment part 81. ROOT.
           ENTRY                   ADDRESS         REF BY
           =====                   =======         ======
           BOX06                   00005204 
    -------------------------------------------------------------------------
CONFIG_C
  Relative segment, address: CODE_AREA 00005284 - 000052AF (0x2c bytes), align: 2
  Segment part 82. ROOT.
           ENTRY                   ADDRESS         REF BY
           =====                   =======         ======
           A05_1                   00005284 
    -------------------------------------------------------------------------
CONFIG_C
  Relative segment, address: CODE_AREA 000052B0 - 000052CF (0x20 bytes), align: 2
  Segment part 83. ROOT.
           ENTRY                   ADDRESS         REF BY
           =====                   =======         ======
           AN05                    000052B0        InitMenu (main)
    -------------------------------------------------------------------------
CONFIG_C
  Relative segment, address: CODE_AREA 000052D0 - 000052FB (0x2c bytes), align: 2
  Segment part 84. ROOT.
           ENTRY                   ADDRESS         REF BY
           =====                   =======         ======
           A05_2                   000052D0 
    -------------------------------------------------------------------------
CONFIG_C
  Relative segment, address: CODE_AREA 000052FC - 0000532F (0x34 bytes), align: 2
  Segment part 85. ROOT.
           ENTRY                   ADDRESS         REF BY
           =====                   =======         ======
           AI05                    000052FC        InitMenu (main)
    -------------------------------------------------------------------------
CONFIG_C
  Relative segment, address: CODE_AREA 00005330 - 0000535B (0x2c bytes), align: 2
  Segment part 86. ROOT.
           ENTRY                   ADDRESS         REF BY
           =====                   =======         ======
           A05_3                   00005330 
    -------------------------------------------------------------------------
CONFIG_C
  Relative segment, address: CODE_AREA 0000535C - 0000538F (0x34 bytes), align: 2
  Segment part 87. ROOT.
           ENTRY                   ADDRESS         REF BY
           =====                   =======         ======
           AF05                    0000535C        InitMenu (main)
    -------------------------------------------------------------------------
CONFIG_C
  Relative segment, address: CODE_AREA 00005390 - 000053BB (0x2c bytes), align: 2
  Segment part 88. ROOT.
           ENTRY                   ADDRESS         REF BY
           =====                   =======         ======
           mA050                   00005390 
    -------------------------------------------------------------------------
CONFIG_C
  Relative segment, address: CODE_AREA 000053BC - 000053E7 (0x2c bytes), align: 2
  Segment part 89. ROOT.
           ENTRY                   ADDRESS         REF BY
           =====                   =======         ======
           mA061                   000053BC 
    -------------------------------------------------------------------------
CONFIG_C
  Relative segment, address: CODE_AREA 000053E8 - 00005413 (0x2c bytes), align: 2
  Segment part 90. ROOT.
           ENTRY                   ADDRESS         REF BY
           =====                   =======         ======
           A06_4                   000053E8 
    -------------------------------------------------------------------------
CONFIG_C
  Relative segment, address: CODE_AREA 00005414 - 00005417 (0x4 bytes), align: 2
  Segment part 91. ROOT.
           ENTRY                   ADDRESS         REF BY
           =====                   =======         ======
           AT06                    00005414        InitMenu (main)
    -------------------------------------------------------------------------
CONFIG_C
  Relative segment, address: CODE_AREA 00005418 - 00005497 (0x80 bytes), align: 2
  Segment part 92. ROOT.
           ENTRY                   ADDRESS         REF BY
           =====                   =======         ======
           BOX07                   00005418 
    -------------------------------------------------------------------------
CONFIG_C
  Relative segment, address: CODE_AREA 00005498 - 000054C3 (0x2c bytes), align: 2
  Segment part 93. ROOT.
           ENTRY                   ADDRESS         REF BY
           =====                   =======         ======
           A06_1                   00005498 
    -------------------------------------------------------------------------
CONFIG_C
  Relative segment, address: CODE_AREA 000054C4 - 000054E3 (0x20 bytes), align: 2
  Segment part 94. ROOT.
           ENTRY                   ADDRESS         REF BY
           =====                   =======         ======
           AN06                    000054C4        InitMenu (main)
    -------------------------------------------------------------------------
CONFIG_C
  Relative segment, address: CODE_AREA 000054E4 - 0000550F (0x2c bytes), align: 2
  Segment part 95. ROOT.
           ENTRY                   ADDRESS         REF BY
           =====                   =======         ======
           A06_2                   000054E4 
    -------------------------------------------------------------------------
CONFIG_C
  Relative segment, address: CODE_AREA 00005510 - 00005543 (0x34 bytes), align: 2
  Segment part 96. ROOT.
           ENTRY                   ADDRESS         REF BY
           =====                   =======         ======
           AI06                    00005510        InitMenu (main)
    -------------------------------------------------------------------------
CONFIG_C
  Relative segment, address: CODE_AREA 00005544 - 0000556F (0x2c bytes), align: 2
  Segment part 97. ROOT.
           ENTRY                   ADDRESS         REF BY
           =====                   =======         ======
           A06_3                   00005544 
    -------------------------------------------------------------------------
CONFIG_C
  Relative segment, address: CODE_AREA 00005570 - 000055A3 (0x34 bytes), align: 2
  Segment part 98. ROOT.
           ENTRY                   ADDRESS         REF BY
           =====                   =======         ======
           AF06                    00005570        InitMenu (main)
    -------------------------------------------------------------------------
CONFIG_C
  Relative segment, address: CODE_AREA 000055A4 - 000055CF (0x2c bytes), align: 2
  Segment part 99. ROOT.
           ENTRY                   ADDRESS         REF BY
           =====                   =======         ======
           mA060                   000055A4 
    -------------------------------------------------------------------------
CONFIG_C
  Relative segment, address: CODE_AREA 000055D0 - 000055FB (0x2c bytes), align: 2
  Segment part 100. ROOT.
           ENTRY                   ADDRESS         REF BY
           =====                   =======         ======
           mA071                   000055D0 
    -------------------------------------------------------------------------
CONFIG_C
  Relative segment, address: CODE_AREA 000055FC - 00005627 (0x2c bytes), align: 2
  Segment part 101. ROOT.
           ENTRY                   ADDRESS         REF BY
           =====                   =======         ======
           A07_4                   000055FC 
    -------------------------------------------------------------------------
CONFIG_C
  Relative segment, address: CODE_AREA 00005628 - 0000562B (0x4 bytes), align: 2
  Segment part 102. ROOT.
           ENTRY                   ADDRESS         REF BY
           =====                   =======         ======
           AT07                    00005628        InitMenu (main)
    -------------------------------------------------------------------------
CONFIG_C
  Relative segment, address: CODE_AREA 0000562C - 000056AB (0x80 bytes), align: 2
  Segment part 103. ROOT.
           ENTRY                   ADDRESS         REF BY
           =====                   =======         ======
           BOX08                   0000562C 
    -------------------------------------------------------------------------
CONFIG_C
  Relative segment, address: CODE_AREA 000056AC - 000056D7 (0x2c bytes), align: 2
  Segment part 104. ROOT.
           ENTRY                   ADDRESS         REF BY
           =====                   =======         ======
           A07_1                   000056AC 
    -------------------------------------------------------------------------
CONFIG_C
  Relative segment, address: CODE_AREA 000056D8 - 000056F7 (0x20 bytes), align: 2
  Segment part 105. ROOT.
           ENTRY                   ADDRESS         REF BY
           =====                   =======         ======
           AN07                    000056D8        InitMenu (main)
    -------------------------------------------------------------------------
CONFIG_C
  Relative segment, address: CODE_AREA 000056F8 - 00005723 (0x2c bytes), align: 2
  Segment part 106. ROOT.
           ENTRY                   ADDRESS         REF BY
           =====                   =======         ======
           A07_2                   000056F8 
    -------------------------------------------------------------------------
CONFIG_C
  Relative segment, address: CODE_AREA 00005724 - 00005757 (0x34 bytes), align: 2
  Segment part 107. ROOT.
           ENTRY                   ADDRESS         REF BY
           =====                   =======         ======
           AI07                    00005724        InitMenu (main)
    -------------------------------------------------------------------------
CONFIG_C
  Relative segment, address: CODE_AREA 00005758 - 00005783 (0x2c bytes), align: 2
  Segment part 108. ROOT.
           ENTRY                   ADDRESS         REF BY
           =====                   =======         ======
           A07_3                   00005758 
    -------------------------------------------------------------------------
CONFIG_C
  Relative segment, address: CODE_AREA 00005784 - 000057B7 (0x34 bytes), align: 2
  Segment part 109. ROOT.
           ENTRY                   ADDRESS         REF BY
           =====                   =======         ======
           AF07                    00005784        InitMenu (main)
    -------------------------------------------------------------------------
CONFIG_C
  Relative segment, address: CODE_AREA 000057B8 - 000057E3 (0x2c bytes), align: 2
  Segment part 110. ROOT.
           ENTRY                   ADDRESS         REF BY
           =====                   =======         ======
           mA070                   000057B8 
    -------------------------------------------------------------------------
CONFIG_C
  Relative segment, address: CODE_AREA 000057E4 - 0000580F (0x2c bytes), align: 2
  Segment part 111. ROOT.
           ENTRY                   ADDRESS         REF BY
           =====                   =======         ======
           mA081                   000057E4 
    -------------------------------------------------------------------------
CONFIG_C
  Relative segment, address: CODE_AREA 00005810 - 0000583B (0x2c bytes), align: 2
  Segment part 112. ROOT.
           ENTRY                   ADDRESS         REF BY
           =====                   =======         ======
           A08_4                   00005810 
    -------------------------------------------------------------------------
CONFIG_C
  Relative segment, address: CODE_AREA 0000583C - 0000583F (0x4 bytes), align: 2
  Segment part 113. ROOT.
           ENTRY                   ADDRESS         REF BY
           =====                   =======         ======
           AT08                    0000583C        InitMenu (main)
    -------------------------------------------------------------------------
CONFIG_C
  Relative segment, address: CODE_AREA 00005840 - 000058BF (0x80 bytes), align: 2
  Segment part 114. ROOT.
           ENTRY                   ADDRESS         REF BY
           =====                   =======         ======
           BOXA08                  00005840 
    -------------------------------------------------------------------------
CONFIG_C
  Relative segment, address: CODE_AREA 000058C0 - 000058EB (0x2c bytes), align: 2
  Segment part 115. ROOT.
           ENTRY                   ADDRESS         REF BY
           =====                   =======         ======
           A08_1                   000058C0 
    -------------------------------------------------------------------------
CONFIG_C
  Relative segment, address: CODE_AREA 000058EC - 0000590B (0x20 bytes), align: 2
  Segment part 116. ROOT.
           ENTRY                   ADDRESS         REF BY
           =====                   =======         ======
           AN08                    000058EC        InitMenu (main)
    -------------------------------------------------------------------------
CONFIG_C
  Relative segment, address: CODE_AREA 0000590C - 00005937 (0x2c bytes), align: 2
  Segment part 117. ROOT.
           ENTRY                   ADDRESS         REF BY
           =====                   =======         ======
           A08_2                   0000590C 
    -------------------------------------------------------------------------
CONFIG_C
  Relative segment, address: CODE_AREA 00005938 - 0000596B (0x34 bytes), align: 2
  Segment part 118. ROOT.
           ENTRY                   ADDRESS         REF BY
           =====                   =======         ======
           AI08                    00005938        InitMenu (main)
    -------------------------------------------------------------------------
CONFIG_C
  Relative segment, address: CODE_AREA 0000596C - 00005997 (0x2c bytes), align: 2
  Segment part 119. ROOT.
           ENTRY                   ADDRESS         REF BY
           =====                   =======         ======
           A08_3                   0000596C 
    -------------------------------------------------------------------------
CONFIG_C
  Relative segment, address: CODE_AREA 00005998 - 000059CB (0x34 bytes), align: 2
  Segment part 120. ROOT.
           ENTRY                   ADDRESS         REF BY
           =====                   =======         ======
           AF08                    00005998        InitMenu (main)
    -------------------------------------------------------------------------
CONFIG_C
  Relative segment, address: CODE_AREA 000059CC - 000059F7 (0x2c bytes), align: 2
  Segment part 121. ROOT.
           ENTRY                   ADDRESS         REF BY
           =====                   =======         ======
           mA080                   000059CC 
    -------------------------------------------------------------------------
CONFIG_C
  Relative segment, address: CODE_AREA 000059F8 - 00005A23 (0x2c bytes), align: 2
  Segment part 122. ROOT.
           ENTRY                   ADDRESS         REF BY
           =====                   =======         ======
           mA091                   000059F8 
    -------------------------------------------------------------------------
CONFIG_C
  Relative segment, address: CODE_AREA 00005A24 - 00005A4F (0x2c bytes), align: 2
  Segment part 123. ROOT.
           ENTRY                   ADDRESS         REF BY
           =====                   =======         ======
           A09_4                   00005A24 
    -------------------------------------------------------------------------
CONFIG_C
  Relative segment, address: CODE_AREA 00005A50 - 00005A53 (0x4 bytes), align: 2
  Segment part 124. ROOT.
           ENTRY                   ADDRESS         REF BY
           =====                   =======         ======
           AT09                    00005A50        InitMenu (main)
    -------------------------------------------------------------------------
CONFIG_C
  Relative segment, address: CODE_AREA 00005A54 - 00005AD3 (0x80 bytes), align: 2
  Segment part 125. ROOT.
           ENTRY                   ADDRESS         REF BY
           =====                   =======         ======
           BOX09                   00005A54 
    -------------------------------------------------------------------------
CONFIG_C
  Relative segment, address: CODE_AREA 00005AD4 - 00005AFF (0x2c bytes), align: 2
  Segment part 126. ROOT.
           ENTRY                   ADDRESS         REF BY
           =====                   =======         ======
           A09_1                   00005AD4 
    -------------------------------------------------------------------------
CONFIG_C
  Relative segment, address: CODE_AREA 00005B00 - 00005B1F (0x20 bytes), align: 2
  Segment part 127. ROOT.
           ENTRY                   ADDRESS         REF BY
           =====                   =======         ======
           AN09                    00005B00        InitMenu (main)
    -------------------------------------------------------------------------
CONFIG_C
  Relative segment, address: CODE_AREA 00005B20 - 00005B4B (0x2c bytes), align: 2
  Segment part 128. ROOT.
           ENTRY                   ADDRESS         REF BY
           =====                   =======         ======
           A09_2                   00005B20 
    -------------------------------------------------------------------------
CONFIG_C
  Relative segment, address: CODE_AREA 00005B4C - 00005B7F (0x34 bytes), align: 2
  Segment part 129. ROOT.
           ENTRY                   ADDRESS         REF BY
           =====                   =======         ======
           AI09                    00005B4C        InitMenu (main)
    -------------------------------------------------------------------------
CONFIG_C
  Relative segment, address: CODE_AREA 00005B80 - 00005BAB (0x2c bytes), align: 2
  Segment part 130. ROOT.
           ENTRY                   ADDRESS         REF BY
           =====                   =======         ======
           A09_3                   00005B80 
    -------------------------------------------------------------------------
CONFIG_C
  Relative segment, address: CODE_AREA 00005BAC - 00005BDF (0x34 bytes), align: 2
  Segment part 131. ROOT.
           ENTRY                   ADDRESS         REF BY
           =====                   =======         ======
           AF09                    00005BAC        InitMenu (main)
    -------------------------------------------------------------------------
CONFIG_C
  Relative segment, address: CODE_AREA 00005BE0 - 00005C0B (0x2c bytes), align: 2
  Segment part 132. ROOT.
           ENTRY                   ADDRESS         REF BY
           =====                   =======         ======
           mA090                   00005BE0 
    -------------------------------------------------------------------------
CONFIG_C
  Relative segment, address: CODE_AREA 00005C0C - 00005C37 (0x2c bytes), align: 2
  Segment part 133. ROOT.
           ENTRY                   ADDRESS         REF BY
           =====                   =======         ======
           mA101                   00005C0C 
    -------------------------------------------------------------------------
CONFIG_C
  Relative segment, address: CODE_AREA 00005C38 - 00005C63 (0x2c bytes), align: 2
  Segment part 134. ROOT.
           ENTRY                   ADDRESS         REF BY
           =====                   =======         ======
           A10_4                   00005C38 
    -------------------------------------------------------------------------
CONFIG_C
  Relative segment, address: CODE_AREA 00005C64 - 00005C67 (0x4 bytes), align: 2
  Segment part 135. ROOT.
           ENTRY                   ADDRESS         REF BY
           =====                   =======         ======
           AT10                    00005C64        InitMenu (main)
    -------------------------------------------------------------------------
CONFIG_C
  Relative segment, address: CODE_AREA 00005C68 - 00005CE7 (0x80 bytes), align: 2
  Segment part 136. ROOT.
           ENTRY                   ADDRESS         REF BY
           =====                   =======         ======
           BOX10                   00005C68 
    -------------------------------------------------------------------------
CONFIG_C
  Relative segment, address: CODE_AREA 00005CE8 - 00005D13 (0x2c bytes), align: 2
  Segment part 137. ROOT.
           ENTRY                   ADDRESS         REF BY
           =====                   =======         ======
           A10_1                   00005CE8 
    -------------------------------------------------------------------------
CONFIG_C
  Relative segment, address: CODE_AREA 00005D14 - 00005D33 (0x20 bytes), align: 2
  Segment part 138. ROOT.
           ENTRY                   ADDRESS         REF BY
           =====                   =======         ======
           AN10                    00005D14        InitMenu (main)
    -------------------------------------------------------------------------
CONFIG_C
  Relative segment, address: CODE_AREA 00005D34 - 00005D5F (0x2c bytes), align: 2
  Segment part 139. ROOT.
           ENTRY                   ADDRESS         REF BY
           =====                   =======         ======
           A10_2                   00005D34 
    -------------------------------------------------------------------------
CONFIG_C
  Relative segment, address: CODE_AREA 00005D60 - 00005D93 (0x34 bytes), align: 2
  Segment part 140. ROOT.
           ENTRY                   ADDRESS         REF BY
           =====                   =======         ======
           AI10                    00005D60        InitMenu (main)
    -------------------------------------------------------------------------
CONFIG_C
  Relative segment, address: CODE_AREA 00005D94 - 00005DBF (0x2c bytes), align: 2
  Segment part 141. ROOT.
           ENTRY                   ADDRESS         REF BY
           =====                   =======         ======
           A10_3                   00005D94 
    -------------------------------------------------------------------------
CONFIG_C
  Relative segment, address: CODE_AREA 00005DC0 - 00005DF3 (0x34 bytes), align: 2
  Segment part 142. ROOT.
           ENTRY                   ADDRESS         REF BY
           =====                   =======         ======
           AF10                    00005DC0        InitMenu (main)
    -------------------------------------------------------------------------
CONFIG_C
  Relative segment, address: CODE_AREA 00005DF4 - 00005E1F (0x2c bytes), align: 2
  Segment part 143. ROOT.
           ENTRY                   ADDRESS         REF BY
           =====                   =======         ======
           mA100                   00005DF4 
    -------------------------------------------------------------------------
CONFIG_C
  Relative segment, address: CODE_AREA 00005E20 - 00005E4B (0x2c bytes), align: 2
  Segment part 144. ROOT.
           ENTRY                   ADDRESS         REF BY
           =====                   =======         ======
           mA111                   00005E20 
    -------------------------------------------------------------------------
CONFIG_C
  Relative segment, address: CODE_AREA 00005E4C - 00005E77 (0x2c bytes), align: 2
  Segment part 145. ROOT.
           ENTRY                   ADDRESS         REF BY
           =====                   =======         ======
           A11_4                   00005E4C 
    -------------------------------------------------------------------------
CONFIG_C
  Relative segment, address: CODE_AREA 00005E78 - 00005E7B (0x4 bytes), align: 2
  Segment part 146. ROOT.
           ENTRY                   ADDRESS         REF BY
           =====                   =======         ======
           AT11                    00005E78        InitMenu (main)
    -------------------------------------------------------------------------
CONFIG_C
  Relative segment, address: CODE_AREA 00005E7C - 00005EFB (0x80 bytes), align: 2
  Segment part 147. ROOT.
           ENTRY                   ADDRESS         REF BY
           =====                   =======         ======
           BOX11                   00005E7C 
    -------------------------------------------------------------------------
CONFIG_C
  Relative segment, address: CODE_AREA 00005EFC - 00005F27 (0x2c bytes), align: 2
  Segment part 148. ROOT.
           ENTRY                   ADDRESS         REF BY
           =====                   =======         ======
           A11_1                   00005EFC 
    -------------------------------------------------------------------------
CONFIG_C
  Relative segment, address: CODE_AREA 00005F28 - 00005F47 (0x20 bytes), align: 2
  Segment part 149. ROOT.
           ENTRY                   ADDRESS         REF BY
           =====                   =======         ======
           AN11                    00005F28        InitMenu (main)
    -------------------------------------------------------------------------
CONFIG_C
  Relative segment, address: CODE_AREA 00005F48 - 00005F73 (0x2c bytes), align: 2
  Segment part 150. ROOT.
           ENTRY                   ADDRESS         REF BY
           =====                   =======         ======
           A11_2                   00005F48 
    -------------------------------------------------------------------------
CONFIG_C
  Relative segment, address: CODE_AREA 00005F74 - 00005FA7 (0x34 bytes), align: 2
  Segment part 151. ROOT.
           ENTRY                   ADDRESS         REF BY
           =====                   =======         ======
           AI11                    00005F74        InitMenu (main)
    -------------------------------------------------------------------------
CONFIG_C
  Relative segment, address: CODE_AREA 00005FA8 - 00005FD3 (0x2c bytes), align: 2
  Segment part 152. ROOT.
           ENTRY                   ADDRESS         REF BY
           =====                   =======         ======
           A11_3                   00005FA8 
    -------------------------------------------------------------------------
CONFIG_C
  Relative segment, address: CODE_AREA 00005FD4 - 00006007 (0x34 bytes), align: 2
  Segment part 153. ROOT.
           ENTRY                   ADDRESS         REF BY
           =====                   =======         ======
           AF11                    00005FD4        InitMenu (main)
    -------------------------------------------------------------------------
CONFIG_C
  Relative segment, address: CODE_AREA 00006008 - 00006033 (0x2c bytes), align: 2
  Segment part 154. ROOT.
           ENTRY                   ADDRESS         REF BY
           =====                   =======         ======
           mA110                   00006008 
    -------------------------------------------------------------------------
CONFIG_C
  Relative segment, address: CODE_AREA 00006034 - 0000605F (0x2c bytes), align: 2
  Segment part 155. ROOT.
           ENTRY                   ADDRESS         REF BY
           =====                   =======         ======
           mA121                   00006034 
    -------------------------------------------------------------------------
CONFIG_C
  Relative segment, address: CODE_AREA 00006060 - 0000608B (0x2c bytes), align: 2
  Segment part 156. ROOT.
           ENTRY                   ADDRESS         REF BY
           =====                   =======         ======
           A12_4                   00006060 
    -------------------------------------------------------------------------
CONFIG_C
  Relative segment, address: CODE_AREA 0000608C - 0000608F (0x4 bytes), align: 2
  Segment part 157. ROOT.
           ENTRY                   ADDRESS         REF BY
           =====                   =======         ======
           AT12                    0000608C        InitMenu (main)
    -------------------------------------------------------------------------
CONFIG_C
  Relative segment, address: CODE_AREA 00006090 - 0000610F (0x80 bytes), align: 2
  Segment part 158. ROOT.
           ENTRY                   ADDRESS         REF BY
           =====                   =======         ======
           BOX12                   00006090 
    -------------------------------------------------------------------------
CONFIG_C
  Relative segment, address: CODE_AREA 00006110 - 0000613B (0x2c bytes), align: 2
  Segment part 159. ROOT.
           ENTRY                   ADDRESS         REF BY
           =====                   =======         ======
           A12_1                   00006110 
    -------------------------------------------------------------------------
CONFIG_C
  Relative segment, address: CODE_AREA 0000613C - 0000615B (0x20 bytes), align: 2
  Segment part 160. ROOT.
           ENTRY                   ADDRESS         REF BY
           =====                   =======         ======
           AN12                    0000613C        InitMenu (main)
    -------------------------------------------------------------------------
CONFIG_C
  Relative segment, address: CODE_AREA 0000615C - 00006187 (0x2c bytes), align: 2
  Segment part 161. ROOT.
           ENTRY                   ADDRESS         REF BY
           =====                   =======         ======
           A12_2                   0000615C 
    -------------------------------------------------------------------------
CONFIG_C
  Relative segment, address: CODE_AREA 00006188 - 000061BB (0x34 bytes), align: 2
  Segment part 162. ROOT.
           ENTRY                   ADDRESS         REF BY
           =====                   =======         ======
           AI12                    00006188        InitMenu (main)
    -------------------------------------------------------------------------
CONFIG_C
  Relative segment, address: CODE_AREA 000061BC - 000061E7 (0x2c bytes), align: 2
  Segment part 163. ROOT.
           ENTRY                   ADDRESS         REF BY
           =====                   =======         ======
           A12_3                   000061BC 
    -------------------------------------------------------------------------
CONFIG_C
  Relative segment, address: CODE_AREA 000061E8 - 0000621B (0x34 bytes), align: 2
  Segment part 164. ROOT.
           ENTRY                   ADDRESS         REF BY
           =====                   =======         ======
           AF12                    000061E8        InitMenu (main)
    -------------------------------------------------------------------------
CONFIG_C
  Relative segment, address: CODE_AREA 0000621C - 00006247 (0x2c bytes), align: 2
  Segment part 165. ROOT.
           ENTRY                   ADDRESS         REF BY
           =====                   =======         ======
           mA120                   0000621C 
    -------------------------------------------------------------------------
CONFIG_C
  Relative segment, address: CODE_AREA 00006248 - 00006273 (0x2c bytes), align: 2
  Segment part 166. ROOT.
           ENTRY                   ADDRESS         REF BY
           =====                   =======         ======
           SCR1                    00006248 
    -------------------------------------------------------------------------
CONFIG_C
  Relative segment, address: CODE_AREA 00006274 - 0000629F (0x2c bytes), align: 2
  Segment part 167. ROOT.
           ENTRY                   ADDRESS         REF BY
           =====                   =======         ======
           SCR21                   00006274 
    -------------------------------------------------------------------------
CONFIG_C
  Relative segment, address: CODE_AREA 000062A0 - 000062CB (0x2c bytes), align: 2
  Segment part 168. ROOT.
           ENTRY                   ADDRESS         REF BY
           =====                   =======         ======
           SCR2_1                  000062A0 
    -------------------------------------------------------------------------
CONFIG_C
  Relative segment, address: CODE_AREA 000062CC - 000062CF (0x4 bytes), align: 2
  Segment part 169. ROOT.
           ENTRY                   ADDRESS         REF BY
           =====                   =======         ======
           TEMP_ENA                000062CC        InitShow (main)
    -------------------------------------------------------------------------
CONFIG_C
  Relative segment, address: CODE_AREA 000062D0 - 000062FB (0x2c bytes), align: 2
  Segment part 170. ROOT.
           ENTRY                   ADDRESS         REF BY
           =====                   =======         ======
           SCR2_2                  000062D0 
    -------------------------------------------------------------------------
CONFIG_C
  Relative segment, address: CODE_AREA 000062FC - 000062FF (0x4 bytes), align: 2
  Segment part 171. ROOT.
           ENTRY                   ADDRESS         REF BY
           =====                   =======         ======
           TEMP_X                  000062FC        InitScreen (main)
    -------------------------------------------------------------------------
CONFIG_C
  Relative segment, address: CODE_AREA 00006300 - 00006303 (0x4 bytes), align: 2
  Segment part 172. ROOT.
           ENTRY                   ADDRESS         REF BY
           =====                   =======         ======
           TEMP_Y                  00006300        InitScreen (main)
    -------------------------------------------------------------------------
CONFIG_C
  Relative segment, address: CODE_AREA 00006304 - 0000632F (0x2c bytes), align: 2
  Segment part 173. ROOT.
           ENTRY                   ADDRESS         REF BY
           =====                   =======         ======
           SCR2_3                  00006304 
    -------------------------------------------------------------------------
CONFIG_C
  Relative segment, address: CODE_AREA 00006330 - 00006333 (0x4 bytes), align: 2
  Segment part 174. ROOT.
           ENTRY                   ADDRESS         REF BY
           =====                   =======         ======
           TEMP_CS                 00006330        InitShow (main)
    -------------------------------------------------------------------------
CONFIG_C
  Relative segment, address: CODE_AREA 00006334 - 0000635F (0x2c bytes), align: 2
  Segment part 175. ROOT.
           ENTRY                   ADDRESS         REF BY
           =====                   =======         ======
           SCR2_4                  00006334 
    -------------------------------------------------------------------------
CONFIG_C
  Relative segment, address: CODE_AREA 00006360 - 00006363 (0x4 bytes), align: 2
  Segment part 176. ROOT.
           ENTRY                   ADDRESS         REF BY
           =====                   =======         ======
           TEMP_CB                 00006360        InitShow (main)
    -------------------------------------------------------------------------
CONFIG_C
  Relative segment, address: CODE_AREA 00006364 - 0000638F (0x2c bytes), align: 2
  Segment part 177. ROOT.
           ENTRY                   ADDRESS         REF BY
           =====                   =======         ======
           SCR2_5                  00006364 
    -------------------------------------------------------------------------
CONFIG_C
  Relative segment, address: CODE_AREA 00006390 - 00006393 (0x4 bytes), align: 2
  Segment part 178. ROOT.
           ENTRY                   ADDRESS         REF BY
           =====                   =======         ======
           TEMP_T                  00006390        InitShow (main)
    -------------------------------------------------------------------------
CONFIG_C
  Relative segment, address: CODE_AREA 00006394 - 000063BF (0x2c bytes), align: 2
  Segment part 179. ROOT.
           ENTRY                   ADDRESS         REF BY
           =====                   =======         ======
           SCR2_6                  00006394 
    -------------------------------------------------------------------------
CONFIG_C
  Relative segment, address: CODE_AREA 000063C0 - 000063C3 (0x4 bytes), align: 2
  Segment part 180. ROOT.
           ENTRY                   ADDRESS         REF BY
           =====                   =======         ======
           TEMP_FT                 000063C0        InitShow (main)
    -------------------------------------------------------------------------
CONFIG_C
  Relative segment, address: CODE_AREA 000063C4 - 000063EF (0x2c bytes), align: 2
  Segment part 181. ROOT.
           ENTRY                   ADDRESS         REF BY
           =====                   =======         ======
           SCR20                   000063C4 
    -------------------------------------------------------------------------
CONFIG_C
  Relative segment, address: CODE_AREA 000063F0 - 0000641B (0x2c bytes), align: 2
  Segment part 182. ROOT.
           ENTRY                   ADDRESS         REF BY
           =====                   =======         ======
           SCR31                   000063F0 
    -------------------------------------------------------------------------
CONFIG_C
  Relative segment, address: CODE_AREA 0000641C - 00006447 (0x2c bytes), align: 2
  Segment part 183. ROOT.
           ENTRY                   ADDRESS         REF BY
           =====                   =======         ======
           SCR3_1                  0000641C 
    -------------------------------------------------------------------------
CONFIG_C
  Relative segment, address: CODE_AREA 00006448 - 0000644B (0x4 bytes), align: 2
  Segment part 184. ROOT.
           ENTRY                   ADDRESS         REF BY
           =====                   =======         ======
           VOLT_ENA                00006448        InitShow (main)
    -------------------------------------------------------------------------
CONFIG_C
  Relative segment, address: CODE_AREA 0000644C - 00006477 (0x2c bytes), align: 2
  Segment part 185. ROOT.
           ENTRY                   ADDRESS         REF BY
           =====                   =======         ======
           SCR3_2                  0000644C 
    -------------------------------------------------------------------------
CONFIG_C
  Relative segment, address: CODE_AREA 00006478 - 0000647B (0x4 bytes), align: 2
  Segment part 186. ROOT.
           ENTRY                   ADDRESS         REF BY
           =====                   =======         ======
           VOLT_M                  00006478        InitScreen (main)
    -------------------------------------------------------------------------
CONFIG_C
  Relative segment, address: CODE_AREA 0000647C - 000064BB (0x40 bytes), align: 2
  Segment part 187. ROOT.
           ENTRY                   ADDRESS         REF BY
           =====                   =======         ======
           BOX33                   0000647C 
    -------------------------------------------------------------------------
CONFIG_C
  Relative segment, address: CODE_AREA 000064BC - 000064E7 (0x2c bytes), align: 2
  Segment part 188. ROOT.
           ENTRY                   ADDRESS         REF BY
           =====                   =======         ======
           SCR3_3                  000064BC 
    -------------------------------------------------------------------------
CONFIG_C
  Relative segment, address: CODE_AREA 000064E8 - 000064EB (0x4 bytes), align: 2
  Segment part 189. ROOT.
           ENTRY                   ADDRESS         REF BY
           =====                   =======         ======
           VOLT_X                  000064E8        InitScreen (main)
    -------------------------------------------------------------------------
CONFIG_C
  Relative segment, address: CODE_AREA 000064EC - 000064EF (0x4 bytes), align: 2
  Segment part 190. ROOT.
           ENTRY                   ADDRESS         REF BY
           =====                   =======         ======
           VOLT_Y                  000064EC        InitScreen (main)
    -------------------------------------------------------------------------
CONFIG_C
  Relative segment, address: CODE_AREA 000064F0 - 0000651B (0x2c bytes), align: 2
  Segment part 191. ROOT.
           ENTRY                   ADDRESS         REF BY
           =====                   =======         ======
           SCR3_4                  000064F0 
    -------------------------------------------------------------------------
CONFIG_C
  Relative segment, address: CODE_AREA 0000651C - 0000651F (0x4 bytes), align: 2
  Segment part 192. ROOT.
           ENTRY                   ADDRESS         REF BY
           =====                   =======         ======
           VOLT_CS                 0000651C        InitShow (main)
    -------------------------------------------------------------------------
CONFIG_C
  Relative segment, address: CODE_AREA 00006520 - 0000654B (0x2c bytes), align: 2
  Segment part 193. ROOT.
           ENTRY                   ADDRESS         REF BY
           =====                   =======         ======
           SCR3_5                  00006520 
    -------------------------------------------------------------------------
CONFIG_C
  Relative segment, address: CODE_AREA 0000654C - 0000654F (0x4 bytes), align: 2
  Segment part 194. ROOT.
           ENTRY                   ADDRESS         REF BY
           =====                   =======         ======
           VOLT_CB                 0000654C        InitShow (main)
    -------------------------------------------------------------------------
CONFIG_C
  Relative segment, address: CODE_AREA 00006550 - 0000657B (0x2c bytes), align: 2
  Segment part 195. ROOT.
           ENTRY                   ADDRESS         REF BY
           =====                   =======         ======
           SCR3_6                  00006550 
    -------------------------------------------------------------------------
CONFIG_C
  Relative segment, address: CODE_AREA 0000657C - 0000657F (0x4 bytes), align: 2
  Segment part 196. ROOT.
           ENTRY                   ADDRESS         REF BY
           =====                   =======         ======
           VOLT_T                  0000657C        InitShow (main)
    -------------------------------------------------------------------------
CONFIG_C
  Relative segment, address: CODE_AREA 00006580 - 000065AB (0x2c bytes), align: 2
  Segment part 197. ROOT.
           ENTRY                   ADDRESS         REF BY
           =====                   =======         ======
           SCR3_7                  00006580 
    -------------------------------------------------------------------------
CONFIG_C
  Relative segment, address: CODE_AREA 000065AC - 000065AF (0x4 bytes), align: 2
  Segment part 198. ROOT.
           ENTRY                   ADDRESS         REF BY
           =====                   =======         ======
           VOLT_FT                 000065AC        InitShow (main)
    -------------------------------------------------------------------------
CONFIG_C
  Relative segment, address: CODE_AREA 000065B0 - 000065DB (0x2c bytes), align: 2
  Segment part 199. ROOT.
           ENTRY                   ADDRESS         REF BY
           =====                   =======         ======
           SCR30                   000065B0 
    -------------------------------------------------------------------------
CONFIG_C
  Relative segment, address: CODE_AREA 000065DC - 00006607 (0x2c bytes), align: 2
  Segment part 200. ROOT.
           ENTRY                   ADDRESS         REF BY
           =====                   =======         ======
           SCR41                   000065DC 
    -------------------------------------------------------------------------
CONFIG_C
  Relative segment, address: CODE_AREA 00006608 - 00006633 (0x2c bytes), align: 2
  Segment part 201. ROOT.
           ENTRY                   ADDRESS         REF BY
           =====                   =======         ======
           SCR4_1                  00006608 
    -------------------------------------------------------------------------
CONFIG_C
  Relative segment, address: CODE_AREA 00006634 - 00006637 (0x4 bytes), align: 2
  Segment part 202. ROOT.
           ENTRY                   ADDRESS         REF BY
           =====                   =======         ======
           RAMT_ENA                00006634        InitShow (main)
    -------------------------------------------------------------------------
CONFIG_C
  Relative segment, address: CODE_AREA 00006638 - 00006663 (0x2c bytes), align: 2
  Segment part 203. ROOT.
           ENTRY                   ADDRESS         REF BY
           =====                   =======         ======
           SCR4_2                  00006638 
    -------------------------------------------------------------------------
CONFIG_C
  Relative segment, address: CODE_AREA 00006664 - 00006667 (0x4 bytes), align: 2
  Segment part 204. ROOT.
           ENTRY                   ADDRESS         REF BY
           =====                   =======         ======
           RAMT_X                  00006664        InitScreen (main)
    -------------------------------------------------------------------------
CONFIG_C
  Relative segment, address: CODE_AREA 00006668 - 0000666B (0x4 bytes), align: 2
  Segment part 205. ROOT.
           ENTRY                   ADDRESS         REF BY
           =====                   =======         ======
           RAMT_Y                  00006668        InitScreen (main)
    -------------------------------------------------------------------------
CONFIG_C
  Relative segment, address: CODE_AREA 0000666C - 00006697 (0x2c bytes), align: 2
  Segment part 206. ROOT.
           ENTRY                   ADDRESS         REF BY
           =====                   =======         ======
           SCR4_3                  0000666C 
    -------------------------------------------------------------------------
CONFIG_C
  Relative segment, address: CODE_AREA 00006698 - 0000669B (0x4 bytes), align: 2
  Segment part 207. ROOT.
           ENTRY                   ADDRESS         REF BY
           =====                   =======         ======
           RAMT_CS                 00006698        InitShow (main)
    -------------------------------------------------------------------------
CONFIG_C
  Relative segment, address: CODE_AREA 0000669C - 000066C7 (0x2c bytes), align: 2
  Segment part 208. ROOT.
           ENTRY                   ADDRESS         REF BY
           =====                   =======         ======
           SCR4_4                  0000669C 
    -------------------------------------------------------------------------
CONFIG_C
  Relative segment, address: CODE_AREA 000066C8 - 000066CB (0x4 bytes), align: 2
  Segment part 209. ROOT.
           ENTRY                   ADDRESS         REF BY
           =====                   =======         ======
           RAMT_CB                 000066C8        InitShow (main)
    -------------------------------------------------------------------------
CONFIG_C
  Relative segment, address: CODE_AREA 000066CC - 000066F7 (0x2c bytes), align: 2
  Segment part 210. ROOT.
           ENTRY                   ADDRESS         REF BY
           =====                   =======         ======
           SCR4_5                  000066CC 
    -------------------------------------------------------------------------
CONFIG_C
  Relative segment, address: CODE_AREA 000066F8 - 000066FB (0x4 bytes), align: 2
  Segment part 211. ROOT.
           ENTRY                   ADDRESS         REF BY
           =====                   =======         ======
           RAMT_T                  000066F8        InitShow (main)
    -------------------------------------------------------------------------
CONFIG_C
  Relative segment, address: CODE_AREA 000066FC - 00006727 (0x2c bytes), align: 2
  Segment part 212. ROOT.
           ENTRY                   ADDRESS         REF BY
           =====                   =======         ======
           SCR4_6                  000066FC 
    -------------------------------------------------------------------------
CONFIG_C
  Relative segment, address: CODE_AREA 00006728 - 0000672B (0x4 bytes), align: 2
  Segment part 213. ROOT.
           ENTRY                   ADDRESS         REF BY
           =====                   =======         ======
           RAMT_FT                 00006728        InitShow (main)
    -------------------------------------------------------------------------
CONFIG_C
  Relative segment, address: CODE_AREA 0000672C - 00006757 (0x2c bytes), align: 2
  Segment part 214. ROOT.
           ENTRY                   ADDRESS         REF BY
           =====                   =======         ======
           SCR40                   0000672C 
    -------------------------------------------------------------------------
CONFIG_C
  Relative segment, address: CODE_AREA 00006758 - 00006783 (0x2c bytes), align: 2
  Segment part 215. ROOT.
           ENTRY                   ADDRESS         REF BY
           =====                   =======         ======
           SCR51                   00006758 
    -------------------------------------------------------------------------
CONFIG_C
  Relative segment, address: CODE_AREA 00006784 - 000067AF (0x2c bytes), align: 2
  Segment part 216. ROOT.
           ENTRY                   ADDRESS         REF BY
           =====                   =======         ======
           SCR5_1                  00006784 
    -------------------------------------------------------------------------
CONFIG_C
  Relative segment, address: CODE_AREA 000067B0 - 000067B3 (0x4 bytes), align: 2
  Segment part 217. ROOT.
           ENTRY                   ADDRESS         REF BY
           =====                   =======         ======
           NETI_ENA                000067B0        InitShow (main)
    -------------------------------------------------------------------------
CONFIG_C
  Relative segment, address: CODE_AREA 000067B4 - 000067DF (0x2c bytes), align: 2
  Segment part 218. ROOT.
           ENTRY                   ADDRESS         REF BY
           =====                   =======         ======
           SCR5_2                  000067B4 
    -------------------------------------------------------------------------
CONFIG_C
  Relative segment, address: CODE_AREA 000067E0 - 000067E3 (0x4 bytes), align: 2
  Segment part 219. ROOT.
           ENTRY                   ADDRESS         REF BY
           =====                   =======         ======
           NETI_X                  000067E0        InitScreen (main)
    -------------------------------------------------------------------------
CONFIG_C
  Relative segment, address: CODE_AREA 000067E4 - 000067E7 (0x4 bytes), align: 2
  Segment part 220. ROOT.
           ENTRY                   ADDRESS         REF BY
           =====                   =======         ======
           NETI_Y                  000067E4        InitScreen (main)
    -------------------------------------------------------------------------
CONFIG_C
  Relative segment, address: CODE_AREA 000067E8 - 00006813 (0x2c bytes), align: 2
  Segment part 221. ROOT.
           ENTRY                   ADDRESS         REF BY
           =====                   =======         ======
           SCR5_3                  000067E8 
    -------------------------------------------------------------------------
CONFIG_C
  Relative segment, address: CODE_AREA 00006814 - 00006817 (0x4 bytes), align: 2
  Segment part 222. ROOT.
           ENTRY                   ADDRESS         REF BY
           =====                   =======         ======
           NETI_CS                 00006814        InitShow (main)
    -------------------------------------------------------------------------
CONFIG_C
  Relative segment, address: CODE_AREA 00006818 - 00006843 (0x2c bytes), align: 2
  Segment part 223. ROOT.
           ENTRY                   ADDRESS         REF BY
           =====                   =======         ======
           SCR5_4                  00006818 
    -------------------------------------------------------------------------
CONFIG_C
  Relative segment, address: CODE_AREA 00006844 - 00006847 (0x4 bytes), align: 2
  Segment part 224. ROOT.
           ENTRY                   ADDRESS         REF BY
           =====                   =======         ======
           NETI_CB                 00006844        InitShow (main)
    -------------------------------------------------------------------------
CONFIG_C
  Relative segment, address: CODE_AREA 00006848 - 00006873 (0x2c bytes), align: 2
  Segment part 225. ROOT.
           ENTRY                   ADDRESS         REF BY
           =====                   =======         ======
           SCR5_5                  00006848 
    -------------------------------------------------------------------------
CONFIG_C
  Relative segment, address: CODE_AREA 00006874 - 00006877 (0x4 bytes), align: 2
  Segment part 226. ROOT.
           ENTRY                   ADDRESS         REF BY
           =====                   =======         ======
           NETI_T                  00006874        InitShow (main)
    -------------------------------------------------------------------------
CONFIG_C
  Relative segment, address: CODE_AREA 00006878 - 000068A3 (0x2c bytes), align: 2
  Segment part 227. ROOT.
           ENTRY                   ADDRESS         REF BY
           =====                   =======         ======
           SCR5_6                  00006878 
    -------------------------------------------------------------------------
CONFIG_C
  Relative segment, address: CODE_AREA 000068A4 - 000068A7 (0x4 bytes), align: 2
  Segment part 228. ROOT.
           ENTRY                   ADDRESS         REF BY
           =====                   =======         ======
           NETI_FT                 000068A4        InitShow (main)
    -------------------------------------------------------------------------
CONFIG_C
  Relative segment, address: CODE_AREA 000068A8 - 000068D3 (0x2c bytes), align: 2
  Segment part 229. ROOT.
           ENTRY                   ADDRESS         REF BY
           =====                   =======         ======
           SCR50                   000068A8 
    -------------------------------------------------------------------------
CONFIG_C
  Relative segment, address: CODE_AREA 000068D4 - 000068FF (0x2c bytes), align: 2
  Segment part 230. ROOT.
           ENTRY                   ADDRESS         REF BY
           =====                   =======         ======
           SCR61                   000068D4 
    -------------------------------------------------------------------------
CONFIG_C
  Relative segment, address: CODE_AREA 00006900 - 0000692B (0x2c bytes), align: 2
  Segment part 231. ROOT.
           ENTRY                   ADDRESS         REF BY
           =====                   =======         ======
           SCR6_1                  00006900 
    -------------------------------------------------------------------------
CONFIG_C
  Relative segment, address: CODE_AREA 0000692C - 0000692F (0x4 bytes), align: 2
  Segment part 232. ROOT.
           ENTRY                   ADDRESS         REF BY
           =====                   =======         ======
           MGPS_ENA                0000692C        InitShow (main)
    -------------------------------------------------------------------------
CONFIG_C
  Relative segment, address: CODE_AREA 00006930 - 0000695B (0x2c bytes), align: 2
  Segment part 233. ROOT.
           ENTRY                   ADDRESS         REF BY
           =====                   =======         ======
           SCR6_2                  00006930 
    -------------------------------------------------------------------------
CONFIG_C
  Relative segment, address: CODE_AREA 0000695C - 0000695F (0x4 bytes), align: 2
  Segment part 234. ROOT.
           ENTRY                   ADDRESS         REF BY
           =====                   =======         ======
           MGPS_X                  0000695C        InitScreen (main)
    -------------------------------------------------------------------------
CONFIG_C
  Relative segment, address: CODE_AREA 00006960 - 00006963 (0x4 bytes), align: 2
  Segment part 235. ROOT.
           ENTRY                   ADDRESS         REF BY
           =====                   =======         ======
           MGPS_Y                  00006960        InitScreen (main)
    -------------------------------------------------------------------------
CONFIG_C
  Relative segment, address: CODE_AREA 00006964 - 0000698F (0x2c bytes), align: 2
  Segment part 236. ROOT.
           ENTRY                   ADDRESS         REF BY
           =====                   =======         ======
           SCR6_3                  00006964 
    -------------------------------------------------------------------------
CONFIG_C
  Relative segment, address: CODE_AREA 00006990 - 00006993 (0x4 bytes), align: 2
  Segment part 237. ROOT.
           ENTRY                   ADDRESS         REF BY
           =====                   =======         ======
           MGPS_CS                 00006990        InitShow (main)
    -------------------------------------------------------------------------
CONFIG_C
  Relative segment, address: CODE_AREA 00006994 - 000069BF (0x2c bytes), align: 2
  Segment part 238. ROOT.
           ENTRY                   ADDRESS         REF BY
           =====                   =======         ======
           SCR6_4                  00006994 
    -------------------------------------------------------------------------
CONFIG_C
  Relative segment, address: CODE_AREA 000069C0 - 000069C3 (0x4 bytes), align: 2
  Segment part 239. ROOT.
           ENTRY                   ADDRESS         REF BY
           =====                   =======         ======
           MGPS_CB                 000069C0        InitShow (main)
    -------------------------------------------------------------------------
CONFIG_C
  Relative segment, address: CODE_AREA 000069C4 - 000069EF (0x2c bytes), align: 2
  Segment part 240. ROOT.
           ENTRY                   ADDRESS         REF BY
           =====                   =======         ======
           SCR6_5                  000069C4 
    -------------------------------------------------------------------------
CONFIG_C
  Relative segment, address: CODE_AREA 000069F0 - 000069F3 (0x4 bytes), align: 2
  Segment part 241. ROOT.
           ENTRY                   ADDRESS         REF BY
           =====                   =======         ======
           MGPS_T                  000069F0        InitShow (main)
    -------------------------------------------------------------------------
CONFIG_C
  Relative segment, address: CODE_AREA 000069F4 - 00006A1F (0x2c bytes), align: 2
  Segment part 242. ROOT.
           ENTRY                   ADDRESS         REF BY
           =====                   =======         ======
           SCR6_6                  000069F4 
    -------------------------------------------------------------------------
CONFIG_C
  Relative segment, address: CODE_AREA 00006A20 - 00006A23 (0x4 bytes), align: 2
  Segment part 243. ROOT.
           ENTRY                   ADDRESS         REF BY
           =====                   =======         ======
           MGPS_FT                 00006A20        InitShow (main)
    -------------------------------------------------------------------------
CONFIG_C
  Relative segment, address: CODE_AREA 00006A24 - 00006A4F (0x2c bytes), align: 2
  Segment part 244. ROOT.
           ENTRY                   ADDRESS         REF BY
           =====                   =======         ======
           SCR60                   00006A24 
    -------------------------------------------------------------------------
CONFIG_C
  Relative segment, address: CODE_AREA 00006A50 - 00006A7B (0x2c bytes), align: 2
  Segment part 245. ROOT.
           ENTRY                   ADDRESS         REF BY
           =====                   =======         ======
           SCR71                   00006A50 
    -------------------------------------------------------------------------
CONFIG_C
  Relative segment, address: CODE_AREA 00006A7C - 00006AA7 (0x2c bytes), align: 2
  Segment part 246. ROOT.
           ENTRY                   ADDRESS         REF BY
           =====                   =======         ======
           SCR7_1                  00006A7C 
    -------------------------------------------------------------------------
CONFIG_C
  Relative segment, address: CODE_AREA 00006AA8 - 00006AAB (0x4 bytes), align: 2
  Segment part 247. ROOT.
           ENTRY                   ADDRESS         REF BY
           =====                   =======         ======
           GPRS_ENA                00006AA8        InitShow (main)
    -------------------------------------------------------------------------
CONFIG_C
  Relative segment, address: CODE_AREA 00006AAC - 00006AD7 (0x2c bytes), align: 2
  Segment part 248. ROOT.
           ENTRY                   ADDRESS         REF BY
           =====                   =======         ======
           SCR7_2                  00006AAC 
    -------------------------------------------------------------------------
CONFIG_C
  Relative segment, address: CODE_AREA 00006AD8 - 00006ADB (0x4 bytes), align: 2
  Segment part 249. ROOT.
           ENTRY                   ADDRESS         REF BY
           =====                   =======         ======
           GPRS_X                  00006AD8        InitScreen (main)
    -------------------------------------------------------------------------
CONFIG_C
  Relative segment, address: CODE_AREA 00006ADC - 00006ADF (0x4 bytes), align: 2
  Segment part 250. ROOT.
           ENTRY                   ADDRESS         REF BY
           =====                   =======         ======
           GPRS_Y                  00006ADC        InitScreen (main)
    -------------------------------------------------------------------------
CONFIG_C
  Relative segment, address: CODE_AREA 00006AE0 - 00006B0B (0x2c bytes), align: 2
  Segment part 251. ROOT.
           ENTRY                   ADDRESS         REF BY
           =====                   =======         ======
           SCR7_3                  00006AE0 
    -------------------------------------------------------------------------
CONFIG_C
  Relative segment, address: CODE_AREA 00006B0C - 00006B0F (0x4 bytes), align: 2
  Segment part 252. ROOT.
           ENTRY                   ADDRESS         REF BY
           =====                   =======         ======
           GPRS_CS                 00006B0C        InitShow (main)
    -------------------------------------------------------------------------
CONFIG_C
  Relative segment, address: CODE_AREA 00006B10 - 00006B3B (0x2c bytes), align: 2
  Segment part 253. ROOT.
           ENTRY                   ADDRESS         REF BY
           =====                   =======         ======
           SCR7_4                  00006B10 
    -------------------------------------------------------------------------
CONFIG_C
  Relative segment, address: CODE_AREA 00006B3C - 00006B3F (0x4 bytes), align: 2
  Segment part 254. ROOT.
           ENTRY                   ADDRESS         REF BY
           =====                   =======         ======
           GPRS_CB                 00006B3C        InitShow (main)
    -------------------------------------------------------------------------
CONFIG_C
  Relative segment, address: CODE_AREA 00006B40 - 00006B6B (0x2c bytes), align: 2
  Segment part 255. ROOT.
           ENTRY                   ADDRESS         REF BY
           =====                   =======         ======
           SCR7_5                  00006B40 
    -------------------------------------------------------------------------
CONFIG_C
  Relative segment, address: CODE_AREA 00006B6C - 00006B6F (0x4 bytes), align: 2
  Segment part 256. ROOT.
           ENTRY                   ADDRESS         REF BY
           =====                   =======         ======
           GPRS_T                  00006B6C        InitShow (main)
    -------------------------------------------------------------------------
CONFIG_C
  Relative segment, address: CODE_AREA 00006B70 - 00006B9B (0x2c bytes), align: 2
  Segment part 257. ROOT.
           ENTRY                   ADDRESS         REF BY
           =====                   =======         ======
           SCR7_6                  00006B70 
    -------------------------------------------------------------------------
CONFIG_C
  Relative segment, address: CODE_AREA 00006B9C - 00006B9F (0x4 bytes), align: 2
  Segment part 258. ROOT.
           ENTRY                   ADDRESS         REF BY
           =====                   =======         ======
           GPRS_FT                 00006B9C        InitShow (main)
    -------------------------------------------------------------------------
CONFIG_C
  Relative segment, address: CODE_AREA 00006BA0 - 00006BCB (0x2c bytes), align: 2
  Segment part 259. ROOT.
           ENTRY                   ADDRESS         REF BY
           =====                   =======         ======
           SCR70                   00006BA0 
    -------------------------------------------------------------------------
CONFIG_C
  Relative segment, address: CODE_AREA 00006BCC - 00006BF7 (0x2c bytes), align: 2
  Segment part 260. ROOT.
           ENTRY                   ADDRESS         REF BY
           =====                   =======         ======
           SCR81                   00006BCC 
    -------------------------------------------------------------------------
CONFIG_C
  Relative segment, address: CODE_AREA 00006BF8 - 00006C23 (0x2c bytes), align: 2
  Segment part 261. ROOT.
           ENTRY                   ADDRESS         REF BY
           =====                   =======         ======
           SCR8_1                  00006BF8 
    -------------------------------------------------------------------------
CONFIG_C
  Relative segment, address: CODE_AREA 00006C24 - 00006C27 (0x4 bytes), align: 2
  Segment part 262. ROOT.
           ENTRY                   ADDRESS         REF BY
           =====                   =======         ======
           CPUI_ENA                00006C24        InitShow (main)
    -------------------------------------------------------------------------
CONFIG_C
  Relative segment, address: CODE_AREA 00006C28 - 00006C53 (0x2c bytes), align: 2
  Segment part 263. ROOT.
           ENTRY                   ADDRESS         REF BY
           =====                   =======         ======
           SCR8_2                  00006C28 
    -------------------------------------------------------------------------
CONFIG_C
  Relative segment, address: CODE_AREA 00006C54 - 00006C57 (0x4 bytes), align: 2
  Segment part 264. ROOT.
           ENTRY                   ADDRESS         REF BY
           =====                   =======         ======
           CPUI_X                  00006C54        InitScreen (main)
    -------------------------------------------------------------------------
CONFIG_C
  Relative segment, address: CODE_AREA 00006C58 - 00006C5B (0x4 bytes), align: 2
  Segment part 265. ROOT.
           ENTRY                   ADDRESS         REF BY
           =====                   =======         ======
           CPUI_Y                  00006C58        InitScreen (main)
    -------------------------------------------------------------------------
CONFIG_C
  Relative segment, address: CODE_AREA 00006C5C - 00006C87 (0x2c bytes), align: 2
  Segment part 266. ROOT.
           ENTRY                   ADDRESS         REF BY
           =====                   =======         ======
           SCR8_3                  00006C5C 
    -------------------------------------------------------------------------
CONFIG_C
  Relative segment, address: CODE_AREA 00006C88 - 00006C8B (0x4 bytes), align: 2
  Segment part 267. ROOT.
           ENTRY                   ADDRESS         REF BY
           =====                   =======         ======
           CPUI_CS                 00006C88        InitShow (main)
    -------------------------------------------------------------------------
CONFIG_C
  Relative segment, address: CODE_AREA 00006C8C - 00006CB7 (0x2c bytes), align: 2
  Segment part 268. ROOT.
           ENTRY                   ADDRESS         REF BY
           =====                   =======         ======
           SCR8_6                  00006C8C 
    -------------------------------------------------------------------------
CONFIG_C
  Relative segment, address: CODE_AREA 00006CB8 - 00006CBB (0x4 bytes), align: 2
  Segment part 269. ROOT.
           ENTRY                   ADDRESS         REF BY
           =====                   =======         ======
           CPUI_CB                 00006CB8        InitShow (main)
    -------------------------------------------------------------------------
CONFIG_C
  Relative segment, address: CODE_AREA 00006CBC - 00006CE7 (0x2c bytes), align: 2
  Segment part 270. ROOT.
           ENTRY                   ADDRESS         REF BY
           =====                   =======         ======
           SCR8_7                  00006CBC 
    -------------------------------------------------------------------------
CONFIG_C
  Relative segment, address: CODE_AREA 00006CE8 - 00006CEB (0x4 bytes), align: 2
  Segment part 271. ROOT.
           ENTRY                   ADDRESS         REF BY
           =====                   =======         ======
           CPUI_T                  00006CE8        InitShow (main)
    -------------------------------------------------------------------------
CONFIG_C
  Relative segment, address: CODE_AREA 00006CEC - 00006D17 (0x2c bytes), align: 2
  Segment part 272. ROOT.
           ENTRY                   ADDRESS         REF BY
           =====                   =======         ======
           SCR8_4                  00006CEC 
    -------------------------------------------------------------------------
CONFIG_C
  Relative segment, address: CODE_AREA 00006D18 - 00006D1B (0x4 bytes), align: 2
  Segment part 273. ROOT.
           ENTRY                   ADDRESS         REF BY
           =====                   =======         ======
           CPUI_FT                 00006D18        InitShow (main)
    -------------------------------------------------------------------------
CONFIG_C
  Relative segment, address: CODE_AREA 00006D1C - 00006D47 (0x2c bytes), align: 2
  Segment part 274. ROOT.
           ENTRY                   ADDRESS         REF BY
           =====                   =======         ======
           SCR80                   00006D1C 
    -------------------------------------------------------------------------
CONFIG_C
  Relative segment, address: CODE_AREA 00006D48 - 00006D73 (0x2c bytes), align: 2
  Segment part 275. ROOT.
           ENTRY                   ADDRESS         REF BY
           =====                   =======         ======
           SCR0                    00006D48 
    -------------------------------------------------------------------------
CONFIG_C
  Relative segment, address: CODE_AREA 00006D74 - 00006D9F (0x2c bytes), align: 2
  Segment part 276. ROOT.
           ENTRY                   ADDRESS         REF BY
           =====                   =======         ======
           NEW1                    00006D74 
    -------------------------------------------------------------------------
CONFIG_C
  Relative segment, address: CODE_AREA 00006DA0 - 00006DCB (0x2c bytes), align: 2
  Segment part 277. ROOT.
           ENTRY                   ADDRESS         REF BY
           =====                   =======         ======
           SCRB1                   00006DA0 
    -------------------------------------------------------------------------
CONFIG_C
  Relative segment, address: CODE_AREA 00006DCC - 00006DF7 (0x2c bytes), align: 2
  Segment part 278. ROOT.
           ENTRY                   ADDRESS         REF BY
           =====                   =======         ======
           SCRB_1                  00006DCC 
    -------------------------------------------------------------------------
CONFIG_C
  Relative segment, address: CODE_AREA 00006DF8 - 00006DFB (0x4 bytes), align: 2
  Segment part 279. ROOT.
           ENTRY                   ADDRESS         REF BY
           =====                   =======         ======
           WEEK_ENA                00006DF8        InitShow (main)
    -------------------------------------------------------------------------
CONFIG_C
  Relative segment, address: CODE_AREA 00006DFC - 00006E27 (0x2c bytes), align: 2
  Segment part 280. ROOT.
           ENTRY                   ADDRESS         REF BY
           =====                   =======         ======
           SCRB_2                  00006DFC 
    -------------------------------------------------------------------------
CONFIG_C
  Relative segment, address: CODE_AREA 00006E28 - 00006E2B (0x4 bytes), align: 2
  Segment part 281. ROOT.
           ENTRY                   ADDRESS         REF BY
           =====                   =======         ======
           WEEK_X                  00006E28        InitScreen (main)
    -------------------------------------------------------------------------
CONFIG_C
  Relative segment, address: CODE_AREA 00006E2C - 00006E2F (0x4 bytes), align: 2
  Segment part 282. ROOT.
           ENTRY                   ADDRESS         REF BY
           =====                   =======         ======
           WEEK_Y                  00006E2C        InitScreen (main)
    -------------------------------------------------------------------------
CONFIG_C
  Relative segment, address: CODE_AREA 00006E30 - 00006E5B (0x2c bytes), align: 2
  Segment part 283. ROOT.
           ENTRY                   ADDRESS         REF BY
           =====                   =======         ======
           SCRB_3                  00006E30 
    -------------------------------------------------------------------------
CONFIG_C
  Relative segment, address: CODE_AREA 00006E5C - 00006E5F (0x4 bytes), align: 2
  Segment part 284. ROOT.
           ENTRY                   ADDRESS         REF BY
           =====                   =======         ======
           WEEK_CS                 00006E5C        InitShow (main)
    -------------------------------------------------------------------------
CONFIG_C
  Relative segment, address: CODE_AREA 00006E60 - 00006E8B (0x2c bytes), align: 2
  Segment part 285. ROOT.
           ENTRY                   ADDRESS         REF BY
           =====                   =======         ======
           SCRB_6                  00006E60 
    -------------------------------------------------------------------------
CONFIG_C
  Relative segment, address: CODE_AREA 00006E8C - 00006E8F (0x4 bytes), align: 2
  Segment part 286. ROOT.
           ENTRY                   ADDRESS         REF BY
           =====                   =======         ======
           WEEK_CB                 00006E8C        InitShow (main)
    -------------------------------------------------------------------------
CONFIG_C
  Relative segment, address: CODE_AREA 00006E90 - 00006EBB (0x2c bytes), align: 2
  Segment part 287. ROOT.
           ENTRY                   ADDRESS         REF BY
           =====                   =======         ======
           SCRB_5                  00006E90 
    -------------------------------------------------------------------------
CONFIG_C
  Relative segment, address: CODE_AREA 00006EBC - 00006EBF (0x4 bytes), align: 2
  Segment part 288. ROOT.
           ENTRY                   ADDRESS         REF BY
           =====                   =======         ======
           WEEK_FMT                00006EBC        InitScreen (main)
    -------------------------------------------------------------------------
CONFIG_C
  Relative segment, address: CODE_AREA 00006EC0 - 00006F7F (0xc0 bytes), align: 2
  Segment part 289. ROOT.
           ENTRY                   ADDRESS         REF BY
           =====                   =======         ======
           BOX52                   00006EC0 
    -------------------------------------------------------------------------
CONFIG_C
  Relative segment, address: CODE_AREA 00006F80 - 00006FAB (0x2c bytes), align: 2
  Segment part 290. ROOT.
           ENTRY                   ADDRESS         REF BY
           =====                   =======         ======
           SCRB_7                  00006F80 
    -------------------------------------------------------------------------
CONFIG_C
  Relative segment, address: CODE_AREA 00006FAC - 00006FAF (0x4 bytes), align: 2
  Segment part 291. ROOT.
           ENTRY                   ADDRESS         REF BY
           =====                   =======         ======
           WEEK_T                  00006FAC        InitShow (main)
    -------------------------------------------------------------------------
CONFIG_C
  Relative segment, address: CODE_AREA 00006FB0 - 00006FDB (0x2c bytes), align: 2
  Segment part 292. ROOT.
           ENTRY                   ADDRESS         REF BY
           =====                   =======         ======
           SCRB_4                  00006FB0 
    -------------------------------------------------------------------------
CONFIG_C
  Relative segment, address: CODE_AREA 00006FDC - 00006FDF (0x4 bytes), align: 2
  Segment part 293. ROOT.
           ENTRY                   ADDRESS         REF BY
           =====                   =======         ======
           WEEK_FT                 00006FDC        InitShow (main)
    -------------------------------------------------------------------------
CONFIG_C
  Relative segment, address: CODE_AREA 00006FE0 - 0000700B (0x2c bytes), align: 2
  Segment part 294. ROOT.
           ENTRY                   ADDRESS         REF BY
           =====                   =======         ======
           SCRB0                   00006FE0 
    -------------------------------------------------------------------------
CONFIG_C
  Relative segment, address: CODE_AREA 0000700C - 00007037 (0x2c bytes), align: 2
  Segment part 295. ROOT.
           ENTRY                   ADDRESS         REF BY
           =====                   =======         ======
           SCRC1                   0000700C 
    -------------------------------------------------------------------------
CONFIG_C
  Relative segment, address: CODE_AREA 00007038 - 00007063 (0x2c bytes), align: 2
  Segment part 296. ROOT.
           ENTRY                   ADDRESS         REF BY
           =====                   =======         ======
           SCRC_1                  00007038 
    -------------------------------------------------------------------------
CONFIG_C
  Relative segment, address: CODE_AREA 00007064 - 00007067 (0x4 bytes), align: 2
  Segment part 297. ROOT.
           ENTRY                   ADDRESS         REF BY
           =====                   =======         ======
           TIME_ENA                00007064        InitShow (main)
    -------------------------------------------------------------------------
CONFIG_C
  Relative segment, address: CODE_AREA 00007068 - 00007093 (0x2c bytes), align: 2
  Segment part 298. ROOT.
           ENTRY                   ADDRESS         REF BY
           =====                   =======         ======
           SCRC_2                  00007068 
    -------------------------------------------------------------------------
CONFIG_C
  Relative segment, address: CODE_AREA 00007094 - 00007097 (0x4 bytes), align: 2
  Segment part 299. ROOT.
           ENTRY                   ADDRESS         REF BY
           =====                   =======         ======
           TIME_X                  00007094        InitScreen (main)
    -------------------------------------------------------------------------
CONFIG_C
  Relative segment, address: CODE_AREA 00007098 - 0000709B (0x4 bytes), align: 2
  Segment part 300. ROOT.
           ENTRY                   ADDRESS         REF BY
           =====                   =======         ======
           TIME_Y                  00007098        InitScreen (main)
    -------------------------------------------------------------------------
CONFIG_C
  Relative segment, address: CODE_AREA 0000709C - 000070C7 (0x2c bytes), align: 2
  Segment part 301. ROOT.
           ENTRY                   ADDRESS         REF BY
           =====                   =======         ======
           SCRC_3                  0000709C 
    -------------------------------------------------------------------------
CONFIG_C
  Relative segment, address: CODE_AREA 000070C8 - 000070CB (0x4 bytes), align: 2
  Segment part 302. ROOT.
           ENTRY                   ADDRESS         REF BY
           =====                   =======         ======
           TIME_CS                 000070C8        InitShow (main)
    -------------------------------------------------------------------------
CONFIG_C
  Relative segment, address: CODE_AREA 000070CC - 000070F7 (0x2c bytes), align: 2
  Segment part 303. ROOT.
           ENTRY                   ADDRESS         REF BY
           =====                   =======         ======
           SCRC_6                  000070CC 
    -------------------------------------------------------------------------
CONFIG_C
  Relative segment, address: CODE_AREA 000070F8 - 000070FB (0x4 bytes), align: 2
  Segment part 304. ROOT.
           ENTRY                   ADDRESS         REF BY
           =====                   =======         ======
           TIME_CB                 000070F8        InitShow (main)
    -------------------------------------------------------------------------
CONFIG_C
  Relative segment, address: CODE_AREA 000070FC - 00007127 (0x2c bytes), align: 2
  Segment part 305. ROOT.
           ENTRY                   ADDRESS         REF BY
           =====                   =======         ======
           SCRC_5                  000070FC 
    -------------------------------------------------------------------------
CONFIG_C
  Relative segment, address: CODE_AREA 00007128 - 0000712B (0x4 bytes), align: 2
  Segment part 306. ROOT.
           ENTRY                   ADDRESS         REF BY
           =====                   =======         ======
           TIME_FMT                00007128        InitScreen (main)
    -------------------------------------------------------------------------
CONFIG_C
  Relative segment, address: CODE_AREA 0000712C - 000071EB (0xc0 bytes), align: 2
  Segment part 307. ROOT.
           ENTRY                   ADDRESS         REF BY
           =====                   =======         ======
           BOX72                   0000712C 
    -------------------------------------------------------------------------
CONFIG_C
  Relative segment, address: CODE_AREA 000071EC - 00007217 (0x2c bytes), align: 2
  Segment part 308. ROOT.
           ENTRY                   ADDRESS         REF BY
           =====                   =======         ======
           SCRC_7                  000071EC 
    -------------------------------------------------------------------------
CONFIG_C
  Relative segment, address: CODE_AREA 00007218 - 0000721B (0x4 bytes), align: 2
  Segment part 309. ROOT.
           ENTRY                   ADDRESS         REF BY
           =====                   =======         ======
           TIME_T                  00007218        InitShow (main)
    -------------------------------------------------------------------------
CONFIG_C
  Relative segment, address: CODE_AREA 0000721C - 00007247 (0x2c bytes), align: 2
  Segment part 310. ROOT.
           ENTRY                   ADDRESS         REF BY
           =====                   =======         ======
           SCRC_4                  0000721C 
    -------------------------------------------------------------------------
CONFIG_C
  Relative segment, address: CODE_AREA 00007248 - 0000724B (0x4 bytes), align: 2
  Segment part 311. ROOT.
           ENTRY                   ADDRESS         REF BY
           =====                   =======         ======
           TIME_FT                 00007248        InitShow (main)
    -------------------------------------------------------------------------
CONFIG_C
  Relative segment, address: CODE_AREA 0000724C - 00007277 (0x2c bytes), align: 2
  Segment part 312. ROOT.
           ENTRY                   ADDRESS         REF BY
           =====                   =======         ======
           SCRC0                   0000724C 
    -------------------------------------------------------------------------
CONFIG_C
  Relative segment, address: CODE_AREA 00007278 - 000072A3 (0x2c bytes), align: 2
  Segment part 313. ROOT.
           ENTRY                   ADDRESS         REF BY
           =====                   =======         ======
           SCRD1                   00007278 
    -------------------------------------------------------------------------
CONFIG_C
  Relative segment, address: CODE_AREA 000072A4 - 000072CF (0x2c bytes), align: 2
  Segment part 314. ROOT.
           ENTRY                   ADDRESS         REF BY
           =====                   =======         ======
           SCRD_1                  000072A4 
    -------------------------------------------------------------------------
CONFIG_C
  Relative segment, address: CODE_AREA 000072D0 - 000072D3 (0x4 bytes), align: 2
  Segment part 315. ROOT.
           ENTRY                   ADDRESS         REF BY
           =====                   =======         ======
           DATE_ENA                000072D0        InitShow (main)
    -------------------------------------------------------------------------
CONFIG_C
  Relative segment, address: CODE_AREA 000072D4 - 000072FF (0x2c bytes), align: 2
  Segment part 316. ROOT.
           ENTRY                   ADDRESS         REF BY
           =====                   =======         ======
           SCRD_2                  000072D4 
    -------------------------------------------------------------------------
CONFIG_C
  Relative segment, address: CODE_AREA 00007300 - 00007303 (0x4 bytes), align: 2
  Segment part 317. ROOT.
           ENTRY                   ADDRESS         REF BY
           =====                   =======         ======
           DATE_X                  00007300        InitScreen (main)
    -------------------------------------------------------------------------
CONFIG_C
  Relative segment, address: CODE_AREA 00007304 - 00007307 (0x4 bytes), align: 2
  Segment part 318. ROOT.
           ENTRY                   ADDRESS         REF BY
           =====                   =======         ======
           DATE_Y                  00007304        InitScreen (main)
    -------------------------------------------------------------------------
CONFIG_C
  Relative segment, address: CODE_AREA 00007308 - 00007333 (0x2c bytes), align: 2
  Segment part 319. ROOT.
           ENTRY                   ADDRESS         REF BY
           =====                   =======         ======
           SCRD_3                  00007308 
    -------------------------------------------------------------------------
CONFIG_C
  Relative segment, address: CODE_AREA 00007334 - 00007337 (0x4 bytes), align: 2
  Segment part 320. ROOT.
           ENTRY                   ADDRESS         REF BY
           =====                   =======         ======
           DATE_CS                 00007334        InitShow (main)
    -------------------------------------------------------------------------
CONFIG_C
  Relative segment, address: CODE_AREA 00007338 - 00007363 (0x2c bytes), align: 2
  Segment part 321. ROOT.
           ENTRY                   ADDRESS         REF BY
           =====                   =======         ======
           SCRD_6                  00007338 
    -------------------------------------------------------------------------
CONFIG_C
  Relative segment, address: CODE_AREA 00007364 - 00007367 (0x4 bytes), align: 2
  Segment part 322. ROOT.
           ENTRY                   ADDRESS         REF BY
           =====                   =======         ======
           DATE_CB                 00007364        InitShow (main)
    -------------------------------------------------------------------------
CONFIG_C
  Relative segment, address: CODE_AREA 00007368 - 00007393 (0x2c bytes), align: 2
  Segment part 323. ROOT.
           ENTRY                   ADDRESS         REF BY
           =====                   =======         ======
           SCRD_5                  00007368 
    -------------------------------------------------------------------------
CONFIG_C
  Relative segment, address: CODE_AREA 00007394 - 00007397 (0x4 bytes), align: 2
  Segment part 324. ROOT.
           ENTRY                   ADDRESS         REF BY
           =====                   =======         ======
           DATE_FMT                00007394        InitScreen (main)
    -------------------------------------------------------------------------
CONFIG_C
  Relative segment, address: CODE_AREA 00007398 - 000074D7 (0x140 bytes), align: 2
  Segment part 325. ROOT.
           ENTRY                   ADDRESS         REF BY
           =====                   =======         ======
           BOX62                   00007398 
    -------------------------------------------------------------------------
CONFIG_C
  Relative segment, address: CODE_AREA 000074D8 - 00007503 (0x2c bytes), align: 2
  Segment part 326. ROOT.
           ENTRY                   ADDRESS         REF BY
           =====                   =======         ======
           SCRD_7                  000074D8 
    -------------------------------------------------------------------------
CONFIG_C
  Relative segment, address: CODE_AREA 00007504 - 00007507 (0x4 bytes), align: 2
  Segment part 327. ROOT.
           ENTRY                   ADDRESS         REF BY
           =====                   =======         ======
           DATE_T                  00007504        InitShow (main)
    -------------------------------------------------------------------------
CONFIG_C
  Relative segment, address: CODE_AREA 00007508 - 00007533 (0x2c bytes), align: 2
  Segment part 328. ROOT.
           ENTRY                   ADDRESS         REF BY
           =====                   =======         ======
           SCRD_4                  00007508 
    -------------------------------------------------------------------------
CONFIG_C
  Relative segment, address: CODE_AREA 00007534 - 00007537 (0x4 bytes), align: 2
  Segment part 329. ROOT.
           ENTRY                   ADDRESS         REF BY
           =====                   =======         ======
           DATE_FT                 00007534        InitShow (main)
    -------------------------------------------------------------------------
CONFIG_C
  Relative segment, address: CODE_AREA 00007538 - 00007563 (0x2c bytes), align: 2
  Segment part 330. ROOT.
           ENTRY                   ADDRESS         REF BY
           =====                   =======         ======
           SCRD0                   00007538 
    -------------------------------------------------------------------------
CONFIG_C
  Relative segment, address: CODE_AREA 00007564 - 0000758F (0x2c bytes), align: 2
  Segment part 331. ROOT.
           ENTRY                   ADDRESS         REF BY
           =====                   =======         ======
           SCRA1                   00007564 
    -------------------------------------------------------------------------
CONFIG_C
  Relative segment, address: CODE_AREA 00007590 - 000075BB (0x2c bytes), align: 2
  Segment part 332. ROOT.
           ENTRY                   ADDRESS         REF BY
           =====                   =======         ======
           SCRA_1                  00007590 
    -------------------------------------------------------------------------
CONFIG_C
  Relative segment, address: CODE_AREA 000075BC - 000075BF (0x4 bytes), align: 2
  Segment part 333. ROOT.
           ENTRY                   ADDRESS         REF BY
           =====                   =======         ======
           CHSY_ENA                000075BC        InitShow (main)
    -------------------------------------------------------------------------
CONFIG_C
  Relative segment, address: CODE_AREA 000075C0 - 000075EB (0x2c bytes), align: 2
  Segment part 334. ROOT.
           ENTRY                   ADDRESS         REF BY
           =====                   =======         ======
           SCRA_2                  000075C0 
    -------------------------------------------------------------------------
CONFIG_C
  Relative segment, address: CODE_AREA 000075EC - 000075EF (0x4 bytes), align: 2
  Segment part 335. ROOT.
           ENTRY                   ADDRESS         REF BY
           =====                   =======         ======
           CHSY_X                  000075EC        InitScreen (main)
    -------------------------------------------------------------------------
CONFIG_C
  Relative segment, address: CODE_AREA 000075F0 - 000075F3 (0x4 bytes), align: 2
  Segment part 336. ROOT.
           ENTRY                   ADDRESS         REF BY
           =====                   =======         ======
           CHSY_Y                  000075F0        InitScreen (main)
    -------------------------------------------------------------------------
CONFIG_C
  Relative segment, address: CODE_AREA 000075F4 - 0000761F (0x2c bytes), align: 2
  Segment part 337. ROOT.
           ENTRY                   ADDRESS         REF BY
           =====                   =======         ======
           SCRA_7                  000075F4 
    -------------------------------------------------------------------------
CONFIG_C
  Relative segment, address: CODE_AREA 00007620 - 00007623 (0x4 bytes), align: 2
  Segment part 338. ROOT.
           ENTRY                   ADDRESS         REF BY
           =====                   =======         ======
           CHSY_T                  00007620        InitShow (main)
    -------------------------------------------------------------------------
CONFIG_C
  Relative segment, address: CODE_AREA 00007624 - 0000764F (0x2c bytes), align: 2
  Segment part 339. ROOT.
           ENTRY                   ADDRESS         REF BY
           =====                   =======         ======
           SCRA0                   00007624 
    -------------------------------------------------------------------------
CONFIG_C
  Relative segment, address: CODE_AREA 00007650 - 0000767B (0x2c bytes), align: 2
  Segment part 340. ROOT.
           ENTRY                   ADDRESS         REF BY
           =====                   =======         ======
           SCRM1                   00007650 
    -------------------------------------------------------------------------
CONFIG_C
  Relative segment, address: CODE_AREA 0000767C - 000076A7 (0x2c bytes), align: 2
  Segment part 341. ROOT.
           ENTRY                   ADDRESS         REF BY
           =====                   =======         ======
           SCRM_1                  0000767C 
    -------------------------------------------------------------------------
CONFIG_C
  Relative segment, address: CODE_AREA 000076A8 - 000076AB (0x4 bytes), align: 2
  Segment part 342. ROOT.
           ENTRY                   ADDRESS         REF BY
           =====                   =======         ======
           CHSM_ENA                000076A8        InitShow (main)
    -------------------------------------------------------------------------
CONFIG_C
  Relative segment, address: CODE_AREA 000076AC - 000076D7 (0x2c bytes), align: 2
  Segment part 343. ROOT.
           ENTRY                   ADDRESS         REF BY
           =====                   =======         ======
           SCRM_2                  000076AC 
    -------------------------------------------------------------------------
CONFIG_C
  Relative segment, address: CODE_AREA 000076D8 - 000076DB (0x4 bytes), align: 2
  Segment part 344. ROOT.
           ENTRY                   ADDRESS         REF BY
           =====                   =======         ======
           CHSM_X                  000076D8        InitScreen (main)
    -------------------------------------------------------------------------
CONFIG_C
  Relative segment, address: CODE_AREA 000076DC - 000076DF (0x4 bytes), align: 2
  Segment part 345. ROOT.
           ENTRY                   ADDRESS         REF BY
           =====                   =======         ======
           CHSM_Y                  000076DC        InitScreen (main)
    -------------------------------------------------------------------------
CONFIG_C
  Relative segment, address: CODE_AREA 000076E0 - 0000770B (0x2c bytes), align: 2
  Segment part 346. ROOT.
           ENTRY                   ADDRESS         REF BY
           =====                   =======         ======
           SCRM_7                  000076E0 
    -------------------------------------------------------------------------
CONFIG_C
  Relative segment, address: CODE_AREA 0000770C - 0000770F (0x4 bytes), align: 2
  Segment part 347. ROOT.
           ENTRY                   ADDRESS         REF BY
           =====                   =======         ======
           CHSM_T                  0000770C        InitShow (main)
    -------------------------------------------------------------------------
CONFIG_C
  Relative segment, address: CODE_AREA 00007710 - 0000773B (0x2c bytes), align: 2
  Segment part 348. ROOT.
           ENTRY                   ADDRESS         REF BY
           =====                   =======         ======
           SCRM0                   00007710 
    -------------------------------------------------------------------------
CONFIG_C
  Relative segment, address: CODE_AREA 0000773C - 00007767 (0x2c bytes), align: 2
  Segment part 349. ROOT.
           ENTRY                   ADDRESS         REF BY
           =====                   =======         ======
           SCR91                   0000773C 
    -------------------------------------------------------------------------
CONFIG_C
  Relative segment, address: CODE_AREA 00007768 - 00007793 (0x2c bytes), align: 2
  Segment part 350. ROOT.
           ENTRY                   ADDRESS         REF BY
           =====                   =======         ======
           SCR9_1                  00007768 
    -------------------------------------------------------------------------
CONFIG_C
  Relative segment, address: CODE_AREA 00007794 - 00007797 (0x4 bytes), align: 2
  Segment part 351. ROOT.
           ENTRY                   ADDRESS         REF BY
           =====                   =======         ======
           CHSD_ENA                00007794        InitShow (main)
    -------------------------------------------------------------------------
CONFIG_C
  Relative segment, address: CODE_AREA 00007798 - 000077C3 (0x2c bytes), align: 2
  Segment part 352. ROOT.
           ENTRY                   ADDRESS         REF BY
           =====                   =======         ======
           SCR9_2                  00007798 
    -------------------------------------------------------------------------
CONFIG_C
  Relative segment, address: CODE_AREA 000077C4 - 000077C7 (0x4 bytes), align: 2
  Segment part 353. ROOT.
           ENTRY                   ADDRESS         REF BY
           =====                   =======         ======
           CHSD_X                  000077C4        InitScreen (main)
    -------------------------------------------------------------------------
CONFIG_C
  Relative segment, address: CODE_AREA 000077C8 - 000077CB (0x4 bytes), align: 2
  Segment part 354. ROOT.
           ENTRY                   ADDRESS         REF BY
           =====                   =======         ======
           CHSD_Y                  000077C8        InitScreen (main)
    -------------------------------------------------------------------------
CONFIG_C
  Relative segment, address: CODE_AREA 000077CC - 000077F7 (0x2c bytes), align: 2
  Segment part 355. ROOT.
           ENTRY                   ADDRESS         REF BY
           =====                   =======         ======
           SCR9_7                  000077CC 
    -------------------------------------------------------------------------
CONFIG_C
  Relative segment, address: CODE_AREA 000077F8 - 000077FB (0x4 bytes), align: 2
  Segment part 356. ROOT.
           ENTRY                   ADDRESS         REF BY
           =====                   =======         ======
           CHSD_T                  000077F8        InitShow (main)
    -------------------------------------------------------------------------
CONFIG_C
  Relative segment, address: CODE_AREA 000077FC - 00007827 (0x2c bytes), align: 2
  Segment part 357. ROOT.
           ENTRY                   ADDRESS         REF BY
           =====                   =======         ======
           SCR90                   000077FC 
    -------------------------------------------------------------------------
CONFIG_C
  Relative segment, address: CODE_AREA 00007828 - 00007853 (0x2c bytes), align: 2
  Segment part 358. ROOT.
           ENTRY                   ADDRESS         REF BY
           =====                   =======         ======
           CHSH1                   00007828 
    -------------------------------------------------------------------------
CONFIG_C
  Relative segment, address: CODE_AREA 00007854 - 0000787F (0x2c bytes), align: 2
  Segment part 359. ROOT.
           ENTRY                   ADDRESS         REF BY
           =====                   =======         ======
           CHSH_1                  00007854 
    -------------------------------------------------------------------------
CONFIG_C
  Relative segment, address: CODE_AREA 00007880 - 00007883 (0x4 bytes), align: 2
  Segment part 360. ROOT.
           ENTRY                   ADDRESS         REF BY
           =====                   =======         ======
           CHSH_ENA                00007880        InitShow (main)
    -------------------------------------------------------------------------
CONFIG_C
  Relative segment, address: CODE_AREA 00007884 - 000078AF (0x2c bytes), align: 2
  Segment part 361. ROOT.
           ENTRY                   ADDRESS         REF BY
           =====                   =======         ======
           CHSH_2                  00007884 
    -------------------------------------------------------------------------
CONFIG_C
  Relative segment, address: CODE_AREA 000078B0 - 000078B3 (0x4 bytes), align: 2
  Segment part 362. ROOT.
           ENTRY                   ADDRESS         REF BY
           =====                   =======         ======
           CHSH_X                  000078B0        InitScreen (main)
    -------------------------------------------------------------------------
CONFIG_C
  Relative segment, address: CODE_AREA 000078B4 - 000078B7 (0x4 bytes), align: 2
  Segment part 363. ROOT.
           ENTRY                   ADDRESS         REF BY
           =====                   =======         ======
           CHSH_Y                  000078B4        InitScreen (main)
    -------------------------------------------------------------------------
CONFIG_C
  Relative segment, address: CODE_AREA 000078B8 - 000078E3 (0x2c bytes), align: 2
  Segment part 364. ROOT.
           ENTRY                   ADDRESS         REF BY
           =====                   =======         ======
           CHSH_7                  000078B8 
    -------------------------------------------------------------------------
CONFIG_C
  Relative segment, address: CODE_AREA 000078E4 - 000078E7 (0x4 bytes), align: 2
  Segment part 365. ROOT.
           ENTRY                   ADDRESS         REF BY
           =====                   =======         ======
           CHSH_T                  000078E4        InitShow (main)
    -------------------------------------------------------------------------
CONFIG_C
  Relative segment, address: CODE_AREA 000078E8 - 00007913 (0x2c bytes), align: 2
  Segment part 366. ROOT.
           ENTRY                   ADDRESS         REF BY
           =====                   =======         ======
           CHSH0                   000078E8 
    -------------------------------------------------------------------------
CONFIG_C
  Relative segment, address: CODE_AREA 00007914 - 0000793F (0x2c bytes), align: 2
  Segment part 367. ROOT.
           ENTRY                   ADDRESS         REF BY
           =====                   =======         ======
           SCMD1                   00007914 
    -------------------------------------------------------------------------
CONFIG_C
  Relative segment, address: CODE_AREA 00007940 - 0000796B (0x2c bytes), align: 2
  Segment part 368. ROOT.
           ENTRY                   ADDRESS         REF BY
           =====                   =======         ======
           SCMD_1                  00007940 
    -------------------------------------------------------------------------
CONFIG_C
  Relative segment, address: CODE_AREA 0000796C - 0000796F (0x4 bytes), align: 2
  Segment part 369. ROOT.
           ENTRY                   ADDRESS         REF BY
           =====                   =======         ======
           CHMD_ENA                0000796C        InitShow (main)
    -------------------------------------------------------------------------
CONFIG_C
  Relative segment, address: CODE_AREA 00007970 - 0000799B (0x2c bytes), align: 2
  Segment part 370. ROOT.
           ENTRY                   ADDRESS         REF BY
           =====                   =======         ======
           SCMD_2                  00007970 
    -------------------------------------------------------------------------
CONFIG_C
  Relative segment, address: CODE_AREA 0000799C - 0000799F (0x4 bytes), align: 2
  Segment part 371. ROOT.
           ENTRY                   ADDRESS         REF BY
           =====                   =======         ======
           CHMD_X                  0000799C        InitScreen (main)
    -------------------------------------------------------------------------
CONFIG_C
  Relative segment, address: CODE_AREA 000079A0 - 000079A3 (0x4 bytes), align: 2
  Segment part 372. ROOT.
           ENTRY                   ADDRESS         REF BY
           =====                   =======         ======
           CHMD_Y                  000079A0        InitScreen (main)
    -------------------------------------------------------------------------
CONFIG_C
  Relative segment, address: CODE_AREA 000079A4 - 000079CF (0x2c bytes), align: 2
  Segment part 373. ROOT.
           ENTRY                   ADDRESS         REF BY
           =====                   =======         ======
           SCMD_7                  000079A4 
    -------------------------------------------------------------------------
CONFIG_C
  Relative segment, address: CODE_AREA 000079D0 - 000079D3 (0x4 bytes), align: 2
  Segment part 374. ROOT.
           ENTRY                   ADDRESS         REF BY
           =====                   =======         ======
           CHMD_T                  000079D0        InitShow (main)
    -------------------------------------------------------------------------
CONFIG_C
  Relative segment, address: CODE_AREA 000079D4 - 000079FF (0x2c bytes), align: 2
  Segment part 375. ROOT.
           ENTRY                   ADDRESS         REF BY
           =====                   =======         ======
           SCMD0                   000079D4 
    -------------------------------------------------------------------------
CONFIG_C
  Relative segment, address: CODE_AREA 00007A00 - 00007A2B (0x2c bytes), align: 2
  Segment part 376. ROOT.
           ENTRY                   ADDRESS         REF BY
           =====                   =======         ======
           SCRA_3                  00007A00 
    -------------------------------------------------------------------------
CONFIG_C
  Relative segment, address: CODE_AREA 00007A2C - 00007A2F (0x4 bytes), align: 2
  Segment part 377. ROOT.
           ENTRY                   ADDRESS         REF BY
           =====                   =======         ======
           CHSY_CS                 00007A2C        InitShow (main)
    -------------------------------------------------------------------------
CONFIG_C
  Relative segment, address: CODE_AREA 00007A30 - 00007A5B (0x2c bytes), align: 2
  Segment part 378. ROOT.
           ENTRY                   ADDRESS         REF BY
           =====                   =======         ======
           SCRA_4                  00007A30 
    -------------------------------------------------------------------------
CONFIG_C
  Relative segment, address: CODE_AREA 00007A5C - 00007A5F (0x4 bytes), align: 2
  Segment part 379. ROOT.
           ENTRY                   ADDRESS         REF BY
           =====                   =======         ======
           CHSY_CB                 00007A5C        InitShow (main)
    -------------------------------------------------------------------------
CONFIG_C
  Relative segment, address: CODE_AREA 00007A60 - 00007A8B (0x2c bytes), align: 2
  Segment part 380. ROOT.
           ENTRY                   ADDRESS         REF BY
           =====                   =======         ======
           CHSH_5                  00007A60 
    -------------------------------------------------------------------------
CONFIG_C
  Relative segment, address: CODE_AREA 00007A8C - 00007A8F (0x4 bytes), align: 2
  Segment part 381. ROOT.
           ENTRY                   ADDRESS         REF BY
           =====                   =======         ======
           CHSY_FT                 00007A8C        InitShow (main)
    -------------------------------------------------------------------------
CONFIG_C
  Relative segment, address: CODE_AREA 00007A90 - 00007ABB (0x2c bytes), align: 2
  Segment part 382. ROOT.
           ENTRY                   ADDRESS         REF BY
           =====                   =======         ======
           NEW0                    00007A90 
    -------------------------------------------------------------------------
CONFIG_C
  Relative segment, address: CODE_AREA 00007ABC - 00007AE7 (0x2c bytes), align: 2
  Segment part 383. ROOT.
           ENTRY                   ADDRESS         REF BY
           =====                   =======         ======
           BIR1                    00007ABC 
    -------------------------------------------------------------------------
CONFIG_C
  Relative segment, address: CODE_AREA 00007AE8 - 00007B13 (0x2c bytes), align: 2
  Segment part 384. ROOT.
           ENTRY                   ADDRESS         REF BY
           =====                   =======         ======
           NBIR1                   00007AE8 
    -------------------------------------------------------------------------
CONFIG_C
  Relative segment, address: CODE_AREA 00007B14 - 00007B3F (0x2c bytes), align: 2
  Segment part 385. ROOT.
           ENTRY                   ADDRESS         REF BY
           =====                   =======         ======
           NBIR_1                  00007B14 
    -------------------------------------------------------------------------
CONFIG_C
  Relative segment, address: CODE_AREA 00007B40 - 00007B43 (0x4 bytes), align: 2
  Segment part 386. ROOT.
           ENTRY                   ADDRESS         REF BY
           =====                   =======         ======
           NBIR_ENA                00007B40        InitShow (main)
    -------------------------------------------------------------------------
CONFIG_C
  Relative segment, address: CODE_AREA 00007B44 - 00007B6F (0x2c bytes), align: 2
  Segment part 387. ROOT.
           ENTRY                   ADDRESS         REF BY
           =====                   =======         ======
           NBIR_2                  00007B44 
    -------------------------------------------------------------------------
CONFIG_C
  Relative segment, address: CODE_AREA 00007B70 - 00007B73 (0x4 bytes), align: 2
  Segment part 388. ROOT.
           ENTRY                   ADDRESS         REF BY
           =====                   =======         ======
           NBIR_X                  00007B70        InitScreen (main)
    -------------------------------------------------------------------------
CONFIG_C
  Relative segment, address: CODE_AREA 00007B74 - 00007B77 (0x4 bytes), align: 2
  Segment part 389. ROOT.
           ENTRY                   ADDRESS         REF BY
           =====                   =======         ======
           NBIR_Y                  00007B74        InitScreen (main)
    -------------------------------------------------------------------------
CONFIG_C
  Relative segment, address: CODE_AREA 00007B78 - 00007BA3 (0x2c bytes), align: 2
  Segment part 390. ROOT.
           ENTRY                   ADDRESS         REF BY
           =====                   =======         ======
           NBIR_3                  00007B78 
    -------------------------------------------------------------------------
CONFIG_C
  Relative segment, address: CODE_AREA 00007BA4 - 00007BA7 (0x4 bytes), align: 2
  Segment part 391. ROOT.
           ENTRY                   ADDRESS         REF BY
           =====                   =======         ======
           NBIR_CS                 00007BA4        InitShow (main)
    -------------------------------------------------------------------------
CONFIG_C
  Relative segment, address: CODE_AREA 00007BA8 - 00007BD3 (0x2c bytes), align: 2
  Segment part 392. ROOT.
           ENTRY                   ADDRESS         REF BY
           =====                   =======         ======
           NBIR_4                  00007BA8 
    -------------------------------------------------------------------------
CONFIG_C
  Relative segment, address: CODE_AREA 00007BD4 - 00007BD7 (0x4 bytes), align: 2
  Segment part 393. ROOT.
           ENTRY                   ADDRESS         REF BY
           =====                   =======         ======
           NBIR_CB                 00007BD4        InitShow (main)
    -------------------------------------------------------------------------
CONFIG_C
  Relative segment, address: CODE_AREA 00007BD8 - 00007C03 (0x2c bytes), align: 2
  Segment part 394. ROOT.
           ENTRY                   ADDRESS         REF BY
           =====                   =======         ======
           NBIR_7                  00007BD8 
    -------------------------------------------------------------------------
CONFIG_C
  Relative segment, address: CODE_AREA 00007C04 - 00007C07 (0x4 bytes), align: 2
  Segment part 395. ROOT.
           ENTRY                   ADDRESS         REF BY
           =====                   =======         ======
           NBIR_T                  00007C04        InitShow (main)
    -------------------------------------------------------------------------
CONFIG_C
  Relative segment, address: CODE_AREA 00007C08 - 00007C33 (0x2c bytes), align: 2
  Segment part 396. ROOT.
           ENTRY                   ADDRESS         REF BY
           =====                   =======         ======
           NBIR_5                  00007C08 
    -------------------------------------------------------------------------
CONFIG_C
  Relative segment, address: CODE_AREA 00007C34 - 00007C37 (0x4 bytes), align: 2
  Segment part 397. ROOT.
           ENTRY                   ADDRESS         REF BY
           =====                   =======         ======
           NBIR_FT                 00007C34        InitShow (main)
    -------------------------------------------------------------------------
CONFIG_C
  Relative segment, address: CODE_AREA 00007C38 - 00007C63 (0x2c bytes), align: 2
  Segment part 398. ROOT.
           ENTRY                   ADDRESS         REF BY
           =====                   =======         ======
           NBIR0                   00007C38 
    -------------------------------------------------------------------------
CONFIG_C
  Relative segment, address: CODE_AREA 00007C64 - 00007C8F (0x2c bytes), align: 2
  Segment part 399. ROOT.
           ENTRY                   ADDRESS         REF BY
           =====                   =======         ======
           OBIR1                   00007C64 
    -------------------------------------------------------------------------
CONFIG_C
  Relative segment, address: CODE_AREA 00007C90 - 00007CBB (0x2c bytes), align: 2
  Segment part 400. ROOT.
           ENTRY                   ADDRESS         REF BY
           =====                   =======         ======
           OBIR_1                  00007C90 
    -------------------------------------------------------------------------
CONFIG_C
  Relative segment, address: CODE_AREA 00007CBC - 00007CBF (0x4 bytes), align: 2
  Segment part 401. ROOT.
           ENTRY                   ADDRESS         REF BY
           =====                   =======         ======
           OBIR_ENA                00007CBC        InitShow (main)
    -------------------------------------------------------------------------
CONFIG_C
  Relative segment, address: CODE_AREA 00007CC0 - 00007CEB (0x2c bytes), align: 2
  Segment part 402. ROOT.
           ENTRY                   ADDRESS         REF BY
           =====                   =======         ======
           OBIR_2                  00007CC0 
    -------------------------------------------------------------------------
CONFIG_C
  Relative segment, address: CODE_AREA 00007CEC - 00007CEF (0x4 bytes), align: 2
  Segment part 403. ROOT.
           ENTRY                   ADDRESS         REF BY
           =====                   =======         ======
           OBIR_X                  00007CEC        InitScreen (main)
    -------------------------------------------------------------------------
CONFIG_C
  Relative segment, address: CODE_AREA 00007CF0 - 00007CF3 (0x4 bytes), align: 2
  Segment part 404. ROOT.
           ENTRY                   ADDRESS         REF BY
           =====                   =======         ======
           OBIR_Y                  00007CF0        InitScreen (main)
    -------------------------------------------------------------------------
CONFIG_C
  Relative segment, address: CODE_AREA 00007CF4 - 00007D1F (0x2c bytes), align: 2
  Segment part 405. ROOT.
           ENTRY                   ADDRESS         REF BY
           =====                   =======         ======
           OBIR_3                  00007CF4 
    -------------------------------------------------------------------------
CONFIG_C
  Relative segment, address: CODE_AREA 00007D20 - 00007D23 (0x4 bytes), align: 2
  Segment part 406. ROOT.
           ENTRY                   ADDRESS         REF BY
           =====                   =======         ======
           OBIR_CS                 00007D20        InitShow (main)
    -------------------------------------------------------------------------
CONFIG_C
  Relative segment, address: CODE_AREA 00007D24 - 00007D4F (0x2c bytes), align: 2
  Segment part 407. ROOT.
           ENTRY                   ADDRESS         REF BY
           =====                   =======         ======
           OBIR_4                  00007D24 
    -------------------------------------------------------------------------
CONFIG_C
  Relative segment, address: CODE_AREA 00007D50 - 00007D53 (0x4 bytes), align: 2
  Segment part 408. ROOT.
           ENTRY                   ADDRESS         REF BY
           =====                   =======         ======
           OBIR_CB                 00007D50        InitShow (main)
    -------------------------------------------------------------------------
CONFIG_C
  Relative segment, address: CODE_AREA 00007D54 - 00007D7F (0x2c bytes), align: 2
  Segment part 409. ROOT.
           ENTRY                   ADDRESS         REF BY
           =====                   =======         ======
           OBIR_7                  00007D54 
    -------------------------------------------------------------------------
CONFIG_C
  Relative segment, address: CODE_AREA 00007D80 - 00007D83 (0x4 bytes), align: 2
  Segment part 410. ROOT.
           ENTRY                   ADDRESS         REF BY
           =====                   =======         ======
           OBIR_T                  00007D80        InitShow (main)
    -------------------------------------------------------------------------
CONFIG_C
  Relative segment, address: CODE_AREA 00007D84 - 00007DAF (0x2c bytes), align: 2
  Segment part 411. ROOT.
           ENTRY                   ADDRESS         REF BY
           =====                   =======         ======
           OBIR_5                  00007D84 
    -------------------------------------------------------------------------
CONFIG_C
  Relative segment, address: CODE_AREA 00007DB0 - 00007DB3 (0x4 bytes), align: 2
  Segment part 412. ROOT.
           ENTRY                   ADDRESS         REF BY
           =====                   =======         ======
           OBIR_FT                 00007DB0        InitShow (main)
    -------------------------------------------------------------------------
CONFIG_C
  Relative segment, address: CODE_AREA 00007DB4 - 00007DDF (0x2c bytes), align: 2
  Segment part 413. ROOT.
           ENTRY                   ADDRESS         REF BY
           =====                   =======         ======
           mOBIR0                  00007DB4 
    -------------------------------------------------------------------------
CONFIG_C
  Relative segment, address: CODE_AREA 00007DE0 - 00007E0B (0x2c bytes), align: 2
  Segment part 414. ROOT.
           ENTRY                   ADDRESS         REF BY
           =====                   =======         ======
           BIRFILE                 00007DE0 
    -------------------------------------------------------------------------
CONFIG_C
  Relative segment, address: CODE_AREA 00007E0C - 00007E3F (0x34 bytes), align: 2
  Segment part 415. ROOT.
           ENTRY                   ADDRESS         REF BY
           =====                   =======         ======
           BIRS_FILE               00007E0C        Segment part 128 (main)
    -------------------------------------------------------------------------
CONFIG_C
  Relative segment, address: CODE_AREA 00007E40 - 00007E6B (0x2c bytes), align: 2
  Segment part 416. ROOT.
           ENTRY                   ADDRESS         REF BY
           =====                   =======         ======
           BIR0                    00007E40 
    -------------------------------------------------------------------------
CONFIG_C
  Relative segment, address: CODE_AREA 00007E6C - 00007E97 (0x2c bytes), align: 2
  Segment part 417. ROOT.
           ENTRY                   ADDRESS         REF BY
           =====                   =======         ======
           ALRM1                   00007E6C 
    -------------------------------------------------------------------------
CONFIG_C
  Relative segment, address: CODE_AREA 00007E98 - 00007EC3 (0x2c bytes), align: 2
  Segment part 418. ROOT.
           ENTRY                   ADDRESS         REF BY
           =====                   =======         ======
           ALRM_1                  00007E98 
    -------------------------------------------------------------------------
CONFIG_C
  Relative segment, address: CODE_AREA 00007EC4 - 00007EC7 (0x4 bytes), align: 2
  Segment part 419. ROOT.
           ENTRY                   ADDRESS         REF BY
           =====                   =======         ======
           ALRM_ENA                00007EC4        Segment part 125 (main)
                                                   Segment part 75 (main)
    -------------------------------------------------------------------------
CONFIG_C
  Relative segment, address: CODE_AREA 00007EC8 - 00007EF3 (0x2c bytes), align: 2
  Segment part 420. ROOT.
           ENTRY                   ADDRESS         REF BY
           =====                   =======         ======
           ALRM_2                  00007EC8 
    -------------------------------------------------------------------------
CONFIG_C
  Relative segment, address: CODE_AREA 00007EF4 - 00007EF7 (0x4 bytes), align: 2
  Segment part 421. ROOT.
           ENTRY                   ADDRESS         REF BY
           =====                   =======         ======
           ALRV_ENA                00007EF4        DrawGUI (main)
    -------------------------------------------------------------------------
CONFIG_C
  Relative segment, address: CODE_AREA 00007EF8 - 00007F23 (0x2c bytes), align: 2
  Segment part 422. ROOT.
           ENTRY                   ADDRESS         REF BY
           =====                   =======         ======
           ALRM_3                  00007EF8 
    -------------------------------------------------------------------------
CONFIG_C
  Relative segment, address: CODE_AREA 00007F24 - 00007F27 (0x4 bytes), align: 2
  Segment part 423. ROOT.
           ENTRY                   ADDRESS         REF BY
           =====                   =======         ======
           ALIU_ENA                00007F24        DrawGUI (main)
    -------------------------------------------------------------------------
CONFIG_C
  Relative segment, address: CODE_AREA 00007F28 - 00007F53 (0x2c bytes), align: 2
  Segment part 424. ROOT.
           ENTRY                   ADDRESS         REF BY
           =====                   =======         ======
           ALRM_4                  00007F28 
    -------------------------------------------------------------------------
CONFIG_C
  Relative segment, address: CODE_AREA 00007F54 - 00007F57 (0x4 bytes), align: 2
  Segment part 425. ROOT.
           ENTRY                   ADDRESS         REF BY
           =====                   =======         ======
           ALRM_CBK                00007F54        DrawGUI (main)
    -------------------------------------------------------------------------
CONFIG_C
  Relative segment, address: CODE_AREA 00007F58 - 00007F83 (0x2c bytes), align: 2
  Segment part 426. ROOT.
           ENTRY                   ADDRESS         REF BY
           =====                   =======         ======
           ALRM_5                  00007F58 
    -------------------------------------------------------------------------
CONFIG_C
  Relative segment, address: CODE_AREA 00007F84 - 00007F87 (0x4 bytes), align: 2
  Segment part 427. ROOT.
           ENTRY                   ADDRESS         REF BY
           =====                   =======         ======
           ALRM_CTX                00007F84        DrawGUI (main)
    -------------------------------------------------------------------------
CONFIG_C
  Relative segment, address: CODE_AREA 00007F88 - 00007FB3 (0x2c bytes), align: 2
  Segment part 428. ROOT.
           ENTRY                   ADDRESS         REF BY
           =====                   =======         ======
           ALRM_6                  00007F88 
    -------------------------------------------------------------------------
CONFIG_C
  Relative segment, address: CODE_AREA 00007FB4 - 00007FB7 (0x4 bytes), align: 2
  Segment part 429. ROOT.
           ENTRY                   ADDRESS         REF BY
           =====                   =======         ======
           ALRM_FT                 00007FB4        DrawGUI (main)
    -------------------------------------------------------------------------
CONFIG_C
  Relative segment, address: CODE_AREA 00007FB8 - 00007FE3 (0x2c bytes), align: 2
  Segment part 430. ROOT.
           ENTRY                   ADDRESS         REF BY
           =====                   =======         ======
           ALRM_7                  00007FB8 
    -------------------------------------------------------------------------
CONFIG_C
  Relative segment, address: CODE_AREA 00007FE4 - 00007FE7 (0x4 bytes), align: 2
  Segment part 431. ROOT.
           ENTRY                   ADDRESS         REF BY
           =====                   =======         ======
           ALRM_NUM                00007FE4        TaskCreate (main)
    -------------------------------------------------------------------------
CONFIG_C
  Relative segment, address: CODE_AREA 00007FE8 - 00008013 (0x2c bytes), align: 2
  Segment part 432. ROOT.
           ENTRY                   ADDRESS         REF BY
           =====                   =======         ======
           ALRM_8                  00007FE8 
    -------------------------------------------------------------------------
CONFIG_C
  Relative segment, address: CODE_AREA 00008014 - 00008017 (0x4 bytes), align: 2
  Segment part 433. ROOT.
           ENTRY                   ADDRESS         REF BY
           =====                   =======         ======
           ALRM_VOL                00008014        TaskCreate (main)
    -------------------------------------------------------------------------
CONFIG_C
  Relative segment, address: CODE_AREA 00008018 - 00008043 (0x2c bytes), align: 2
  Segment part 434. ROOT.
           ENTRY                   ADDRESS         REF BY
           =====                   =======         ======
           ALRM_9                  00008018 
    -------------------------------------------------------------------------
CONFIG_C
  Relative segment, address: CODE_AREA 00008044 - 00008047 (0x4 bytes), align: 2
  Segment part 435. ROOT.
           ENTRY                   ADDRESS         REF BY
           =====                   =======         ======
           ALRM_VIB                00008044        DrawGUI (main)
    -------------------------------------------------------------------------
CONFIG_C
  Relative segment, address: CODE_AREA 00008048 - 00008073 (0x2c bytes), align: 2
  Segment part 436. ROOT.
           ENTRY                   ADDRESS         REF BY
           =====                   =======         ======
           ALRM_A                  00008048 
    -------------------------------------------------------------------------
CONFIG_C
  Relative segment, address: CODE_AREA 00008074 - 00008077 (0x4 bytes), align: 2
  Segment part 437. ROOT.
           ENTRY                   ADDRESS         REF BY
           =====                   =======         ======
           ALRM_COT                00008074        DrawGUI (main)
    -------------------------------------------------------------------------
CONFIG_C
  Relative segment, address: CODE_AREA 00008078 - 000080A3 (0x2c bytes), align: 2
  Segment part 438. ROOT.
           ENTRY                   ADDRESS         REF BY
           =====                   =======         ======
           RINFILE                 00008078 
    -------------------------------------------------------------------------
CONFIG_C
  Relative segment, address: CODE_AREA 000080A4 - 000080D7 (0x34 bytes), align: 2
  Segment part 439. ROOT.
           ENTRY                   ADDRESS         REF BY
           =====                   =======         ======
           ALRM_FILE               000080A4        TaskCreate (main)
    -------------------------------------------------------------------------
CONFIG_C
  Relative segment, address: CODE_AREA 000080D8 - 00008103 (0x2c bytes), align: 2
  Segment part 440. ROOT.
           ENTRY                   ADDRESS         REF BY
           =====                   =======         ======
           RINPIC                  000080D8 
    -------------------------------------------------------------------------
CONFIG_C
  Relative segment, address: CODE_AREA 00008104 - 00008137 (0x34 bytes), align: 2
  Segment part 441. ROOT.
           ENTRY                   ADDRESS         REF BY
           =====                   =======         ======
           ALRM_PIC                00008104        DrawGUI (main)
    -------------------------------------------------------------------------
CONFIG_C
  Relative segment, address: CODE_AREA 00008138 - 00008163 (0x2c bytes), align: 2
  Segment part 442. ROOT.
           ENTRY                   ADDRESS         REF BY
           =====                   =======         ======
           ALRM0                   00008138 
    -------------------------------------------------------------------------
CONFIG_C
  Relative segment, address: CODE_AREA 00008164 - 0000818F (0x2c bytes), align: 2
  Segment part 443. ROOT.
           ENTRY                   ADDRESS         REF BY
           =====                   =======         ======
           SHUT1                   00008164 
    -------------------------------------------------------------------------
CONFIG_C
  Relative segment, address: CODE_AREA 00008190 - 000081BB (0x2c bytes), align: 2
  Segment part 444. ROOT.
           ENTRY                   ADDRESS         REF BY
           =====                   =======         ======
           SHUT_1                  00008190 
    -------------------------------------------------------------------------
CONFIG_C
  Relative segment, address: CODE_AREA 000081BC - 000081BF (0x4 bytes), align: 2
  Segment part 445. ROOT.
           ENTRY                   ADDRESS         REF BY
           =====                   =======         ======
           SHUT_ENA                000081BC        DaemonOnMessage (main)
    -------------------------------------------------------------------------
CONFIG_C
  Relative segment, address: CODE_AREA 000081C0 - 000081EB (0x2c bytes), align: 2
  Segment part 446. ROOT.
           ENTRY                   ADDRESS         REF BY
           =====                   =======         ======
           SHUT_2                  000081C0 
    -------------------------------------------------------------------------
CONFIG_C
  Relative segment, address: CODE_AREA 000081EC - 000081F3 (0x8 bytes), align: 2
  Segment part 447. ROOT.
           ENTRY                   ADDRESS         REF BY
           =====                   =======         ======
           SHUT_TIME               000081EC        DaemonOnMessage (main)
    -------------------------------------------------------------------------
CONFIG_C
  Relative segment, address: CODE_AREA 000081F4 - 0000821F (0x2c bytes), align: 2
  Segment part 448. ROOT.
           ENTRY                   ADDRESS         REF BY
           =====                   =======         ======
           SHUT0                   000081F4 
    -------------------------------------------------------------------------
CONFIG_C
  Relative segment, address: CODE_AREA 00008220 - 0000824B (0x2c bytes), align: 2
  Segment part 449. ROOT.
           ENTRY                   ADDRESS         REF BY
           =====                   =======         ======
           ROOT1                   00008220 
    -------------------------------------------------------------------------
CONFIG_C
  Relative segment, address: CODE_AREA 0000824C - 00008277 (0x2c bytes), align: 2
  Segment part 450. ROOT.
           ENTRY                   ADDRESS         REF BY
           =====                   =======         ======
           ROOT_1                  0000824C 
    -------------------------------------------------------------------------
CONFIG_C
  Relative segment, address: CODE_AREA 00008278 - 0000827B (0x4 bytes), align: 2
  Segment part 451. ROOT.
           ENTRY                   ADDRESS         REF BY
           =====                   =======         ======
           ROOT_ENA                00008278        DaemonOnMessage (main)
    -------------------------------------------------------------------------
CONFIG_C
  Relative segment, address: CODE_AREA 0000827C - 000082A7 (0x2c bytes), align: 2
  Segment part 452. ROOT.
           ENTRY                   ADDRESS         REF BY
           =====                   =======         ======
           ROOT_2                  0000827C 
    -------------------------------------------------------------------------
CONFIG_C
  Relative segment, address: CODE_AREA 000082A8 - 000082AF (0x8 bytes), align: 2
  Segment part 453. ROOT.
           ENTRY                   ADDRESS         REF BY
           =====                   =======         ======
           ROOT_TIME               000082A8        DaemonOnMessage (main)
    -------------------------------------------------------------------------
CONFIG_C
  Relative segment, address: CODE_AREA 000082B0 - 000082DB (0x2c bytes), align: 2
  Segment part 454. ROOT.
           ENTRY                   ADDRESS         REF BY
           =====                   =======         ======
           ROOT0                   000082B0 
    -------------------------------------------------------------------------
CSTACK
  Segment part 1. NOT NEEDED.

    *************************************************************************

  FILE NAME : F:\SVN\cn\ScrTool2\Release_NEWSGOLD\Obj\func.r79
  PROGRAM MODULE, NAME : func

  SEGMENTS IN THE MODULE
  ======================
ELFBEGIN
  Relative segment, address: CODE_AREA 00000000, align: 0
  Segment part 0. ROOT.
           ENTRY                   ADDRESS         REF BY
           =====                   =======         ======
           ELF_BEGIN               00000000        Destructor (main)
    -------------------------------------------------------------------------
CODE
  Relative segment, address: CODE_AREA 000003E8 - 000003EF (0x8 bytes), align: 2
  Segment part 1. ROOT.
           ENTRY                   ADDRESS         REF BY
           =====                   =======         ======
           kill_data               000003E8        Canvas (main)
                                                   Destructor (main)
           seqkill                 000003EC 

    *************************************************************************

  FILE NAME : F:\SVN\cn\ScrTool2\Release_NEWSGOLD\Obj\main.r79
  PROGRAM MODULE, NAME : main

  SEGMENTS IN THE MODULE
  ======================
CODE
  Segment part 40. NOT NEEDED.
    -------------------------------------------------------------------------
CODE
  Relative segment, address: CODE_AREA 000003F0 - 0000043F (0x50 bytes), align: 2
  Segment part 41.            Intra module refs:   DoIt
                                                   MENU_ONKEY
           LOCAL                   ADDRESS         
           =====                   =======         
           RunAPP                  000003F0 
               stack 1 = 00000000 ( 0000000C )
    -------------------------------------------------------------------------
CODE
  Segment part 42. NOT NEEDED.
    -------------------------------------------------------------------------
CODE
  Relative segment, address: CODE_AREA 00000440 - 000005AF (0x170 bytes), align: 2
  Segment part 43.            Intra module refs:   GetLunar
                                                   InitScreen
           LOCAL                   ADDRESS         
           =====                   =======         
           GetLDate                00000440 
               stack 1 = 00000000 ( 00000028 )
    -------------------------------------------------------------------------
CODE
  Segment part 44. NOT NEEDED.
    -------------------------------------------------------------------------
DATA_Z
  Relative segment, address: CODE_AREA 000044B4 - 000044BB (0x8 bytes), align: 2
  Segment part 19.            Intra module refs:   GetLDate
    -------------------------------------------------------------------------
CODE
  Relative segment, address: CODE_AREA 000005B0 - 00000BBB (0x60c bytes), align: 2
  Segment part 45.            Intra module refs:   InitScreen
           LOCAL                   ADDRESS         
           =====                   =======         
           GetLunar                000005B0 
               stack 1 = 00000000 ( 00000084 )
    -------------------------------------------------------------------------
CODE
  Segment part 46. NOT NEEDED.
    -------------------------------------------------------------------------
CODE
  Relative segment, address: CODE_AREA 00000BBC - 00000C0F (0x54 bytes), align: 2
  Segment part 47.            Intra module refs:   DrawGUI
                                                   FillScreen
           LOCAL                   ADDRESS         
           =====                   =======         
           PixlsWidth              00000BBC 
               stack 1 = 00000000 ( 00000014 )
    -------------------------------------------------------------------------
CODE
  Segment part 48. NOT NEEDED.
    -------------------------------------------------------------------------
CODE
  Relative segment, address: CODE_AREA 00000C10 - 00000C5B (0x4c bytes), align: 2
  Segment part 49.            Intra module refs:   DaemonOnMessage
                                                   FindBCFGFile
           LOCAL                   ADDRESS         
           =====                   =======         
           strcmp_nocase           00000C10 
    -------------------------------------------------------------------------
CODE
  Segment part 50. NOT NEEDED.
    -------------------------------------------------------------------------
CODE
  Relative segment, address: CODE_AREA 00000C5C - 00000D7B (0x120 bytes), align: 2
  Segment part 51.            Intra module refs:   TaskCreate
           LOCAL                   ADDRESS         
           =====                   =======         
           PlayMusic               00000C5C 
               stack 1 = 00000000 ( 000000F4 )
    -------------------------------------------------------------------------
CODE
  Segment part 52. NOT NEEDED.
    -------------------------------------------------------------------------
CODE
  Relative segment, address: CODE_AREA 00000D7C - 00000DFB (0x80 bytes), align: 2
  Segment part 53.            Intra module refs:   DaemonOnMessage
                                                   InitScreen
           LOCAL                   ADDRESS         
           =====                   =======         
           MidStr                  00000D7C 
               stack 1 = 00000000 ( 00000118 )
    -------------------------------------------------------------------------
CODE
  Segment part 54. NOT NEEDED.
    -------------------------------------------------------------------------
DATA_Z
  Relative segment, address: CODE_AREA 000044BC - 000044FB (0x40 bytes), align: 2
  Segment part 21.            Intra module refs:   Segment part 2
    -------------------------------------------------------------------------
DATA_Z
  Relative segment, address: CODE_AREA 000044FC - 0000453B (0x40 bytes), align: 2
  Segment part 26.            Intra module refs:   FindBCFGFile
    -------------------------------------------------------------------------
DATA_Z
  Relative segment, address: CODE_AREA 0000453C - 0000455B (0x20 bytes), align: 2
  Segment part 27.            Intra module refs:   Segment part 31
    -------------------------------------------------------------------------
DATA_Z
  Relative segment, address: CODE_AREA 0000455C - 0000463B (0xe0 bytes), align: 2
  Segment part 28.            Intra module refs:   Segment part 116
                                                   Segment part 80
    -------------------------------------------------------------------------
DATA_Z
  Relative segment, address: CODE_AREA 0000467C - 0000467D (0x2 bytes), align: 1
  Segment part 29.            Intra module refs:   Segment part 87
    -------------------------------------------------------------------------
DATA_I
  Relative segment, address: DATA_AREA 00000004 - 0000024B (0x248 bytes), align: 2
  Segment part 22.            Intra module refs:   DoIt
                                                   Segment part 133
                                                   Segment part 136
                                                   Segment part 60
                                                   Segment part 71
                                                   Segment part 94
                                                   TaskRedraw
    -------------------------------------------------------------------------
DATA_I
  Relative segment, address: DATA_AREA 0000024C - 00000257 (0xc bytes), align: 2
  Segment part 24.            Intra module refs:   DaemonKeyHook
    -------------------------------------------------------------------------
CODE
  Relative segment, address: CODE_AREA 00000DFC - 00000E4F (0x54 bytes), align: 2
  Segment part 55.            Intra module refs:   Segment part 31
           LOCAL                   ADDRESS         
           =====                   =======         
           MENU_HOOK               00000DFC 
               stack 1 = 00000000 ( 00000010 )
    -------------------------------------------------------------------------
CODE
  Segment part 56. NOT NEEDED.
    -------------------------------------------------------------------------
CODE
  Relative segment, address: CODE_AREA 00000E50 - 00000F2F (0xe0 bytes), align: 2
  Segment part 57.            Intra module refs:   Segment part 31
           LOCAL                   ADDRESS         
           =====                   =======         
           MENU_DRAW               00000E50 
               stack 1 = 00000000 ( 0000001C )
    -------------------------------------------------------------------------
CODE
  Segment part 58. NOT NEEDED.
    -------------------------------------------------------------------------
DATA_I
  Relative segment, address: DATA_AREA 00000258 - 00000297 (0x40 bytes), align: 2
  Segment part 30.            Intra module refs:   TaskOnCreate
           ENTRY                   ADDRESS         REF BY
           =====                   =======         ======
           MENU_HDR                00000258 
           MENU_STRUCT             0000026C 
    -------------------------------------------------------------------------
DATA_I
  Relative segment, address: DATA_AREA 00000298 - 000002A3 (0xc bytes), align: 2
  Segment part 32.            Intra module refs:   Segment part 31
    -------------------------------------------------------------------------
DATA_I
  Relative segment, address: DATA_AREA 000002A4 - 000002BB (0x18 bytes), align: 2
  Segment part 34.            Intra module refs:   Segment part 37
           ENTRY                   ADDRESS         REF BY
           =====                   =======         ======
           MENU_PRESS              000002A4 
    -------------------------------------------------------------------------
DATA_I
  Relative segment, address: DATA_AREA 000002BC - 000002C3 (0x8 bytes), align: 2
  Segment part 36.            Intra module refs:   Segment part 31
           ENTRY                   ADDRESS         REF BY
           =====                   =======         ======
           MENU_TAB                000002BC 
    -------------------------------------------------------------------------
CODE
  Relative segment, address: CODE_AREA 00000F30 - 00000FD3 (0xa4 bytes), align: 2
  Segment part 59.            Intra module refs:   Segment part 31
           LOCAL                   ADDRESS         
           =====                   =======         
           MENU_ONKEY              00000F30 
               stack 1 = 00000000 ( 00000018 )
    -------------------------------------------------------------------------
CODE
  Relative segment, address: CODE_AREA 00000FD4 - 00000FD7 (0x4 bytes), align: 2
  Segment part 60.            Intra module refs:   MENU_ONKEY
    -------------------------------------------------------------------------
CODE
  Segment part 61. NOT NEEDED.
    -------------------------------------------------------------------------
CODE
  Relative segment, address: CODE_AREA 00000FD8 - 0000117F (0x1a8 bytes), align: 2
  Segment part 62.            Intra module refs:   TaskOnCreate
           LOCAL                   ADDRESS         
           =====                   =======         
           FindBCFGFile            00000FD8 
               stack 1 = 00000000 ( 000003E4 )
    -------------------------------------------------------------------------
CODE
  Segment part 63. NOT NEEDED.
    -------------------------------------------------------------------------
CODE
  Relative segment, address: CODE_AREA 00001180 - 0000123B (0xbc bytes), align: 2
  Segment part 64.            Intra module refs:   InitShow
           LOCAL                   ADDRESS         
           =====                   =======         
           SetIDS                  00001180 
               stack 1 = 00000000 ( 0000000C )
    -------------------------------------------------------------------------
CODE
  Segment part 65. NOT NEEDED.
    -------------------------------------------------------------------------
CODE
  Relative segment, address: CODE_AREA 0000123C - 000016E3 (0x4a8 bytes), align: 2
  Segment part 66.            Intra module refs:   DaemonOnCreate
                                                   DaemonOnMessage
           LOCAL                   ADDRESS         
           =====                   =======         
           InitShow                0000123C 
               stack 1 = 00000000 ( 0000003C )
    -------------------------------------------------------------------------
CODE
  Segment part 67. NOT NEEDED.
    -------------------------------------------------------------------------
CODE
  Relative segment, address: CODE_AREA 000016E4 - 0000177F (0x9c bytes), align: 2
  Segment part 68.            Intra module refs:   InitScreen
           LOCAL                   ADDRESS         
           =====                   =======         
           FillScreen              000016E4 
               stack 1 = 00000000 ( 00000018 )
    -------------------------------------------------------------------------
CODE
  Segment part 69. NOT NEEDED.
    -------------------------------------------------------------------------
CODE
  Relative segment, address: CODE_AREA 00001780 - 0000200B (0x88c bytes), align: 2
  Segment part 70.            Intra module refs:   DaemonOnMessage
           LOCAL                   ADDRESS         
           =====                   =======         
           InitScreen              00001780 
               stack 1 = 00000000 ( 0000008C )
    -------------------------------------------------------------------------
CODE
  Relative segment, address: CODE_AREA 0000200C - 0000200F (0x4 bytes), align: 2
  Segment part 71.            Intra module refs:   InitScreen
                                                   InitShow
    -------------------------------------------------------------------------
CODE
  Relative segment, address: CODE_AREA 00002010 - 00002013 (0x4 bytes), align: 2
  Segment part 72.            Intra module refs:   InitScreen
    -------------------------------------------------------------------------
CODE
  Segment part 73. NOT NEEDED.
    -------------------------------------------------------------------------
CODE
  Relative segment, address: CODE_AREA 00002014 - 0000299B (0x988 bytes), align: 2
  Segment part 74.            Intra module refs:   TaskRedraw
           LOCAL                   ADDRESS         
           =====                   =======         
           DrawGUI                 00002014 
               stack 1 = 00000000 ( 000000B8 )
    -------------------------------------------------------------------------
CODE
  Relative segment, address: CODE_AREA 0000299C - 0000299F (0x4 bytes), align: 2
  Segment part 75.            Intra module refs:   DrawGUI
    -------------------------------------------------------------------------
CODE
  Segment part 76. NOT NEEDED.
    -------------------------------------------------------------------------
CODE
  Relative segment, address: CODE_AREA 000029A0 - 000029BF (0x20 bytes), align: 2
  Segment part 77.            Intra module refs:   Canvas
           LOCAL                   ADDRESS         
           =====                   =======         
           TaskRedraw              000029A0 
               stack 1 = 00000000 ( 00000004 )
    -------------------------------------------------------------------------
CODE
  Segment part 78. NOT NEEDED.
    -------------------------------------------------------------------------
CODE
  Relative segment, address: CODE_AREA 000029C0 - 00002A07 (0x48 bytes), align: 2
  Segment part 79.            Intra module refs:   InitMenu
           LOCAL                   ADDRESS         
           =====                   =======         
           APP_TRAF                000029C0 
               stack 1 = 00000000 ( 00000008 )
    -------------------------------------------------------------------------
CODE
  Relative segment, address: CODE_AREA 00002A08 - 00002A0B (0x4 bytes), align: 2
  Segment part 80.            Intra module refs:   APP_TRAF
                                                   DrawGUI
    -------------------------------------------------------------------------
CODE
  Segment part 81. NOT NEEDED.
    -------------------------------------------------------------------------
CODE
  Relative segment, address: CODE_AREA 00002A0C - 00002C97 (0x28c bytes), align: 2
  Segment part 82.            Intra module refs:   TaskCreate
           LOCAL                   ADDRESS         
           =====                   =======         
           InitMenu                00002A0C 
               stack 1 = 00000000 ( 00000014 )
    -------------------------------------------------------------------------
CODE
  Segment part 83. NOT NEEDED.
    -------------------------------------------------------------------------
CODE
  Relative segment, address: CODE_AREA 00002C98 - 00002D23 (0x8c bytes), align: 2
  Segment part 84.            Intra module refs:   Canvas
           LOCAL                   ADDRESS         
           =====                   =======         
           TaskCreate              00002C98 
               stack 1 = 00000000 ( 00000014 )
    -------------------------------------------------------------------------
CODE
  Segment part 85. NOT NEEDED.
    -------------------------------------------------------------------------
CODE
  Relative segment, address: CODE_AREA 00002D24 - 00002D8B (0x68 bytes), align: 2
  Segment part 86.            Intra module refs:   Canvas
           LOCAL                   ADDRESS         
           =====                   =======         
           TaskClose               00002D24 
               stack 1 = 00000000 ( 00000010 )
    -------------------------------------------------------------------------
CODE
  Relative segment, address: CODE_AREA 00002D8C - 00002D8F (0x4 bytes), align: 2
  Segment part 87.            Intra module refs:   TaskClose
                                                   TaskCreate
    -------------------------------------------------------------------------
CODE
  Segment part 88. NOT NEEDED.
    -------------------------------------------------------------------------
CODE
  Relative segment, address: CODE_AREA 00002D90 - 00002D9B (0xc bytes), align: 2
  Segment part 89.            Intra module refs:   Canvas
           LOCAL                   ADDRESS         
           =====                   =======         
           TaskFocus               00002D90 
    -------------------------------------------------------------------------
CODE
  Segment part 90. NOT NEEDED.
    -------------------------------------------------------------------------
CODE
  Relative segment, address: CODE_AREA 00002D9C - 00002DAF (0x14 bytes), align: 2
  Segment part 91.            Intra module refs:   Canvas
           LOCAL                   ADDRESS         
           =====                   =======         
           TaskUnfus               00002D9C 
    -------------------------------------------------------------------------
CODE
  Segment part 92. NOT NEEDED.
    -------------------------------------------------------------------------
CODE
  Relative segment, address: CODE_AREA 00002DB0 - 00002EE3 (0x134 bytes), align: 2
  Segment part 93.            Intra module refs:   Canvas
           LOCAL                   ADDRESS         
           =====                   =======         
           TaskKeypress            00002DB0 
               stack 1 = 00000000 ( 00000004 )
    -------------------------------------------------------------------------
CODE
  Relative segment, address: CODE_AREA 00002EE4 - 00002EE7 (0x4 bytes), align: 2
  Segment part 94.            Intra module refs:   APP_TRAF
                                                   DrawGUI
                                                   InitMenu
                                                   TaskClose
                                                   TaskCreate
                                                   TaskKeypress
    -------------------------------------------------------------------------
CODE
  Relative segment, address: CODE_AREA 00002EE8 - 00002EEB (0x4 bytes), align: 2
  Segment part 95.            Intra module refs:   DrawGUI
                                                   TaskKeypress
    -------------------------------------------------------------------------
CODE
  Segment part 96. NOT NEEDED.
    -------------------------------------------------------------------------
CODE
  Relative segment, address: CODE_AREA 00002EEC - 00002EEF (0x4 bytes), align: 2
  Segment part 97.            Intra module refs:   Canvas
           LOCAL                   ADDRESS         
           =====                   =======         
           TaskMethod8             00002EEC 
    -------------------------------------------------------------------------
CODE
  Segment part 98. NOT NEEDED.
    -------------------------------------------------------------------------
CODE
  Relative segment, address: CODE_AREA 00002EF0, align: 2
  Segment part 99.            Intra module refs:   Canvas
           LOCAL                   ADDRESS         
           =====                   =======         
           TaskMethod9             00002EF0 
    -------------------------------------------------------------------------
CODE
  Relative segment, address: CODE_AREA 00002EF0 - 00002EF7 (0x8 bytes), align: 2
  Segment part 100.           Intra module refs:   TaskMethod8
                                                   TaskMethod9
    -------------------------------------------------------------------------
CODE
  Segment part 101. NOT NEEDED.
    -------------------------------------------------------------------------
CODE
  Relative segment, address: CODE_AREA 00002EF8 - 00002FE3 (0xec bytes), align: 2
  Segment part 102.           Intra module refs:   Segment part 2
           LOCAL                   ADDRESS         
           =====                   =======         
           TaskOnCreate            00002EF8 
               stack 1 = 00000000 ( 00000028 )
    -------------------------------------------------------------------------
CODE
  Segment part 103. NOT NEEDED.
    -------------------------------------------------------------------------
CODE
  Relative segment, address: CODE_AREA 00002FE4 - 00002FE7 (0x4 bytes), align: 2
  Segment part 104.           Intra module refs:   TaskOnClose
           LOCAL                   ADDRESS         
           =====                   =======         
           TaskKiller              00002FE4 
    -------------------------------------------------------------------------
CODE
  Segment part 105. NOT NEEDED.
    -------------------------------------------------------------------------
CODE
  Relative segment, address: CODE_AREA 00002FE8 - 00002FFB (0x14 bytes), align: 2
  Segment part 106.           Intra module refs:   Segment part 2
           LOCAL                   ADDRESS         
           =====                   =======         
           TaskOnClose             00002FE8 
               stack 1 = 00000000 ( 00000004 )
    -------------------------------------------------------------------------
CODE
  Segment part 107. NOT NEEDED.
    -------------------------------------------------------------------------
CODE
  Relative segment, address: CODE_AREA 00002FFC - 00003027 (0x2c bytes), align: 2
  Segment part 108.           Intra module refs:   Segment part 2
           LOCAL                   ADDRESS         
           =====                   =======         
           TaskOnMessage           00002FFC 
    -------------------------------------------------------------------------
CODE
  Segment part 109. NOT NEEDED.
    -------------------------------------------------------------------------
CODE
  Relative segment, address: CODE_AREA 00003028 - 0000307B (0x54 bytes), align: 2
  Segment part 110.           Intra module refs:   DaemonKeyHook
                                                   DaemonOnMessage
           LOCAL                   ADDRESS         
           =====                   =======         
           BuildGUI                00003028 
               stack 1 = 00000000 ( 00000040 )
    -------------------------------------------------------------------------
CODE
  Relative segment, address: CODE_AREA 0000307C - 0000307F (0x4 bytes), align: 2
  Segment part 111.           Intra module refs:   BuildGUI
                                                   DrawGUI
    -------------------------------------------------------------------------
CODE
  Segment part 112. NOT NEEDED.
    -------------------------------------------------------------------------
CODE
  Relative segment, address: CODE_AREA 00003080 - 00003107 (0x88 bytes), align: 2
  Segment part 113.           Intra module refs:   DoIt
           LOCAL                   ADDRESS         
           =====                   =======         
           RunDIR                  00003080 
               stack 1 = 00000000 ( 00000074 )
    -------------------------------------------------------------------------
CODE
  Segment part 114. NOT NEEDED.
    -------------------------------------------------------------------------
CODE
  Relative segment, address: CODE_AREA 00003108 - 000031EF (0xe8 bytes), align: 2
  Segment part 115.           Intra module refs:   TaskKeypress
           LOCAL                   ADDRESS         
           =====                   =======         
           DoIt                    00003108 
               stack 1 = 00000000 ( 00000008 )
    -------------------------------------------------------------------------
CODE
  Relative segment, address: CODE_AREA 000031F0 - 000031F3 (0x4 bytes), align: 2
  Segment part 116.           Intra module refs:   DoIt
    -------------------------------------------------------------------------
CODE
  Segment part 117. NOT NEEDED.
    -------------------------------------------------------------------------
CODE
  Relative segment, address: CODE_AREA 000031F4 - 000032C3 (0xd0 bytes), align: 2
  Segment part 118.           Intra module refs:   Segment part 139
           LOCAL                   ADDRESS         
           =====                   =======         
           DaemonKeyHook           000031F4 
               stack 1 = 00000000 ( 0000000C )
    -------------------------------------------------------------------------
CODE
  Relative segment, address: CODE_AREA 000032C4 - 000032C7 (0x4 bytes), align: 2
  Segment part 119.           Intra module refs:   DaemonKeyHook
                                                   TaskKeypress
    -------------------------------------------------------------------------
CODE
  Segment part 120. NOT NEEDED.
    -------------------------------------------------------------------------
CODE
  Relative segment, address: CODE_AREA 000032C8 - 000032EF (0x28 bytes), align: 2
  Segment part 121.           Intra module refs:   DaemonOnMessage
           LOCAL                   ADDRESS         
           =====                   =======         
           TimerProc               000032C8 
               stack 1 = 00000000 ( 00000004 )
    -------------------------------------------------------------------------
CODE
  Segment part 122. NOT NEEDED.
    -------------------------------------------------------------------------
CODE
  Relative segment, address: CODE_AREA 000032F0 - 000037C3 (0x4d4 bytes), align: 2
  Segment part 123.           Intra module refs:   Segment part 2
           LOCAL                   ADDRESS         
           =====                   =======         
           DaemonOnMessage         000032F0 
               stack 1 = 00000000 ( 00000074 )
    -------------------------------------------------------------------------
CODE
  Relative segment, address: CODE_AREA 000037C4 - 000037C7 (0x4 bytes), align: 2
  Segment part 124.           Intra module refs:   DaemonOnMessage
                                                   DoIt
    -------------------------------------------------------------------------
CODE
  Relative segment, address: CODE_AREA 000037C8 - 000037CB (0x4 bytes), align: 2
  Segment part 125.           Intra module refs:   DaemonOnMessage
    -------------------------------------------------------------------------
CODE
  Segment part 126. NOT NEEDED.
    -------------------------------------------------------------------------
CODE
  Relative segment, address: CODE_AREA 000037CC - 000038B7 (0xec bytes), align: 2
  Segment part 127.           Intra module refs:   Segment part 2
           LOCAL                   ADDRESS         
           =====                   =======         
           DaemonOnCreate          000037CC 
               stack 1 = 00000000 ( 00000020 )
    -------------------------------------------------------------------------
CODE
  Relative segment, address: CODE_AREA 000038B8 - 000038BB (0x4 bytes), align: 2
  Segment part 128.           Intra module refs:   DaemonOnCreate
                                                   DaemonOnMessage
    -------------------------------------------------------------------------
CODE
  Segment part 129. NOT NEEDED.
    -------------------------------------------------------------------------
CODE
  Relative segment, address: CODE_AREA 000038BC - 000038D7 (0x1c bytes), align: 2
  Segment part 130.           Intra module refs:   DaemonOnClose
           LOCAL                   ADDRESS         
           =====                   =======         
           Destructor              000038BC 
               stack 1 = 00000000 ( 00000004 )
    -------------------------------------------------------------------------
CODE
  Segment part 131. NOT NEEDED.
    -------------------------------------------------------------------------
CODE
  Relative segment, address: CODE_AREA 000038D8 - 00003957 (0x80 bytes), align: 2
  Segment part 132.           Intra module refs:   Segment part 2
           LOCAL                   ADDRESS         
           =====                   =======         
           DaemonOnClose           000038D8 
               stack 1 = 00000000 ( 0000000C )
    -------------------------------------------------------------------------
CODE
  Relative segment, address: CODE_AREA 00003958 - 0000395B (0x4 bytes), align: 2
  Segment part 133.           Intra module refs:   DaemonOnClose
                                                   DaemonOnCreate
                                                   DaemonOnMessage
    -------------------------------------------------------------------------
CODE
  Segment part 134. NOT NEEDED.
    -------------------------------------------------------------------------
DATA_Z
  Relative segment, address: CODE_AREA 0000463C - 0000467B (0x40 bytes), align: 2
  Segment part 39.            Intra module refs:   Segment part 2
    -------------------------------------------------------------------------
DATA_C
  Relative segment, address: CODE_AREA 00003A6C - 00003DFF (0x394 bytes), align: 2
  Segment part 2.             Intra module refs:   DrawGUI
                                                   Segment part 111
                                                   Segment part 137
                                                   Segment part 72
                                                   TimerProc
    -------------------------------------------------------------------------
DATA_C
  Segment part 3. NOT NEEDED.
    -------------------------------------------------------------------------
DATA_C
  Relative segment, address: CODE_AREA 00003E00 - 00003E07 (0x8 bytes), align: 2
  Segment part 4.             Intra module refs:   Segment part 35
    -------------------------------------------------------------------------
DATA_C
  Segment part 5. NOT NEEDED.
    -------------------------------------------------------------------------
DATA_C
  Segment part 6. NOT NEEDED.
    -------------------------------------------------------------------------
DATA_C
  Segment part 7. NOT NEEDED.
    -------------------------------------------------------------------------
DATA_C
  Relative segment, address: CODE_AREA 00003E08 - 00003E0F (0x8 bytes), align: 2
  Segment part 8.             Intra module refs:   MENU_DRAW
    -------------------------------------------------------------------------
DATA_C
  Segment part 9. NOT NEEDED.
    -------------------------------------------------------------------------
DATA_C
  Segment part 10. NOT NEEDED.
    -------------------------------------------------------------------------
DATA_C
  Relative segment, address: CODE_AREA 00004499 - 0000449A (0x2 bytes), align: 0
  Segment part 11.            Intra module refs:   Segment part 35
    -------------------------------------------------------------------------
DATA_C
  Relative segment, address: CODE_AREA 00003E10 - 00003E17 (0x8 bytes), align: 2
  Segment part 12.            Intra module refs:   Segment part 35
    -------------------------------------------------------------------------
DATA_C
  Relative segment, address: CODE_AREA 00003E18 - 00003E37 (0x20 bytes), align: 2
  Segment part 13.            Intra module refs:   DaemonOnMessage
                                                   Segment part 2
    -------------------------------------------------------------------------
DATA_C
  Segment part 14. NOT NEEDED.
    -------------------------------------------------------------------------
DATA_C
  Segment part 15. NOT NEEDED.
    -------------------------------------------------------------------------
DATA_C
  Segment part 16. NOT NEEDED.
    -------------------------------------------------------------------------
DATA_C
  Relative segment, address: CODE_AREA 00003E38 - 000042B7 (0x480 bytes), align: 2
  Segment part 17.            Intra module refs:   GetLunar
    -------------------------------------------------------------------------
DATA_C
  Relative segment, address: CODE_AREA 000042B8 - 0000445F (0x1a8 bytes), align: 2
  Segment part 18.            Intra module refs:   GetLDate
    -------------------------------------------------------------------------
DATA_C
  Relative segment, address: CODE_AREA 00004460 - 00004463 (0x4 bytes), align: 2
  Segment part 20.            Intra module refs:   Segment part 2
    -------------------------------------------------------------------------
DATA_C
  Relative segment, address: CODE_AREA 00004464 - 00004497 (0x34 bytes), align: 2
  Segment part 38.            Intra module refs:   TaskOnCreate
           ENTRY                   ADDRESS         REF BY
           =====                   =======         ======
           Canvas                  00004490 
    -------------------------------------------------------------------------
CODE
  Relative segment, address: CODE_AREA 0000395C - 00003A23 (0xc8 bytes), align: 2
  Segment part 135.
           ENTRY                   ADDRESS         REF BY
           =====                   =======         ======
           main                    0000395C        Absolute parts (?ABS_ENTRY_MOD)
               stack 1 = 00000000 ( 0000003C )
    -------------------------------------------------------------------------
CODE
  Relative segment, address: CODE_AREA 00003A24 - 00003A27 (0x4 bytes), align: 2
  Segment part 136.           Intra module refs:   BuildGUI
                                                   TaskOnCreate
                                                   main
    -------------------------------------------------------------------------
CODE
  Relative segment, address: CODE_AREA 00003A28 - 00003A2B (0x4 bytes), align: 2
  Segment part 137.           Intra module refs:   main
    -------------------------------------------------------------------------
CODE
  Relative segment, address: CODE_AREA 00003A2C - 00003A2F (0x4 bytes), align: 2
  Segment part 138.           Intra module refs:   DaemonOnMessage
                                                   main
    -------------------------------------------------------------------------
CODE
  Relative segment, address: CODE_AREA 00003A30 - 00003A33 (0x4 bytes), align: 2
  Segment part 139.           Intra module refs:   DaemonOnClose
                                                   DaemonOnMessage
                                                   main
    -------------------------------------------------------------------------
CODE
  Segment part 140. NOT NEEDED.Intra module refs   DaemonOnMessage
                                                   DrawGUI
                                                   GetLunar
    -------------------------------------------------------------------------
CODE
  Segment part 141. NOT NEEDED.Intra module refs   DrawGUI
                                                   GetLunar
                                                   InitScreen
    -------------------------------------------------------------------------
CODE
  Segment part 142. NOT NEEDED.Intra module refs   DoIt
    -------------------------------------------------------------------------
CODE
  Segment part 143. NOT NEEDED.Intra module refs   DaemonOnMessage
                                                   main
    -------------------------------------------------------------------------
CODE
  Segment part 144. NOT NEEDED.Intra module refs   Destructor
    -------------------------------------------------------------------------
CSTACK
  Segment part 1. NOT NEEDED.
    -------------------------------------------------------------------------
DATA_ID
  Relative segment, address: CODE_AREA 00000004 - 0000024B (0x248 bytes), align: 2
  Segment part 23.            Intra module refs:   Segment part 22
    -------------------------------------------------------------------------
DATA_ID
  Relative segment, address: CODE_AREA 0000024C - 00000257 (0xc bytes), align: 2
  Segment part 25.            Intra module refs:   Segment part 24
    -------------------------------------------------------------------------
DATA_ID
  Relative segment, address: CODE_AREA 00000258 - 00000297 (0x40 bytes), align: 2
  Segment part 31.            Intra module refs:   Segment part 30
    -------------------------------------------------------------------------
DATA_ID
  Relative segment, address: CODE_AREA 00000298 - 000002A3 (0xc bytes), align: 2
  Segment part 33.            Intra module refs:   Segment part 32
    -------------------------------------------------------------------------
DATA_ID
  Relative segment, address: CODE_AREA 000002A4 - 000002BB (0x18 bytes), align: 2
  Segment part 35.            Intra module refs:   MENU_PRESS
    -------------------------------------------------------------------------
DATA_ID
  Relative segment, address: CODE_AREA 000002BC - 000002C3 (0x8 bytes), align: 2
  Segment part 37.            Intra module refs:   MENU_TAB
    -------------------------------------------------------------------------
DATA_ID
  Segment part 145. TENTATIVE. Used definition from conf_loader
           ENTRY                   ADDRESS         REF BY
           =====                   =======         ======
           ?*?DATA_ID              
    -------------------------------------------------------------------------
INITTAB
  Segment part 146. TENTATIVE. Used definition from conf_loader
           ENTRY                   ADDRESS         REF BY
           =====                   =======         ======
           ?init?tab?DATA_I        
    -------------------------------------------------------------------------
INITTAB
  Relative segment, address: CODE_AREA 000044A8 - 000044B3 (0xc bytes), align: 2
  Segment part 147. ROOT.
           ENTRY                   ADDRESS         REF BY
           =====                   =======         ======
           ?init?tab?DATA_Z        000044A8 




                ****************************************
                *                                      *
                *            MODULE SUMMARY            *
                *                                      *
                ****************************************

Module             CODE   DATA
------             ----   ----
                  (Rel)  (Rel)
conf_loader         353      4
  + shared           12
config_data      15 452
func                  8
main             17 672    704
N/A (alignment)
------           ------    ---
Total:           33 497    708


                ****************************************
                *                                      *
                *              CALL GRAPH              *
                *                                      *
                ****************************************

  ->Sub-tree of type: Indirectly called function tree that does not make
                    : indirect calls (Is not an interrupt and is not flagged
                    : as not overlayable)
                             CSTACK
    | Stack used (prev) :  00000000
  01  MENU_HOOK
      | Stack used (prev) :  00000000
      | + function block  :  00000010
  <-Sub-tree of type: Indirectly called function tree that does not make
                    : indirect calls (Is not an interrupt and is not flagged
                    : as not overlayable)
    | Stack used          :  00000010


  ->Sub-tree of type: Indirectly called function tree that does not make
                    : indirect calls (Is not an interrupt and is not flagged
                    : as not overlayable)
                             CSTACK
    | Stack used (prev) :  00000000
  01  MENU_DRAW
      | Stack used (prev) :  00000000
      | + function block  :  0000001C
  <-Sub-tree of type: Indirectly called function tree that does not make
                    : indirect calls (Is not an interrupt and is not flagged
                    : as not overlayable)
    | Stack used          :  0000001C


  ->Sub-tree of type: Indirectly called function tree that does not make
                    : indirect calls (Is not an interrupt and is not flagged
                    : as not overlayable)
                             CSTACK
    | Stack used (prev) :  00000000
  01  MENU_ONKEY
      | Stack used (prev) :  00000000
      | + function block  :  00000018
  <-Sub-tree of type: Indirectly called function tree that does not make
                    : indirect calls (Is not an interrupt and is not flagged
                    : as not overlayable)
    | Stack used          :  00000018


  ->Sub-tree of type: Indirectly called function tree that does not make
                    : indirect calls (Is not an interrupt and is not flagged
                    : as not overlayable)
                             CSTACK
    | Stack used (prev) :  00000000
  01  DrawGUI
      | Stack used (prev) :  00000000
      | + function block  :  000000B8
  <-Sub-tree of type: Indirectly called function tree that does not make
                    : indirect calls (Is not an interrupt and is not flagged
                    : as not overlayable)
    | Stack used          :  000000B8


  ->Sub-tree of type: Indirectly called function tree that does not make
                    : indirect calls (Is not an interrupt and is not flagged
                    : as not overlayable)
                             CSTACK
    | Stack used (prev) :  00000000
  01  TaskRedraw
      | Stack used (prev) :  00000000
      | + function block  :  00000004
  <-Sub-tree of type: Indirectly called function tree that does not make
                    : indirect calls (Is not an interrupt and is not flagged
                    : as not overlayable)
    | Stack used          :  00000004


  ->Sub-tree of type: Indirectly called function tree that does not make
                    : indirect calls (Is not an interrupt and is not flagged
                    : as not overlayable)
                             CSTACK
    | Stack used (prev) :  00000000
  01  TaskCreate
      | Stack used (prev) :  00000000
      | + function block  :  00000014
  <-Sub-tree of type: Indirectly called function tree that does not make
                    : indirect calls (Is not an interrupt and is not flagged
                    : as not overlayable)
    | Stack used          :  00000014


  ->Sub-tree of type: Indirectly called function tree that does not make
                    : indirect calls (Is not an interrupt and is not flagged
                    : as not overlayable)
                             CSTACK
    | Stack used (prev) :  00000000
  01  TaskClose
      | Stack used (prev) :  00000000
      | + function block  :  00000010
  <-Sub-tree of type: Indirectly called function tree that does not make
                    : indirect calls (Is not an interrupt and is not flagged
                    : as not overlayable)
    | Stack used          :  00000010


  ->Sub-tree of type: Indirectly called function tree that does not make
                    : indirect calls (Is not an interrupt and is not flagged
                    : as not overlayable)
                             CSTACK
    | Stack used (prev) :  00000000
  01  TaskFocus
      | Stack used (prev) :  00000000
      | + function block  :  00000000
  <-Sub-tree of type: Indirectly called function tree that does not make
                    : indirect calls (Is not an interrupt and is not flagged
                    : as not overlayable)
    | Stack used          :  00000000


  ->Sub-tree of type: Indirectly called function tree that does not make
                    : indirect calls (Is not an interrupt and is not flagged
                    : as not overlayable)
                             CSTACK
    | Stack used (prev) :  00000000
  01  TaskUnfus
      | Stack used (prev) :  00000000
      | + function block  :  00000000
  <-Sub-tree of type: Indirectly called function tree that does not make
                    : indirect calls (Is not an interrupt and is not flagged
                    : as not overlayable)
    | Stack used          :  00000000


  ->Sub-tree of type: Indirectly called function tree that does not make
                    : indirect calls (Is not an interrupt and is not flagged
                    : as not overlayable)
                             CSTACK
    | Stack used (prev) :  00000000
  01  TaskKeypress
      | Stack used (prev) :  00000000
      | + function block  :  00000004
  <-Sub-tree of type: Indirectly called function tree that does not make
                    : indirect calls (Is not an interrupt and is not flagged
                    : as not overlayable)
    | Stack used          :  00000004


  ->Sub-tree of type: Indirectly called function tree that does not make
                    : indirect calls (Is not an interrupt and is not flagged
                    : as not overlayable)
                             CSTACK
    | Stack used (prev) :  00000000
  01  TaskMethod8
      | Stack used (prev) :  00000000
      | + function block  :  00000000
  <-Sub-tree of type: Indirectly called function tree that does not make
                    : indirect calls (Is not an interrupt and is not flagged
                    : as not overlayable)
    | Stack used          :  00000000


  ->Sub-tree of type: Indirectly called function tree that does not make
                    : indirect calls (Is not an interrupt and is not flagged
                    : as not overlayable)
                             CSTACK
    | Stack used (prev) :  00000000
  01  TaskMethod9
      | Stack used (prev) :  00000000
      | + function block  :  00000000
  <-Sub-tree of type: Indirectly called function tree that does not make
                    : indirect calls (Is not an interrupt and is not flagged
                    : as not overlayable)
    | Stack used          :  00000000


  ->Sub-tree of type: Indirectly called function tree that does not make
                    : indirect calls (Is not an interrupt and is not flagged
                    : as not overlayable)
                             CSTACK
    | Stack used (prev) :  00000000
  01  TaskOnCreate
      | Stack used (prev) :  00000000
      | + function block  :  00000028
  <-Sub-tree of type: Indirectly called function tree that does not make
                    : indirect calls (Is not an interrupt and is not flagged
                    : as not overlayable)
    | Stack used          :  00000028


  ->Sub-tree of type: Indirectly called function tree that does not make
                    : indirect calls (Is not an interrupt and is not flagged
                    : as not overlayable)
                             CSTACK
    | Stack used (prev) :  00000000
  01  TaskKiller
      | Stack used (prev) :  00000000
      | + function block  :  00000000
  <-Sub-tree of type: Indirectly called function tree that does not make
                    : indirect calls (Is not an interrupt and is not flagged
                    : as not overlayable)
    | Stack used          :  00000000


  ->Sub-tree of type: Indirectly called function tree that does not make
                    : indirect calls (Is not an interrupt and is not flagged
                    : as not overlayable)
                             CSTACK
    | Stack used (prev) :  00000000
  01  TaskOnClose
      | Stack used (prev) :  00000000
      | + function block  :  00000004
  <-Sub-tree of type: Indirectly called function tree that does not make
                    : indirect calls (Is not an interrupt and is not flagged
                    : as not overlayable)
    | Stack used          :  00000004


  ->Sub-tree of type: Indirectly called function tree that does not make
                    : indirect calls (Is not an interrupt and is not flagged
                    : as not overlayable)
                             CSTACK
    | Stack used (prev) :  00000000
  01  TaskOnMessage
      | Stack used (prev) :  00000000
      | + function block  :  00000000
  <-Sub-tree of type: Indirectly called function tree that does not make
                    : indirect calls (Is not an interrupt and is not flagged
                    : as not overlayable)
    | Stack used          :  00000000


  ->Sub-tree of type: Indirectly called function tree that does not make
                    : indirect calls (Is not an interrupt and is not flagged
                    : as not overlayable)
                             CSTACK
    | Stack used (prev) :  00000000
  01  DaemonKeyHook
      | Stack used (prev) :  00000000
      | + function block  :  0000000C
  <-Sub-tree of type: Indirectly called function tree that does not make
                    : indirect calls (Is not an interrupt and is not flagged
                    : as not overlayable)
    | Stack used          :  0000000C


  ->Sub-tree of type: Indirectly called function tree that does not make
                    : indirect calls (Is not an interrupt and is not flagged
                    : as not overlayable)
                             CSTACK
    | Stack used (prev) :  00000000
  01  TimerProc
      | Stack used (prev) :  00000000
      | + function block  :  00000004
  <-Sub-tree of type: Indirectly called function tree that does not make
                    : indirect calls (Is not an interrupt and is not flagged
                    : as not overlayable)
    | Stack used          :  00000004


  ->Sub-tree of type: Indirectly called function tree that does not make
                    : indirect calls (Is not an interrupt and is not flagged
                    : as not overlayable)
                             CSTACK
    | Stack used (prev) :  00000000
  01  DaemonOnMessage
      | Stack used (prev) :  00000000
      | + function block  :  00000074
  <-Sub-tree of type: Indirectly called function tree that does not make
                    : indirect calls (Is not an interrupt and is not flagged
                    : as not overlayable)
    | Stack used          :  00000074


  ->Sub-tree of type: Indirectly called function tree that does not make
                    : indirect calls (Is not an interrupt and is not flagged
                    : as not overlayable)
                             CSTACK
    | Stack used (prev) :  00000000
  01  DaemonOnCreate
      | Stack used (prev) :  00000000
      | + function block  :  00000020
  <-Sub-tree of type: Indirectly called function tree that does not make
                    : indirect calls (Is not an interrupt and is not flagged
                    : as not overlayable)
    | Stack used          :  00000020


  ->Sub-tree of type: Indirectly called function tree that does not make
                    : indirect calls (Is not an interrupt and is not flagged
                    : as not overlayable)
                             CSTACK
    | Stack used (prev) :  00000000
  01  Destructor
      | Stack used (prev) :  00000000
      | + function block  :  00000004
  <-Sub-tree of type: Indirectly called function tree that does not make
                    : indirect calls (Is not an interrupt and is not flagged
                    : as not overlayable)
    | Stack used          :  00000004


  ->Sub-tree of type: Indirectly called function tree that does not make
                    : indirect calls (Is not an interrupt and is not flagged
                    : as not overlayable)
                             CSTACK
    | Stack used (prev) :  00000000
  01  DaemonOnClose
      | Stack used (prev) :  00000000
      | + function block  :  0000000C
  <-Sub-tree of type: Indirectly called function tree that does not make
                    : indirect calls (Is not an interrupt and is not flagged
                    : as not overlayable)
    | Stack used          :  0000000C


  ->Sub-tree of type: Function tree
                             CSTACK
    | Stack used (prev) :  000000B8
  01  LoadConfigData
      | Stack used (prev) :  000000B8
      | + function block  :  00000024
  <-Sub-tree of type: Function tree
    | Stack used          :  000000DC


  ->Sub-tree of type: Function tree
                             CSTACK
    | Stack used (prev) :  000000DC
  01  InitConfig
      | Stack used (prev) :  000000DC
      | + function block  :  00000008
  <-Sub-tree of type: Function tree
    | Stack used          :  000000E4


  ->Sub-tree of type: Function tree
                             CSTACK
    | Stack used (prev) :  000000E4
  01  RunAPP
      | Stack used (prev) :  000000E4
      | + function block  :  0000000C
  <-Sub-tree of type: Function tree
    | Stack used          :  000000F0


  ->Sub-tree of type: Function tree
                             CSTACK
    | Stack used (prev) :  000000F0
  01  GetLDate
      | Stack used (prev) :  000000F0
      | + function block  :  00000028
  <-Sub-tree of type: Function tree
    | Stack used          :  00000118


  ->Sub-tree of type: Function tree
                             CSTACK
    | Stack used (prev) :  00000118
  01  GetLunar
      | Stack used (prev) :  00000118
      | + function block  :  00000084
  <-Sub-tree of type: Function tree
    | Stack used          :  0000019C


  ->Sub-tree of type: Function tree
                             CSTACK
    | Stack used (prev) :  0000019C
  01  PixlsWidth
      | Stack used (prev) :  0000019C
      | + function block  :  00000014
  <-Sub-tree of type: Function tree
    | Stack used          :  000001B0


  ->Sub-tree of type: Function tree
                             CSTACK
    | Stack used (prev) :  000001B0
  01  strcmp_nocase
      | Stack used (prev) :  000001B0
      | + function block  :  00000000
  <-Sub-tree of type: Function tree
    | Stack used          :  000001B0


  ->Sub-tree of type: Function tree
                             CSTACK
    | Stack used (prev) :  000001B0
  01  PlayMusic
      | Stack used (prev) :  000001B0
      | + function block  :  000000F4
  <-Sub-tree of type: Function tree
    | Stack used          :  000002A4


  ->Sub-tree of type: Function tree
                             CSTACK
    | Stack used (prev) :  000002A4
  01  MidStr
      | Stack used (prev) :  000002A4
      | + function block  :  00000118
  <-Sub-tree of type: Function tree
    | Stack used          :  000003BC


  ->Sub-tree of type: Function tree
                             CSTACK
    | Stack used (prev) :  000003BC
  01  FindBCFGFile
      | Stack used (prev) :  000003BC
      | + function block  :  000003E4
  <-Sub-tree of type: Function tree
    | Stack used          :  000007A0


  ->Sub-tree of type: Function tree
                             CSTACK
    | Stack used (prev) :  000007A0
  01  SetIDS
      | Stack used (prev) :  000007A0
      | + function block  :  0000000C
  <-Sub-tree of type: Function tree
    | Stack used          :  000007AC


  ->Sub-tree of type: Function tree
                             CSTACK
    | Stack used (prev) :  000007AC
  01  InitShow
      | Stack used (prev) :  000007AC
      | + function block  :  0000003C
  <-Sub-tree of type: Function tree
    | Stack used          :  000007E8


  ->Sub-tree of type: Function tree
                             CSTACK
    | Stack used (prev) :  000007E8
  01  FillScreen
      | Stack used (prev) :  000007E8
      | + function block  :  00000018
  <-Sub-tree of type: Function tree
    | Stack used          :  00000800


  ->Sub-tree of type: Function tree
                             CSTACK
    | Stack used (prev) :  00000800
  01  InitScreen
      | Stack used (prev) :  00000800
      | + function block  :  0000008C
  <-Sub-tree of type: Function tree
    | Stack used          :  0000088C


  ->Sub-tree of type: Function tree
                             CSTACK
    | Stack used (prev) :  0000088C
  01  APP_TRAF
      | Stack used (prev) :  0000088C
      | + function block  :  00000008
  <-Sub-tree of type: Function tree
    | Stack used          :  00000894


  ->Sub-tree of type: Function tree
                             CSTACK
    | Stack used (prev) :  00000894
  01  InitMenu
      | Stack used (prev) :  00000894
      | + function block  :  00000014
  <-Sub-tree of type: Function tree
    | Stack used          :  000008A8


  ->Sub-tree of type: Function tree
                             CSTACK
    | Stack used (prev) :  000008A8
  01  BuildGUI
      | Stack used (prev) :  000008A8
      | + function block  :  00000040
  <-Sub-tree of type: Function tree
    | Stack used          :  000008E8


  ->Sub-tree of type: Function tree
                             CSTACK
    | Stack used (prev) :  000008E8
  01  RunDIR
      | Stack used (prev) :  000008E8
      | + function block  :  00000074
  <-Sub-tree of type: Function tree
    | Stack used          :  0000095C


  ->Sub-tree of type: Function tree
                             CSTACK
    | Stack used (prev) :  0000095C
  01  DoIt
      | Stack used (prev) :  0000095C
      | + function block  :  00000008
  <-Sub-tree of type: Function tree
    | Stack used          :  00000964


  ->Sub-tree of type: Function tree
                             CSTACK
    | Stack used (prev) :  00000964
  01  main
      | Stack used (prev) :  00000964
      | + function block  :  0000003C
  <-Sub-tree of type: Function tree
    | Stack used          :  000009A0




                ****************************************
                *                                      *
                *      SEGMENTS IN ADDRESS ORDER       *
                *                                      *
                ****************************************


SEGMENT              SPACE    START ADDRESS   END ADDRESS     SIZE  TYPE  ALIGN
=======              =====    =============   ===========     ====  ====  =====
ELFBEGIN             CODE_AREA           00000000                     rel    0
DATA_ID              CODE_AREA      00000000 - 000002C3         2C4   rel    2
START                CODE_AREA           000002C4                     dse    0
CODE                 CODE_AREA      000002C4 - 00003A33        3770   rel    2
DATA_C               CODE_AREA      00003A34 - 0000449A         A67   rel    2
INITTAB              CODE_AREA      0000449C - 000044B3          18   rel    2
DATA_Z               CODE_AREA      000044B4 - 0000467D         1CA   rel    2
DATA_N               CODE_AREA           0000467E                     dse    0
CONFIG_C             CODE_AREA      00004680 - 000082DB        3C5C   rel    2
DATA_I               DATA_AREA      00000000 - 000002C3         2C4   rel    2

                ****************************************
                *                                      *
                *        END OF CROSS REFERENCE        *
                *                                      *
                ****************************************

 33 497 bytes of CODE memory
    708 bytes of DATA memory

Errors: 7
Warnings: none

