Warning[w6]: Type conflict for external/entry "PNG_HEADER", in module main against external/entry in module config_data2; types have different type attributes
  /* In module main: */
  int PNG_HEADER;
  /* In module config_data2: */
  int const PNG_HEADER;
Warning[w6]: Type conflict for external/entry "PNG_SOFTKEY", in module main against external/entry in module config_data2; types have different type attributes
  /* In module main: */
  int PNG_SOFTKEY;
  /* In module config_data2: */
  int const PNG_SOFTKEY;
Warning[w6]: Type conflict for external/entry "awayMsg", in module main against external/entry in module config_data2; types have different type attributes
  /* In module main: */
  char awayMsg[256];
  /* In module config_data2: */
  char (const awayMsg)[256];
Warning[w6]: Type conflict for external/entry "PASS", in module auth against external/entry in module configs; types have different type attributes
  /* In module auth: */
  char (const PASS)[];
  /* In module configs: */
  char PASS[9];
Warning[w6]: Type conflict for external/entry "UIN", in module auth against external/entry in module configs; types have different type attributes
  /* In module auth: */
  unsigned int const UIN;
  /* In module configs: */
  unsigned int UIN;
Warning[w6]: Type conflict for external/entry "ProcessPacket", in module auth against external/entry in module main; function return types are different; different basic types
  /* In module auth: */
  /* Function, args 1, attr 0 */
  void (__atpcs __interwork ProcessPacket)(struct /* Elements: 2, Bytes: 16392 */
                                           { 
                                             PKT pkt;
                                             char data[16384];
                                           } *);
    typedef struct __Unnamed_1_130 PKT;
  /* In module main: */
  /* Function, args 1, attr 0 */
  int (__atpcs __interwork ProcessPacket)(TPKT *);
    typedef struct __Unnamed_1_128 TPKT;
################################################################################
#                                                                              #
#      IAR Universal Linker V4.60I/386                                         #
#                                                                              #
#           Link time     =  10/Dec/2010  22:12:09                             #
#           Target CPU    =  ARM                                               #
#           List file     =  D:\pasha\elf\_MY_PROJECT_\naticq_mod2\Release\Lis #
#                            t\NATICQ.map                                      #
#           Output file 1 =  D:\pasha\elf\_MY_PROJECT_\naticq_mod2\Release\Exe #
#                            \NATICQ.elf                                       #
#                            Format: elf, variant: -ynpra                      #
#           Command line  =  D:\pasha\elf\_MY_PROJECT_\naticq_mod2\Release\Obj #
#                            \addon.r79                                        #
#                            D:\pasha\elf\_MY_PROJECT_\naticq_mod2\Release\Obj #
#                            \cl_work.r79                                      #
#                            D:\pasha\elf\_MY_PROJECT_\naticq_mod2\Release\Obj #
#                            \conf_loader.r79                                  #
#                            D:\pasha\elf\_MY_PROJECT_\naticq_mod2\Release\Obj #
#                            \config_data2.r79                                 #
#                            D:\pasha\elf\_MY_PROJECT_\naticq_mod2\Release\Obj #
#                            \configs.r79                                      #
#                            D:\pasha\elf\_MY_PROJECT_\naticq_mod2\Release\Obj #
#                            \func.r79                                         #
#                            D:\pasha\elf\_MY_PROJECT_\naticq_mod2\Release\Obj #
#                            \history.r79                                      #
#                            D:\pasha\elf\_MY_PROJECT_\naticq_mod2\Release\Obj #
#                            \main.r79                                         #
#                            D:\pasha\elf\_MY_PROJECT_\naticq_mod2\Release\Obj #
#                            \mainmenu.r79                                     #
#                            D:\pasha\elf\_MY_PROJECT_\naticq_mod2\Release\Obj #
#                            \manage_cl.r79                                    #
#                            D:\pasha\elf\_MY_PROJECT_\naticq_mod2\Release\Obj #
#                            \player_tags.r79                                  #
#                            D:\pasha\elf\_MY_PROJECT_\naticq_mod2\Release\Obj #
#                            \screen_save.r79                                  #
#                            D:\pasha\elf\_MY_PROJECT_\naticq_mod2\Release\Obj #
#                            \select_smile.r79                                 #
#                            D:\pasha\elf\_MY_PROJECT_\naticq_mod2\Release\Obj #
#                            \smiles_loader.r79                                #
#                            D:\pasha\elf\_MY_PROJECT_\naticq_mod2\Release\Obj #
#                            \status_change.r79                                #
#                            D:\pasha\elf\_MY_PROJECT_\naticq_mod2\ScreenShot. #
#                            r79                                               #
#                            D:\pasha\elf\_MY_PROJECT_\naticq_mod2\auth.r79    #
#                            D:\pasha\elf\_MY_PROJECT_\naticq_mod2\print.r79   #
#                            D:\pasha\elf\_MY_PROJECT_\naticq_mod2\strings.r79 #
#                            -o                                                #
#                            D:\pasha\elf\_MY_PROJECT_\naticq_mod2\Release\Exe #
#                            \NATICQ.elf                                       #
#                            -Felf -l                                          #
#                            D:\pasha\elf\_MY_PROJECT_\naticq_mod2\Release\Lis #
#                            t\NATICQ.map                                      #
#                            -xmsn -f                                          #
#                            D:\pasha\elf\_MY_PROJECT_\naticq_mod2/test.xcl    #
#                            (-carm -V(CODE)CODE_AREA,12                       #
#                            -V(DATA)DATA_AREA,12                              #
#                            -Z(CODE_AREA)ELFBEGIN,DATA_ID,START,CODE,DATA_C,I #
#                            NITTAB,DATA_Z,DATA_N,CONFIG_C=0-FFFFFFFF          #
#                            -Z(DATA_AREA)DATA_I=0-FFFFFFFF) -ynpra            #
#                            "D:\pasha\Embedded Workbench 4.0 Evaluation2\ARM\ #
#                            LIB\dl5tpainl8n.r79"                              #
#                            -s main                                           #
#                                                                              #
#                        Copyright 1987-2007 IAR Systems. All rights reserved. #
################################################################################





                ****************************************
                *                                      *
                *           CROSS REFERENCE            *
                *                                      *
                ****************************************

       Program entry at : CODE_AREA 0000D5B0  Relocatable, from module : main




                ****************************************
                *                                      *
                *            RUNTIME MODEL             *
                *                                      *
                ****************************************

  StackAlign4  = USED
  StackAlign8  = USED
  __cpu_mode   = __pcs__interwork
  __data_model = absolute
  __endian     = little
  __rt_version = 6



                ****************************************
                *                                      *
                *              MODULE MAP              *
                *                                      *
                ****************************************


  DEFINED ABSOLUTE ENTRIES
    *************************************************************************

  DEFINED ABSOLUTE ENTRIES
    *************************************************************************

  FILE NAME : D:\pasha\elf\_MY_PROJECT_\naticq_mod2\Release\Obj\addon.r79
  PROGRAM MODULE, NAME : addon

  SEGMENTS IN THE MODULE
  ======================
CODE
  Relative segment, address: CODE_AREA 000003BC - 0000058F (0x1d4 bytes), align: 2
  Segment part 24.            Intra module refs:   CheckComand2
           ENTRY                   ADDRESS         REF BY
           =====                   =======         ======
           start                   000003BC 
               stack 1 = 00000000 ( 00000010 )
    -------------------------------------------------------------------------
CODE
  Relative segment, address: CODE_AREA 00000590 - 00000BBB (0x62c bytes), align: 2
  Segment part 26.
           ENTRY                   ADDRESS         REF BY
           =====                   =======         ======
           CheckComand2            00000590        CheckComand (main)
               stack 1 = 00000000 ( 000004D8 )
    -------------------------------------------------------------------------
DATA_I
  Relative segment, address: DATA_AREA 00000000 - 00000007 (0x8 bytes), align: 2
  Segment part 19.            Intra module refs:   DoScreen
           ENTRY                   ADDRESS         REF BY
           =====                   =======         ======
           screen                  00000000        I_OnRedraw (main)
                                                   I_onClose (main)
                                                   MM_OnRedraw (mainmenu)
                                                   MM_onClose (mainmenu)
                                                   method0 (screen_save)
                                                   method2 (screen_save)
    -------------------------------------------------------------------------
CODE
  Relative segment, address: CODE_AREA 00000BBC - 00000C2F (0x74 bytes), align: 2
  Segment part 28.
           ENTRY                   ADDRESS         REF BY
           =====                   =======         ======
           DoScreen                00000BBC        I_onCreate (main)
                                                   MM_onCreate (mainmenu)
                                                   method1 (screen_save)
               stack 1 = 00000000 ( 00000018 )
    -------------------------------------------------------------------------
DATA_I
  Relative segment, address: DATA_AREA 00000008 - 0000000F (0x8 bytes), align: 2
  Segment part 21.            Intra module refs:   DoScreen2
           ENTRY                   ADDRESS         REF BY
           =====                   =======         ======
           screen2                 00000008        Segment part 132 (status_change)
                                                   Segment part 144 (status_change)
                                                   Segment part 58 (status_change)
                                                   Segment part 68 (status_change)
    -------------------------------------------------------------------------
CODE
  Relative segment, address: CODE_AREA 00000C30 - 00000CA3 (0x74 bytes), align: 2
  Segment part 30.
           ENTRY                   ADDRESS         REF BY
           =====                   =======         ======
           DoScreen2               00000C30        SC_onCreate (status_change)
                                                   XS_onCreate (status_change)
               stack 1 = 00000000 ( 00000018 )
    -------------------------------------------------------------------------
CODE
  Relative segment, address: CODE_AREA 00000CA4 - 00000CA7 (0x4 bytes), align: 2
  Segment part 31.            Intra module refs:   DoScreen
                                                   DoScreen2
    -------------------------------------------------------------------------
DATA_ID
  Relative segment, address: CODE_AREA 00000000 - 00000007 (0x8 bytes), align: 2
  Segment part 20.            Intra module refs:   screen
    -------------------------------------------------------------------------
DATA_ID
  Relative segment, address: CODE_AREA 00000008 - 0000000F (0x8 bytes), align: 2
  Segment part 22.            Intra module refs:   screen2
    -------------------------------------------------------------------------
INITTAB
  Relative segment, address: CODE_AREA 0001E4CC - 0001E4D7 (0xc bytes), align: 2
  Segment part 38. ROOT.
           ENTRY                   ADDRESS         REF BY
           =====                   =======         ======
           ?init?tab?DATA_I        0001E4CC 
    -------------------------------------------------------------------------
DATA_C
  Relative segment, address: CODE_AREA 0001E4C4 - 0001E4C4 (0x1 bytes), align: 0
  Segment part 2.             Intra module refs:   Segment part 20
                                                   Segment part 22
    -------------------------------------------------------------------------
DATA_C
  Relative segment, address: CODE_AREA 0001616C - 0001618B (0x20 bytes), align: 2
  Segment part 3.             Intra module refs:   start
    -------------------------------------------------------------------------
DATA_C
  Relative segment, address: CODE_AREA 0001618C - 00016203 (0x78 bytes), align: 2
  Segment part 7.             Intra module refs:   CheckComand2

    *************************************************************************

  FILE NAME : D:\pasha\elf\_MY_PROJECT_\naticq_mod2\Release\Obj\cl_work.r79
  PROGRAM MODULE, NAME : cl_work

  SEGMENTS IN THE MODULE
  ======================
CODE
  Relative segment, address: CODE_AREA 00000CA8 - 00000CCB (0x24 bytes), align: 2
  Segment part 5.             Intra module refs:   FillAllOffline
           ENTRY                   ADDRESS         REF BY
           =====                   =======         ======
           FreeXText               00000CA8        CreateEditChat (main)
                                                   ProcessPacket (main)
               stack 1 = 00000000 ( 00000008 )
    -------------------------------------------------------------------------
CODE
  Relative segment, address: CODE_AREA 00000CCC - 00000D33 (0x68 bytes), align: 2
  Segment part 7.
           ENTRY                   ADDRESS         REF BY
           =====                   =======         ======
           FreeCLIST               00000CCC        maincsm_onclose (main)
               stack 1 = 00000000 ( 00000008 )
    -------------------------------------------------------------------------
CODE
  Relative segment, address: CODE_AREA 00000D34 - 00000DC3 (0x90 bytes), align: 2
  Segment part 9.
           ENTRY                   ADDRESS         REF BY
           =====                   =======         ======
           FillAllOffline          00000D34        maincsm_onmessage (main)
               stack 1 = 00000000 ( 00000010 )
    -------------------------------------------------------------------------
CODE
  Relative segment, address: CODE_AREA 00000DC4 - 00000DEF (0x2c bytes), align: 2
  Segment part 11.            Intra module refs:   LoadLocalCL
           ENTRY                   ADDRESS         REF BY
           =====                   =======         ======
           FindContactByUin        00000DC4        ChangeAutoMsg (main)
                                                   ChangeShowXstatus (main)
                                                   ChangeSoundContact (main)
                                                   ChangeVibraContact (main)
                                                   ClOnKey (main)
                                                   DrawIconInfo (main)
                                                   FindContactLOGQByAck (main)
                                                   I_DrawList (main)
                                                   I_OnKey (main)
                                                   ProcessPacket (main)
                                                   RqtXText (main)
                                                   addIconBar (main)
                                                   get_answer (main)
                                                   maincsm_onmessage (main)
    -------------------------------------------------------------------------
CODE
  Relative segment, address: CODE_AREA 00000DF0 - 00000E1F (0x30 bytes), align: 2
  Segment part 13.
           ENTRY                   ADDRESS         REF BY
           =====                   =======         ======
           FindGroupByID           00000DF0        ClOnKey (main)
                                                   ProcessPacket (main)
                                                   maincsm_onmessage (main)
    -------------------------------------------------------------------------
DATA_C
  Relative segment, address: CODE_AREA 00016204 - 0001620F (0xc bytes), align: 2
  Segment part 2.             Intra module refs:   LoadLocalCL
    -------------------------------------------------------------------------
DATA_C
  Relative segment, address: CODE_AREA 00016210 - 0001630F (0x100 bytes), align: 2
  Segment part 3.             Intra module refs:   FindContactByNS
    -------------------------------------------------------------------------
CODE
  Relative segment, address: CODE_AREA 00000E20 - 00000FA3 (0x184 bytes), align: 2
  Segment part 15.            Intra module refs:   CountContacts
                                                   FindContactByContact
                                                   FindContactByN
           ENTRY                   ADDRESS         REF BY
           =====                   =======         ======
           FindContactByNS         00000E20 
               stack 1 = 00000000 ( 00000020 )
    -------------------------------------------------------------------------
CODE
  Relative segment, address: CODE_AREA 00000FA4 - 00000FD3 (0x30 bytes), align: 2
  Segment part 17.
           ENTRY                   ADDRESS         REF BY
           =====                   =======         ======
           CountContacts           00000FA4        ClOnKey (main)
                                                   DrawList (main)
                                                   RecountMenu (main)
               stack 1 = 00000000 ( 00000008 )
    -------------------------------------------------------------------------
CODE
  Relative segment, address: CODE_AREA 00000FD4 - 0000102F (0x5c bytes), align: 2
  Segment part 19.
           ENTRY                   ADDRESS         REF BY
           =====                   =======         ======
           FindContactByN          00000FD4        ClOnKey (main)
                                                   DrawList (main)
                                                   maincsm_onmessage (main)
               stack 1 = 00000000 ( 00000008 )
    -------------------------------------------------------------------------
CODE
  Relative segment, address: CODE_AREA 00001030 - 00001097 (0x68 bytes), align: 2
  Segment part 21.
           ENTRY                   ADDRESS         REF BY
           =====                   =======         ======
           FindContactByContact    00001030        RecountMenu (main)
               stack 1 = 00000000 ( 0000000C )
    -------------------------------------------------------------------------
CODE
  Relative segment, address: CODE_AREA 00001098 - 0000109B (0x4 bytes), align: 2
  Segment part 22.            Intra module refs:   FindContactByContact
                                                   FindContactByN
    -------------------------------------------------------------------------
CODE
  Relative segment, address: CODE_AREA 0000109C - 000010CF (0x34 bytes), align: 2
  Segment part 24.            Intra module refs:   ChangeContactPos
           ENTRY                   ADDRESS         REF BY
           =====                   =======         ======
           SwapContacts            0000109C 
    -------------------------------------------------------------------------
CODE
  Relative segment, address: CODE_AREA 000010D0 - 0000114F (0x80 bytes), align: 2
  Segment part 26.            Intra module refs:   FillAllOffline
           ENTRY                   ADDRESS         REF BY
           =====                   =======         ======
           ChangeContactPos        000010D0        AddMsgToChat (main)
                                                   AddStringToLog (main)
                                                   CreateEditChat (main)
                                                   ProcessPacket (main)
               stack 1 = 00000000 ( 0000000C )
    -------------------------------------------------------------------------
CODE
  Relative segment, address: CODE_AREA 00001150 - 000011E7 (0x98 bytes), align: 2
  Segment part 28.            Intra module refs:   AddContactOrGroup
                                                   ChangeContactPos
           ENTRY                   ADDRESS         REF BY
           =====                   =======         ======
           CompareContacts         00001150 
               stack 1 = 00000000 ( 00000010 )
    -------------------------------------------------------------------------
CODE
  Relative segment, address: CODE_AREA 000011E8 - 0000125F (0x78 bytes), align: 2
  Segment part 30.            Intra module refs:   AddContact
                                                   AddGroup
                                                   ResortCL
           ENTRY                   ADDRESS         REF BY
           =====                   =======         ======
           AddContactOrGroup       000011E8 
               stack 1 = 00000000 ( 00000010 )
    -------------------------------------------------------------------------
CODE
  Relative segment, address: CODE_AREA 00001260 - 000012CF (0x70 bytes), align: 2
  Segment part 32.
           ENTRY                   ADDRESS         REF BY
           =====                   =======         ======
           ResortCL                00001260        ChangeShowGroupsMode (mainmenu)
                                                   maincsm_onmessage (main)
               stack 1 = 00000000 ( 00000014 )
    -------------------------------------------------------------------------
CODE
  Relative segment, address: CODE_AREA 000012D0 - 0000132F (0x60 bytes), align: 2
  Segment part 34.            Intra module refs:   LoadLocalCL
           ENTRY                   ADDRESS         REF BY
           =====                   =======         ======
           AddContact              000012D0        ProcessPacket (main)
                                                   maincsm_onmessage (main)
               stack 1 = 00000000 ( 00000018 )
    -------------------------------------------------------------------------
CODE
  Relative segment, address: CODE_AREA 00001330 - 00001393 (0x64 bytes), align: 2
  Segment part 36.
           ENTRY                   ADDRESS         REF BY
           =====                   =======         ======
           AddGroup                00001330        ProcessPacket (main)
                                                   maincsm_onmessage (main)
               stack 1 = 00000000 ( 00000010 )
    -------------------------------------------------------------------------
CODE
  Relative segment, address: CODE_AREA 00001394 - 00001397 (0x4 bytes), align: 2
  Segment part 37.            Intra module refs:   AddGroup
                                                   CompareContacts
                                                   FindContactByNS
                                                   ResortCL
    -------------------------------------------------------------------------
CODE
  Relative segment, address: CODE_AREA 00001398 - 0000139B (0x4 bytes), align: 2
  Segment part 38.            Intra module refs:   AddContact
                                                   AddGroup
                                                   FillAllOffline
                                                   FindContactByNS
                                                   FindContactByUin
                                                   FindGroupByID
                                                   FreeCLIST
                                                   ResortCL
    -------------------------------------------------------------------------
CODE
  Relative segment, address: CODE_AREA 0000139C - 0000152F (0x194 bytes), align: 2
  Segment part 40.
           ENTRY                   ADDRESS         REF BY
           =====                   =======         ======
           LoadLocalCL             0000139C        maincsm_onmessage (main)
               stack 1 = 00000000 ( 00000184 )

    *************************************************************************

  FILE NAME : D:\pasha\elf\_MY_PROJECT_\naticq_mod2\Release\Obj\conf_loader.r79
  PROGRAM MODULE, NAME : conf_loader

  SEGMENTS IN THE MODULE
  ======================
CODE
  Relative segment, address: CODE_AREA 00001530 - 0000159B (0x6c bytes), align: 2
  Segment part 13.            Intra module refs:   InitConfig
           ENTRY                   ADDRESS         REF BY
           =====                   =======         ======
           LoadConfigData          00001530 
               stack 1 = 00000000 ( 00000018 )
    -------------------------------------------------------------------------
DATA_I
  Relative segment, address: DATA_AREA 00000010 - 00000013 (0x4 bytes), align: 2
  Segment part 6.             Intra module refs:   InitConfig
           ENTRY                   ADDRESS         REF BY
           =====                   =======         ======
           config_path             00000010 
    -------------------------------------------------------------------------
CODE
  Relative segment, address: CODE_AREA 0000159C - 000015EB (0x50 bytes), align: 2
  Segment part 15.
           ENTRY                   ADDRESS         REF BY
           =====                   =======         ======
           InitConfig              0000159C        UpdateConfig (configs)
               stack 1 = 00000000 ( 00000090 )
    -------------------------------------------------------------------------
DATA_I
  Relative segment, address: DATA_AREA 00000014 - 00000017 (0x4 bytes), align: 2
  Segment part 8.             Intra module refs:   LoadConfigData2
           ENTRY                   ADDRESS         REF BY
           =====                   =======         ======
           suc_config_name_mod     00000014        EditConfigMod (mainmenu)
                                                   Segment part 301 (main)
                                                   Segment part 622 (main)
    -------------------------------------------------------------------------
CODE
  Relative segment, address: CODE_AREA 000015EC - 00001717 (0x12c bytes), align: 2
  Segment part 17.            Intra module refs:   InitConfig2
           ENTRY                   ADDRESS         REF BY
           =====                   =======         ======
           LoadConfigData2         000015EC 
               stack 1 = 00000000 ( 00000030 )
    -------------------------------------------------------------------------
CODE
  Relative segment, address: CODE_AREA 00001718 - 0000173F (0x28 bytes), align: 2
  Segment part 19.
           ENTRY                   ADDRESS         REF BY
           =====                   =======         ======
           InitConfig2             00001718        UpdateConfig (configs)
               stack 1 = 00000000 ( 00000008 )
    -------------------------------------------------------------------------
DATA_ID
  Relative segment, address: CODE_AREA 00000010 - 00000013 (0x4 bytes), align: 2
  Segment part 7.             Intra module refs:   config_path
    -------------------------------------------------------------------------
DATA_ID
  Relative segment, address: CODE_AREA 00000014 - 00000017 (0x4 bytes), align: 2
  Segment part 9.             Intra module refs:   suc_config_name_mod
    -------------------------------------------------------------------------
DATA_C
  Relative segment, address: CODE_AREA 00016310 - 0001631B (0xc bytes), align: 2
  Segment part 2.             Intra module refs:   Segment part 7
    -------------------------------------------------------------------------
DATA_C
  Relative segment, address: CODE_AREA 0001E4C5 - 0001E4C5 (0x1 bytes), align: 0
  Segment part 3.             Intra module refs:   Segment part 9
    -------------------------------------------------------------------------
DATA_C
  Relative segment, address: CODE_AREA 0001631C - 0001632B (0x10 bytes), align: 2
  Segment part 4.             Intra module refs:   InitConfig
    -------------------------------------------------------------------------
DATA_C
  Relative segment, address: CODE_AREA 0001632C - 00016363 (0x38 bytes), align: 2
  Segment part 5.             Intra module refs:   InitConfig2

    *************************************************************************

  FILE NAME : D:\pasha\elf\_MY_PROJECT_\naticq_mod2\Release\Obj\config_data2.r79
  PROGRAM MODULE, NAME : config_data2

  SEGMENTS IN THE MODULE
  ======================
DATA_C
  Relative segment, address: CODE_AREA 00016364 - 0001638F (0x2c bytes), align: 2
  Segment part 2. ROOT.
           ENTRY                   ADDRESS         REF BY
           =====                   =======         ======
           cfghdr0                 00016364        LoadConfigData2 (conf_loader)
    -------------------------------------------------------------------------
DATA_C
  Relative segment, address: CODE_AREA 00016390 - 000163BB (0x2c bytes), align: 2
  Segment part 3. ROOT.
           ENTRY                   ADDRESS         REF BY
           =====                   =======         ======
           cfghdr31                00016390 
    -------------------------------------------------------------------------
DATA_C
  Relative segment, address: CODE_AREA 000163BC - 000163E7 (0x2c bytes), align: 2
  Segment part 4. ROOT.
           ENTRY                   ADDRESS         REF BY
           =====                   =======         ======
           cfghdr4_2               000163BC 
    -------------------------------------------------------------------------
DATA_C
  Relative segment, address: CODE_AREA 000163E8 - 000163EB (0x4 bytes), align: 2
  Segment part 5. ROOT.
           ENTRY                   ADDRESS         REF BY
           =====                   =======         ======
           DEVELOP_IF_MOD          000163E8        UpdateConfig (configs)
    -------------------------------------------------------------------------
DATA_C
  Relative segment, address: CODE_AREA 000163EC - 0001642B (0x40 bytes), align: 2
  Segment part 6. ROOT.
           ENTRY                   ADDRESS         REF BY
           =====                   =======         ======
           cfgcbox15_1             000163EC 
    -------------------------------------------------------------------------
DATA_C
  Relative segment, address: CODE_AREA 0001642C - 00016457 (0x2c bytes), align: 2
  Segment part 7. ROOT.
           ENTRY                   ADDRESS         REF BY
           =====                   =======         ======
           cfghdr6_10              0001642C 
    -------------------------------------------------------------------------
DATA_C
  Relative segment, address: CODE_AREA 00016458 - 0001645B (0x4 bytes), align: 2
  Segment part 8. ROOT.
           ENTRY                   ADDRESS         REF BY
           =====                   =======         ======
           HISTORY_SAVE_TYPE       00016458        OpenLogfile (main)
                                                   Segment part 40 (history)
    -------------------------------------------------------------------------
DATA_C
  Relative segment, address: CODE_AREA 0001645C - 0001649B (0x40 bytes), align: 2
  Segment part 9. ROOT.
           ENTRY                   ADDRESS         REF BY
           =====                   =======         ======
           cfgcbox6_9              0001645C 
    -------------------------------------------------------------------------
DATA_C
  Relative segment, address: CODE_AREA 0001649C - 000164C7 (0x2c bytes), align: 2
  Segment part 10. ROOT.
           ENTRY                   ADDRESS         REF BY
           =====                   =======         ======
           cfghdr6_7               0001649C 
    -------------------------------------------------------------------------
DATA_C
  Relative segment, address: CODE_AREA 000164C8 - 000164CB (0x4 bytes), align: 2
  Segment part 11. ROOT.
           ENTRY                   ADDRESS         REF BY
           =====                   =======         ======
           HISTORY_BUFFER_MOD      000164C8        UpdateConfig (configs)
    -------------------------------------------------------------------------
DATA_C
  Relative segment, address: CODE_AREA 000164CC - 0001652B (0x60 bytes), align: 2
  Segment part 12. ROOT.
           ENTRY                   ADDRESS         REF BY
           =====                   =======         ======
           cfgcbox6_7              000164CC 
    -------------------------------------------------------------------------
DATA_C
  Relative segment, address: CODE_AREA 0001652C - 00016557 (0x2c bytes), align: 2
  Segment part 13. ROOT.
           ENTRY                   ADDRESS         REF BY
           =====                   =======         ======
           cfghdr30                0001652C 
    -------------------------------------------------------------------------
DATA_C
  Relative segment, address: CODE_AREA 00016558 - 00016583 (0x2c bytes), align: 2
  Segment part 14. ROOT.
           ENTRY                   ADDRESS         REF BY
           =====                   =======         ======
           cfghdrI_1               00016558 
    -------------------------------------------------------------------------
DATA_C
  Relative segment, address: CODE_AREA 00016584 - 000165AF (0x2c bytes), align: 2
  Segment part 15. ROOT.
           ENTRY                   ADDRESS         REF BY
           =====                   =======         ======
           cfghdrI_4               00016584 
    -------------------------------------------------------------------------
DATA_C
  Relative segment, address: CODE_AREA 000165B0 - 000165B3 (0x4 bytes), align: 2
  Segment part 16. ROOT.
           ENTRY                   ADDRESS         REF BY
           =====                   =======         ======
           MAXLOGMSG               000165B0        AddStringToLog (main)
    -------------------------------------------------------------------------
DATA_C
  Relative segment, address: CODE_AREA 000165B4 - 000165DF (0x2c bytes), align: 2
  Segment part 17. ROOT.
           ENTRY                   ADDRESS         REF BY
           =====                   =======         ======
           cfghdrI_2               000165B4 
    -------------------------------------------------------------------------
DATA_C
  Relative segment, address: CODE_AREA 000165E0 - 000165E3 (0x4 bytes), align: 2
  Segment part 18. ROOT.
           ENTRY                   ADDRESS         REF BY
           =====                   =======         ======
           VIEW_MODE               000165E0        Segment part 541 (main)
                                                   Segment part 562 (main)
    -------------------------------------------------------------------------
DATA_C
  Relative segment, address: CODE_AREA 000165E4 - 0001660F (0x2c bytes), align: 2
  Segment part 19. ROOT.
           ENTRY                   ADDRESS         REF BY
           =====                   =======         ======
           cfghdrI_3               000165E4 
    -------------------------------------------------------------------------
DATA_C
  Relative segment, address: CODE_AREA 00016610 - 00016613 (0x4 bytes), align: 2
  Segment part 20. ROOT.
           ENTRY                   ADDRESS         REF BY
           =====                   =======         ======
           LINE_MODE               00016610        DrawList (main)
    -------------------------------------------------------------------------
DATA_C
  Relative segment, address: CODE_AREA 00016614 - 0001663F (0x2c bytes), align: 2
  Segment part 21. ROOT.
           ENTRY                   ADDRESS         REF BY
           =====                   =======         ======
           cfghdrI_7               00016614 
    -------------------------------------------------------------------------
DATA_C
  Relative segment, address: CODE_AREA 00016640 - 00016643 (0x4 bytes), align: 2
  Segment part 22. ROOT.
           ENTRY                   ADDRESS         REF BY
           =====                   =======         ======
           SOFT_MODE               00016640        Segment part 116 (mainmenu)
                                                   Segment part 559 (main)
    -------------------------------------------------------------------------
DATA_C
  Relative segment, address: CODE_AREA 00016644 - 000166A3 (0x60 bytes), align: 2
  Segment part 23. ROOT.
           ENTRY                   ADDRESS         REF BY
           =====                   =======         ======
           cfgcboxI_8              00016644 
    -------------------------------------------------------------------------
DATA_C
  Relative segment, address: CODE_AREA 000166A4 - 000166CF (0x2c bytes), align: 2
  Segment part 24. ROOT.
           ENTRY                   ADDRESS         REF BY
           =====                   =======         ======
           cfghdrI_5               000166A4 
    -------------------------------------------------------------------------
DATA_C
  Relative segment, address: CODE_AREA 000166D0 - 000166D3 (0x4 bytes), align: 2
  Segment part 25. ROOT.
           ENTRY                   ADDRESS         REF BY
           =====                   =======         ======
           ShowStatusToIconBar     000166D0        addIconBar (main)
    -------------------------------------------------------------------------
DATA_C
  Relative segment, address: CODE_AREA 000166D4 - 000166FF (0x2c bytes), align: 2
  Segment part 26. ROOT.
           ENTRY                   ADDRESS         REF BY
           =====                   =======         ======
           cfghdrI_6               000166D4 
    -------------------------------------------------------------------------
DATA_C
  Relative segment, address: CODE_AREA 00016700 - 00016703 (0x4 bytes), align: 2
  Segment part 27. ROOT.
           ENTRY                   ADDRESS         REF BY
           =====                   =======         ======
           PingToIconBar           00016700        addIconBar (main)
    -------------------------------------------------------------------------
DATA_C
  Relative segment, address: CODE_AREA 00016704 - 0001672F (0x2c bytes), align: 2
  Segment part 28. ROOT.
           ENTRY                   ADDRESS         REF BY
           =====                   =======         ======
           cfghdrI_8               00016704 
    -------------------------------------------------------------------------
DATA_C
  Relative segment, address: CODE_AREA 00016730 - 00016733 (0x4 bytes), align: 2
  Segment part 29. ROOT.
           ENTRY                   ADDRESS         REF BY
           =====                   =======         ======
           ShowProcessSend         00016730        Segment part 543 (main)
    -------------------------------------------------------------------------
DATA_C
  Relative segment, address: CODE_AREA 00016734 - 000167B3 (0x80 bytes), align: 2
  Segment part 30. ROOT.
           ENTRY                   ADDRESS         REF BY
           =====                   =======         ======
           cfgcboxI_9              00016734 
    -------------------------------------------------------------------------
DATA_C
  Relative segment, address: CODE_AREA 000167B4 - 000167DF (0x2c bytes), align: 2
  Segment part 31. ROOT.
           ENTRY                   ADDRESS         REF BY
           =====                   =======         ======
           cfghdr6_8               000167B4 
    -------------------------------------------------------------------------
DATA_C
  Relative segment, address: CODE_AREA 000167E0 - 000167E3 (0x4 bytes), align: 2
  Segment part 32. ROOT.
           ENTRY                   ADDRESS         REF BY
           =====                   =======         ======
           SHOW_ACTIVE             000167E0        Segment part 443 (main)
                                                   Segment part 691 (main)
    -------------------------------------------------------------------------
DATA_C
  Relative segment, address: CODE_AREA 000167E4 - 00016823 (0x40 bytes), align: 2
  Segment part 33. ROOT.
           ENTRY                   ADDRESS         REF BY
           =====                   =======         ======
           cfgcbox6_8              000167E4 
    -------------------------------------------------------------------------
DATA_C
  Relative segment, address: CODE_AREA 00016824 - 0001684F (0x2c bytes), align: 2
  Segment part 34. ROOT.
           ENTRY                   ADDRESS         REF BY
           =====                   =======         ======
           cfghdrI_10              00016824 
    -------------------------------------------------------------------------
DATA_C
  Relative segment, address: CODE_AREA 00016850 - 00016853 (0x4 bytes), align: 2
  Segment part 35. ROOT.
           ENTRY                   ADDRESS         REF BY
           =====                   =======         ======
           SelBoldActiveChat       00016850        DrawList (main)
    -------------------------------------------------------------------------
DATA_C
  Relative segment, address: CODE_AREA 00016854 - 00016893 (0x40 bytes), align: 2
  Segment part 36. ROOT.
           ENTRY                   ADDRESS         REF BY
           =====                   =======         ======
           cfgcboxI_11             00016854 
    -------------------------------------------------------------------------
DATA_C
  Relative segment, address: CODE_AREA 00016894 - 000168BF (0x2c bytes), align: 2
  Segment part 37. ROOT.
           ENTRY                   ADDRESS         REF BY
           =====                   =======         ======
           cfghdrI_9               00016894 
    -------------------------------------------------------------------------
DATA_C
  Relative segment, address: CODE_AREA 000168C0 - 000168C3 (0x4 bytes), align: 2
  Segment part 38. ROOT.
           ENTRY                   ADDRESS         REF BY
           =====                   =======         ======
           IllByONCantact          000168C0        ProcessPacket (main)
    -------------------------------------------------------------------------
DATA_C
  Relative segment, address: CODE_AREA 000168C4 - 000168EF (0x2c bytes), align: 2
  Segment part 39. ROOT.
           ENTRY                   ADDRESS         REF BY
           =====                   =======         ======
           cfghdr_s1               000168C4 
    -------------------------------------------------------------------------
DATA_C
  Relative segment, address: CODE_AREA 000168F0 - 0001691B (0x2c bytes), align: 2
  Segment part 40. ROOT.
           ENTRY                   ADDRESS         REF BY
           =====                   =======         ======
           cfghdrs1_s1             000168F0 
    -------------------------------------------------------------------------
DATA_C
  Relative segment, address: CODE_AREA 0001691C - 0001691F (0x4 bytes), align: 2
  Segment part 41. ROOT.
           ENTRY                   ADDRESS         REF BY
           =====                   =======         ======
           ON_OFF_TIME             0001691C        ProcessPacket (main)
    -------------------------------------------------------------------------
DATA_C
  Relative segment, address: CODE_AREA 00016920 - 0001694B (0x2c bytes), align: 2
  Segment part 42. ROOT.
           ENTRY                   ADDRESS         REF BY
           =====                   =======         ======
           cfghdrHead_1            00016920 
    -------------------------------------------------------------------------
DATA_C
  Relative segment, address: CODE_AREA 0001694C - 0001694F (0x4 bytes), align: 2
  Segment part 43. ROOT.
           ENTRY                   ADDRESS         REF BY
           =====                   =======         ======
           HEAD_STATUS             0001694C        DrawHeader (main)
    -------------------------------------------------------------------------
DATA_C
  Relative segment, address: CODE_AREA 00016950 - 0001697B (0x2c bytes), align: 2
  Segment part 44. ROOT.
           ENTRY                   ADDRESS         REF BY
           =====                   =======         ======
           cfghdrHead_2            00016950 
    -------------------------------------------------------------------------
DATA_C
  Relative segment, address: CODE_AREA 0001697C - 0001697F (0x4 bytes), align: 2
  Segment part 45. ROOT.
           ENTRY                   ADDRESS         REF BY
           =====                   =======         ======
           HEAD_XSTATUS            0001697C        DrawHeader (main)
    -------------------------------------------------------------------------
DATA_C
  Relative segment, address: CODE_AREA 00016980 - 000169AB (0x2c bytes), align: 2
  Segment part 46. ROOT.
           ENTRY                   ADDRESS         REF BY
           =====                   =======         ======
           cfghdrHead_3            00016980 
    -------------------------------------------------------------------------
DATA_C
  Relative segment, address: CODE_AREA 000169AC - 000169AF (0x4 bytes), align: 2
  Segment part 47. ROOT.
           ENTRY                   ADDRESS         REF BY
           =====                   =======         ======
           HEAD_PRIVATE            000169AC        DrawHeader (main)
    -------------------------------------------------------------------------
DATA_C
  Relative segment, address: CODE_AREA 000169B0 - 000169DB (0x2c bytes), align: 2
  Segment part 48. ROOT.
           ENTRY                   ADDRESS         REF BY
           =====                   =======         ======
           cfghdrHead_4            000169B0 
    -------------------------------------------------------------------------
DATA_C
  Relative segment, address: CODE_AREA 000169DC - 000169DF (0x4 bytes), align: 2
  Segment part 49. ROOT.
           ENTRY                   ADDRESS         REF BY
           =====                   =======         ======
           HEAD_PING               000169DC        DrawHeader (main)
    -------------------------------------------------------------------------
DATA_C
  Relative segment, address: CODE_AREA 000169E0 - 00016A3F (0x60 bytes), align: 2
  Segment part 50. ROOT.
           ENTRY                   ADDRESS         REF BY
           =====                   =======         ======
           cfgcboxs15              000169E0 
    -------------------------------------------------------------------------
DATA_C
  Relative segment, address: CODE_AREA 00016A40 - 00016A6B (0x2c bytes), align: 2
  Segment part 51. ROOT.
           ENTRY                   ADDRESS         REF BY
           =====                   =======         ======
           cfghdrs1_15             00016A40 
    -------------------------------------------------------------------------
DATA_C
  Relative segment, address: CODE_AREA 00016A6C - 00016A6F (0x4 bytes), align: 2
  Segment part 52. ROOT.
           ENTRY                   ADDRESS         REF BY
           =====                   =======         ======
           ShowTraff               00016A6C 
    -------------------------------------------------------------------------
DATA_C
  Relative segment, address: CODE_AREA 00016A70 - 00016A9B (0x2c bytes), align: 2
  Segment part 53. ROOT.
           ENTRY                   ADDRESS         REF BY
           =====                   =======         ======
           cfghdrs1_11             00016A70 
    -------------------------------------------------------------------------
DATA_C
  Relative segment, address: CODE_AREA 00016A9C - 00016A9F (0x4 bytes), align: 2
  Segment part 54. ROOT.
           ENTRY                   ADDRESS         REF BY
           =====                   =======         ======
           isShowCont              00016A9C        DrawHeader (main)
    -------------------------------------------------------------------------
DATA_C
  Relative segment, address: CODE_AREA 00016AA0 - 00016ACB (0x2c bytes), align: 2
  Segment part 55. ROOT.
           ENTRY                   ADDRESS         REF BY
           =====                   =======         ======
           cfghdrs1_12             00016AA0 
    -------------------------------------------------------------------------
DATA_C
  Relative segment, address: CODE_AREA 00016ACC - 00016ACF (0x4 bytes), align: 2
  Segment part 56. ROOT.
           ENTRY                   ADDRESS         REF BY
           =====                   =======         ======
           isShowUnread            00016ACC        DrawHeader (main)
    -------------------------------------------------------------------------
DATA_C
  Relative segment, address: CODE_AREA 00016AD0 - 00016AFB (0x2c bytes), align: 2
  Segment part 57. ROOT.
           ENTRY                   ADDRESS         REF BY
           =====                   =======         ======
           cfghdrs1_4              00016AD0 
    -------------------------------------------------------------------------
DATA_C
  Relative segment, address: CODE_AREA 00016AFC - 00016AFF (0x4 bytes), align: 2
  Segment part 58. ROOT.
           ENTRY                   ADDRESS         REF BY
           =====                   =======         ======
           isShowV                 00016AFC        DrawHeader (main)
    -------------------------------------------------------------------------
DATA_C
  Relative segment, address: CODE_AREA 00016B00 - 00016B2B (0x2c bytes), align: 2
  Segment part 59. ROOT.
           ENTRY                   ADDRESS         REF BY
           =====                   =======         ======
           cfghdrs1_5              00016B00 
    -------------------------------------------------------------------------
DATA_C
  Relative segment, address: CODE_AREA 00016B2C - 00016B2F (0x4 bytes), align: 2
  Segment part 60. ROOT.
           ENTRY                   ADDRESS         REF BY
           =====                   =======         ======
           isShowS                 00016B2C        DrawHeader (main)
    -------------------------------------------------------------------------
DATA_C
  Relative segment, address: CODE_AREA 00016B30 - 00016B5B (0x2c bytes), align: 2
  Segment part 61. ROOT.
           ENTRY                   ADDRESS         REF BY
           =====                   =======         ======
           cfghdrs1_6              00016B30 
    -------------------------------------------------------------------------
DATA_C
  Relative segment, address: CODE_AREA 00016B5C - 00016B5F (0x4 bytes), align: 2
  Segment part 62. ROOT.
           ENTRY                   ADDRESS         REF BY
           =====                   =======         ======
           isShowA                 00016B5C        DrawHeader (main)
    -------------------------------------------------------------------------
DATA_C
  Relative segment, address: CODE_AREA 00016B60 - 00016B8B (0x2c bytes), align: 2
  Segment part 63. ROOT.
           ENTRY                   ADDRESS         REF BY
           =====                   =======         ======
           cfghdrs1_7              00016B60 
    -------------------------------------------------------------------------
DATA_C
  Relative segment, address: CODE_AREA 00016B8C - 00016B8F (0x4 bytes), align: 2
  Segment part 64. ROOT.
           ENTRY                   ADDRESS         REF BY
           =====                   =======         ======
           isShowR                 00016B8C        DrawHeader (main)
    -------------------------------------------------------------------------
DATA_C
  Relative segment, address: CODE_AREA 00016B90 - 00016BBB (0x2c bytes), align: 2
  Segment part 65. ROOT.
           ENTRY                   ADDRESS         REF BY
           =====                   =======         ======
           cfghdrs1_9              00016B90 
    -------------------------------------------------------------------------
DATA_C
  Relative segment, address: CODE_AREA 00016BBC - 00016BBF (0x4 bytes), align: 2
  Segment part 66. ROOT.
           ENTRY                   ADDRESS         REF BY
           =====                   =======         ======
           isShowBat               00016BBC 
    -------------------------------------------------------------------------
DATA_C
  Relative segment, address: CODE_AREA 00016BC0 - 00016BEB (0x2c bytes), align: 2
  Segment part 67. ROOT.
           ENTRY                   ADDRESS         REF BY
           =====                   =======         ======
           cfghdr_s0               00016BC0 
    -------------------------------------------------------------------------
DATA_C
  Relative segment, address: CODE_AREA 00016BEC - 00016C17 (0x2c bytes), align: 2
  Segment part 68. ROOT.
           ENTRY                   ADDRESS         REF BY
           =====                   =======         ======
           cfghdrCl_1              00016BEC 
    -------------------------------------------------------------------------
DATA_C
  Relative segment, address: CODE_AREA 00016C18 - 00016C43 (0x2c bytes), align: 2
  Segment part 69. ROOT.
           ENTRY                   ADDRESS         REF BY
           =====                   =======         ======
           cfghdrrCl_2             00016C18 
    -------------------------------------------------------------------------
DATA_C
  Relative segment, address: CODE_AREA 00016C44 - 00016C47 (0x4 bytes), align: 2
  Segment part 70. ROOT.
           ENTRY                   ADDRESS         REF BY
           =====                   =======         ======
           CLBackgrClr             00016C44        DrawContactList (main)
    -------------------------------------------------------------------------
DATA_C
  Relative segment, address: CODE_AREA 00016C48 - 00016C73 (0x2c bytes), align: 2
  Segment part 71. ROOT.
           ENTRY                   ADDRESS         REF BY
           =====                   =======         ======
           cfghdrrCl_3             00016C48 
    -------------------------------------------------------------------------
DATA_C
  Relative segment, address: CODE_AREA 00016C74 - 00016C77 (0x4 bytes), align: 2
  Segment part 72. ROOT.
           ENTRY                   ADDRESS         REF BY
           =====                   =======         ======
           SoftBackgrClr           00016C74        Segment part 515 (main)
    -------------------------------------------------------------------------
DATA_C
  Relative segment, address: CODE_AREA 00016C78 - 00016CA3 (0x2c bytes), align: 2
  Segment part 73. ROOT.
           ENTRY                   ADDRESS         REF BY
           =====                   =======         ======
           cfghdrrCl_4             00016C78 
    -------------------------------------------------------------------------
DATA_C
  Relative segment, address: CODE_AREA 00016CA4 - 00016CA7 (0x4 bytes), align: 2
  Segment part 74. ROOT.
           ENTRY                   ADDRESS         REF BY
           =====                   =======         ======
           SoftFontClr             00016CA4        Segment part 516 (main)
    -------------------------------------------------------------------------
DATA_C
  Relative segment, address: CODE_AREA 00016CA8 - 00016CD3 (0x2c bytes), align: 2
  Segment part 75. ROOT.
           ENTRY                   ADDRESS         REF BY
           =====                   =======         ======
           cfghdrrCl_5             00016CA8 
    -------------------------------------------------------------------------
DATA_C
  Relative segment, address: CODE_AREA 00016CD4 - 00016CD7 (0x4 bytes), align: 2
  Segment part 76. ROOT.
           ENTRY                   ADDRESS         REF BY
           =====                   =======         ======
           HeadBackgrClr           00016CD4        DrawHeader (main)
    -------------------------------------------------------------------------
DATA_C
  Relative segment, address: CODE_AREA 00016CD8 - 00016D03 (0x2c bytes), align: 2
  Segment part 77. ROOT.
           ENTRY                   ADDRESS         REF BY
           =====                   =======         ======
           cfghdrrCl_6             00016CD8 
    -------------------------------------------------------------------------
DATA_C
  Relative segment, address: CODE_AREA 00016D04 - 00016D07 (0x4 bytes), align: 2
  Segment part 78. ROOT.
           ENTRY                   ADDRESS         REF BY
           =====                   =======         ======
           HeadFontClr             00016D04        DrawHeader (main)
    -------------------------------------------------------------------------
DATA_C
  Relative segment, address: CODE_AREA 00016D08 - 00016D33 (0x2c bytes), align: 2
  Segment part 79. ROOT.
           ENTRY                   ADDRESS         REF BY
           =====                   =======         ======
           cfghdrrCl_7             00016D08 
    -------------------------------------------------------------------------
DATA_C
  Relative segment, address: CODE_AREA 00016D34 - 00016D37 (0x4 bytes), align: 2
  Segment part 80. ROOT.
           ENTRY                   ADDRESS         REF BY
           =====                   =======         ======
           ScrollBarClr            00016D34        DrawScrollBar (main)
    -------------------------------------------------------------------------
DATA_C
  Relative segment, address: CODE_AREA 00016D38 - 00016D63 (0x2c bytes), align: 2
  Segment part 81. ROOT.
           ENTRY                   ADDRESS         REF BY
           =====                   =======         ======
           cfghdrrCl_8             00016D38 
    -------------------------------------------------------------------------
DATA_C
  Relative segment, address: CODE_AREA 00016D64 - 00016D67 (0x4 bytes), align: 2
  Segment part 82. ROOT.
           ENTRY                   ADDRESS         REF BY
           =====                   =======         ======
           ClCursorClr             00016D64        DrawList (main)
    -------------------------------------------------------------------------
DATA_C
  Relative segment, address: CODE_AREA 00016D68 - 00016D93 (0x2c bytes), align: 2
  Segment part 83. ROOT.
           ENTRY                   ADDRESS         REF BY
           =====                   =======         ======
           cfghdrrCl_9             00016D68 
    -------------------------------------------------------------------------
DATA_C
  Relative segment, address: CODE_AREA 00016D94 - 00016D97 (0x4 bytes), align: 2
  Segment part 84. ROOT.
           ENTRY                   ADDRESS         REF BY
           =====                   =======         ======
           ClCursorBordClr         00016D94        DrawList (main)
    -------------------------------------------------------------------------
DATA_C
  Relative segment, address: CODE_AREA 00016D98 - 00016DC3 (0x2c bytes), align: 2
  Segment part 85. ROOT.
           ENTRY                   ADDRESS         REF BY
           =====                   =======         ======
           cfghdrrCl_10            00016D98 
    -------------------------------------------------------------------------
DATA_C
  Relative segment, address: CODE_AREA 00016DC4 - 00016DC7 (0x4 bytes), align: 2
  Segment part 86. ROOT.
           ENTRY                   ADDRESS         REF BY
           =====                   =======         ======
           ActiveClr               00016DC4        DrawList (main)
    -------------------------------------------------------------------------
DATA_C
  Relative segment, address: CODE_AREA 00016DC8 - 00016DF3 (0x2c bytes), align: 2
  Segment part 87. ROOT.
           ENTRY                   ADDRESS         REF BY
           =====                   =======         ======
           cfghdrrCl_11            00016DC8 
    -------------------------------------------------------------------------
DATA_C
  Relative segment, address: CODE_AREA 00016DF4 - 00016DF7 (0x4 bytes), align: 2
  Segment part 88. ROOT.
           ENTRY                   ADDRESS         REF BY
           =====                   =======         ======
           NotActiveClr            00016DF4        DrawList (main)
    -------------------------------------------------------------------------
DATA_C
  Relative segment, address: CODE_AREA 00016DF8 - 00016E23 (0x2c bytes), align: 2
  Segment part 89. ROOT.
           ENTRY                   ADDRESS         REF BY
           =====                   =======         ======
           cfghdrrCl_16            00016DF8 
    -------------------------------------------------------------------------
DATA_C
  Relative segment, address: CODE_AREA 00016E24 - 00016E27 (0x4 bytes), align: 2
  Segment part 90. ROOT.
           ENTRY                   ADDRESS         REF BY
           =====                   =======         ======
           GroupClr                00016E24        DrawList (main)
    -------------------------------------------------------------------------
DATA_C
  Relative segment, address: CODE_AREA 00016E28 - 00016E53 (0x2c bytes), align: 2
  Segment part 91. ROOT.
           ENTRY                   ADDRESS         REF BY
           =====                   =======         ======
           cfghdrrCl_17            00016E28 
    -------------------------------------------------------------------------
DATA_C
  Relative segment, address: CODE_AREA 00016E54 - 00016E57 (0x4 bytes), align: 2
  Segment part 92. ROOT.
           ENTRY                   ADDRESS         REF BY
           =====                   =======         ======
           CLDescricpClr           00016E54        DrawList (main)
    -------------------------------------------------------------------------
DATA_C
  Relative segment, address: CODE_AREA 00016E58 - 00016E83 (0x2c bytes), align: 2
  Segment part 93. ROOT.
           ENTRY                   ADDRESS         REF BY
           =====                   =======         ======
           cfghdrrCl_12            00016E58 
    -------------------------------------------------------------------------
DATA_C
  Relative segment, address: CODE_AREA 00016E84 - 00016E87 (0x4 bytes), align: 2
  Segment part 94. ROOT.
           ENTRY                   ADDRESS         REF BY
           =====                   =======         ======
           AddInfoClr              00016E84 
    -------------------------------------------------------------------------
DATA_C
  Relative segment, address: CODE_AREA 00016E88 - 00016EB3 (0x2c bytes), align: 2
  Segment part 95. ROOT.
           ENTRY                   ADDRESS         REF BY
           =====                   =======         ======
           cfghdrrCl_13            00016E88 
    -------------------------------------------------------------------------
DATA_C
  Relative segment, address: CODE_AREA 00016EB4 - 00016EB7 (0x4 bytes), align: 2
  Segment part 96. ROOT.
           ENTRY                   ADDRESS         REF BY
           =====                   =======         ======
           FontInfoClr             00016EB4        DrawSoftInfo (main)
    -------------------------------------------------------------------------
DATA_C
  Relative segment, address: CODE_AREA 00016EB8 - 00016EE3 (0x2c bytes), align: 2
  Segment part 97. ROOT.
           ENTRY                   ADDRESS         REF BY
           =====                   =======         ======
           cfghdrrCl_14            00016EB8 
    -------------------------------------------------------------------------
DATA_C
  Relative segment, address: CODE_AREA 00016EE4 - 00016EE7 (0x4 bytes), align: 2
  Segment part 98. ROOT.
           ENTRY                   ADDRESS         REF BY
           =====                   =======         ======
           UnAckedClr              00016EE4        DrawList (main)
    -------------------------------------------------------------------------
DATA_C
  Relative segment, address: CODE_AREA 00016EE8 - 00016F13 (0x2c bytes), align: 2
  Segment part 99. ROOT.
           ENTRY                   ADDRESS         REF BY
           =====                   =======         ======
           cfghdrrCl_15            00016EE8 
    -------------------------------------------------------------------------
DATA_C
  Relative segment, address: CODE_AREA 00016F14 - 00016F17 (0x4 bytes), align: 2
  Segment part 100. ROOT.
           ENTRY                   ADDRESS         REF BY
           =====                   =======         ======
           SendClr                 00016F14        DrawList (main)
    -------------------------------------------------------------------------
DATA_C
  Relative segment, address: CODE_AREA 00016F18 - 00016F43 (0x2c bytes), align: 2
  Segment part 101. ROOT.
           ENTRY                   ADDRESS         REF BY
           =====                   =======         ======
           cfghdrCl_0              00016F18 
    -------------------------------------------------------------------------
DATA_C
  Relative segment, address: CODE_AREA 00016F44 - 00016F6F (0x2c bytes), align: 2
  Segment part 102. ROOT.
           ENTRY                   ADDRESS         REF BY
           =====                   =======         ======
           cfghdrM_1               00016F44 
    -------------------------------------------------------------------------
DATA_C
  Relative segment, address: CODE_AREA 00016F70 - 00016F9B (0x2c bytes), align: 2
  Segment part 103. ROOT.
           ENTRY                   ADDRESS         REF BY
           =====                   =======         ======
           cfghdrrM_4              00016F70 
    -------------------------------------------------------------------------
DATA_C
  Relative segment, address: CODE_AREA 00016F9C - 00016F9F (0x4 bytes), align: 2
  Segment part 104. ROOT.
           ENTRY                   ADDRESS         REF BY
           =====                   =======         ======
           MMBackgrClr             00016F9C        I_OnRedraw (main)
                                                   MM_OnRedraw (mainmenu)
                                                   Segment part 133 (status_change)
                                                   Segment part 59 (status_change)
    -------------------------------------------------------------------------
DATA_C
  Relative segment, address: CODE_AREA 00016FA0 - 00016FCB (0x2c bytes), align: 2
  Segment part 105. ROOT.
           ENTRY                   ADDRESS         REF BY
           =====                   =======         ======
           cfghdrrM_5              00016FA0 
    -------------------------------------------------------------------------
DATA_C
  Relative segment, address: CODE_AREA 00016FCC - 00016FCF (0x4 bytes), align: 2
  Segment part 106. ROOT.
           ENTRY                   ADDRESS         REF BY
           =====                   =======         ======
           MMBackgrBordClr         00016FCC        I_OnRedraw (main)
                                                   MM_OnRedraw (mainmenu)
                                                   Segment part 134 (status_change)
                                                   Segment part 60 (status_change)
    -------------------------------------------------------------------------
DATA_C
  Relative segment, address: CODE_AREA 00016FD0 - 00016FFB (0x2c bytes), align: 2
  Segment part 107. ROOT.
           ENTRY                   ADDRESS         REF BY
           =====                   =======         ======
           cfghdrrM_2              00016FD0 
    -------------------------------------------------------------------------
DATA_C
  Relative segment, address: CODE_AREA 00016FFC - 00016FFF (0x4 bytes), align: 2
  Segment part 108. ROOT.
           ENTRY                   ADDRESS         REF BY
           =====                   =======         ======
           MMCursorBGClr           00016FFC        I_DrawList (main)
                                                   MM_DrawList (mainmenu)
                                                   Segment part 122 (status_change)
                                                   Segment part 49 (status_change)
    -------------------------------------------------------------------------
DATA_C
  Relative segment, address: CODE_AREA 00017000 - 0001702B (0x2c bytes), align: 2
  Segment part 109. ROOT.
           ENTRY                   ADDRESS         REF BY
           =====                   =======         ======
           cfghdrrM_3              00017000 
    -------------------------------------------------------------------------
DATA_C
  Relative segment, address: CODE_AREA 0001702C - 0001702F (0x4 bytes), align: 2
  Segment part 110. ROOT.
           ENTRY                   ADDRESS         REF BY
           =====                   =======         ======
           MMCursorClr             0001702C        I_DrawList (main)
                                                   MM_DrawList (mainmenu)
                                                   Segment part 123 (status_change)
                                                   Segment part 50 (status_change)
    -------------------------------------------------------------------------
DATA_C
  Relative segment, address: CODE_AREA 00017030 - 0001705B (0x2c bytes), align: 2
  Segment part 111. ROOT.
           ENTRY                   ADDRESS         REF BY
           =====                   =======         ======
           cfghdrM_6               00017030 
    -------------------------------------------------------------------------
DATA_C
  Relative segment, address: CODE_AREA 0001705C - 00017063 (0x8 bytes), align: 2
  Segment part 112. ROOT.
           ENTRY                   ADDRESS         REF BY
           =====                   =======         ======
           MMRect                  0001705C        MM_onCreate (mainmenu)
    -------------------------------------------------------------------------
DATA_C
  Relative segment, address: CODE_AREA 00017064 - 0001708F (0x2c bytes), align: 2
  Segment part 113. ROOT.
           ENTRY                   ADDRESS         REF BY
           =====                   =======         ======
           cfghdrM_7               00017064 
    -------------------------------------------------------------------------
DATA_C
  Relative segment, address: CODE_AREA 00017090 - 00017097 (0x8 bytes), align: 2
  Segment part 114. ROOT.
           ENTRY                   ADDRESS         REF BY
           =====                   =======         ======
           SRect                   00017090        SC_onCreate (status_change)
    -------------------------------------------------------------------------
DATA_C
  Relative segment, address: CODE_AREA 00017098 - 000170C3 (0x2c bytes), align: 2
  Segment part 115. ROOT.
           ENTRY                   ADDRESS         REF BY
           =====                   =======         ======
           cfghdrM_8               00017098 
    -------------------------------------------------------------------------
DATA_C
  Relative segment, address: CODE_AREA 000170C4 - 000170CB (0x8 bytes), align: 2
  Segment part 116. ROOT.
           ENTRY                   ADDRESS         REF BY
           =====                   =======         ======
           XSRect                  000170C4        XS_onCreate (status_change)
    -------------------------------------------------------------------------
DATA_C
  Relative segment, address: CODE_AREA 000170CC - 000170F7 (0x2c bytes), align: 2
  Segment part 117. ROOT.
           ENTRY                   ADDRESS         REF BY
           =====                   =======         ======
           cfghdrM_9               000170CC 
    -------------------------------------------------------------------------
DATA_C
  Relative segment, address: CODE_AREA 000170F8 - 000170FB (0x4 bytes), align: 2
  Segment part 118. ROOT.
           ENTRY                   ADDRESS         REF BY
           =====                   =======         ======
           ShowNumbMenu            000170F8        MM_DrawList (mainmenu)
                                                   SC_DrawList (status_change)
    -------------------------------------------------------------------------
DATA_C
  Relative segment, address: CODE_AREA 000170FC - 00017127 (0x2c bytes), align: 2
  Segment part 119. ROOT.
           ENTRY                   ADDRESS         REF BY
           =====                   =======         ======
           cfghdrM_0               000170FC 
    -------------------------------------------------------------------------
DATA_C
  Relative segment, address: CODE_AREA 00017128 - 00017153 (0x2c bytes), align: 2
  Segment part 120. ROOT.
           ENTRY                   ADDRESS         REF BY
           =====                   =======         ======
           cfghdr_e1               00017128 
    -------------------------------------------------------------------------
DATA_C
  Relative segment, address: CODE_AREA 00017154 - 0001717F (0x2c bytes), align: 2
  Segment part 121. ROOT.
           ENTRY                   ADDRESS         REF BY
           =====                   =======         ======
           cfghdr23                00017154 
    -------------------------------------------------------------------------
DATA_C
  Relative segment, address: CODE_AREA 00017180 - 000171FF (0x80 bytes), align: 2
  Segment part 122. ROOT.
           ENTRY                   ADDRESS         REF BY
           =====                   =======         ======
           fontpath2               00017180        Segment part 648 (main)
    -------------------------------------------------------------------------
DATA_C
  Relative segment, address: CODE_AREA 00017200 - 0001722B (0x2c bytes), align: 2
  Segment part 123. ROOT.
           ENTRY                   ADDRESS         REF BY
           =====                   =======         ======
           cfghdr24                00017200 
    -------------------------------------------------------------------------
DATA_C
  Relative segment, address: CODE_AREA 0001722C - 000172AB (0x80 bytes), align: 2
  Segment part 124. ROOT.
           ENTRY                   ADDRESS         REF BY
           =====                   =======         ======
           fontpath3               0001722C        Segment part 649 (main)
    -------------------------------------------------------------------------
DATA_C
  Relative segment, address: CODE_AREA 000172AC - 000172D7 (0x2c bytes), align: 2
  Segment part 125. ROOT.
           ENTRY                   ADDRESS         REF BY
           =====                   =======         ======
           cfghdre1_2              000172AC 
    -------------------------------------------------------------------------
DATA_C
  Relative segment, address: CODE_AREA 000172D8 - 00017357 (0x80 bytes), align: 2
  Segment part 126. ROOT.
           ENTRY                   ADDRESS         REF BY
           =====                   =======         ======
           fontpath4               000172D8        Segment part 650 (main)
    -------------------------------------------------------------------------
DATA_C
  Relative segment, address: CODE_AREA 00017358 - 00017383 (0x2c bytes), align: 2
  Segment part 127. ROOT.
           ENTRY                   ADDRESS         REF BY
           =====                   =======         ======
           cfghdr_e1_3             00017358 
    -------------------------------------------------------------------------
DATA_C
  Relative segment, address: CODE_AREA 00017384 - 00017387 (0x4 bytes), align: 2
  Segment part 128. ROOT.
           ENTRY                   ADDRESS         REF BY
           =====                   =======         ======
           PNG_HEADER              00017384        Segment part 521 (main)
                                                   Segment part 654 (main)
    -------------------------------------------------------------------------
DATA_C
  Relative segment, address: CODE_AREA 00017388 - 000173B3 (0x2c bytes), align: 2
  Segment part 129. ROOT.
           ENTRY                   ADDRESS         REF BY
           =====                   =======         ======
           cfghdr_e1_4             00017388 
    -------------------------------------------------------------------------
DATA_C
  Relative segment, address: CODE_AREA 000173B4 - 000173B7 (0x4 bytes), align: 2
  Segment part 130. ROOT.
           ENTRY                   ADDRESS         REF BY
           =====                   =======         ======
           PNG_SOFTKEY             000173B4        Segment part 513 (main)
                                                   Segment part 653 (main)
    -------------------------------------------------------------------------
DATA_C
  Relative segment, address: CODE_AREA 000173B8 - 000173E3 (0x2c bytes), align: 2
  Segment part 131. ROOT.
           ENTRY                   ADDRESS         REF BY
           =====                   =======         ======
           cfghdr_e0               000173B8 
    -------------------------------------------------------------------------
DATA_C
  Relative segment, address: CODE_AREA 000173E4 - 0001740F (0x2c bytes), align: 2
  Segment part 132. ROOT.
           ENTRY                   ADDRESS         REF BY
           =====                   =======         ======
           cfghdr_y1               000173E4 
    -------------------------------------------------------------------------
DATA_C
  Relative segment, address: CODE_AREA 00017410 - 0001743B (0x2c bytes), align: 2
  Segment part 133. ROOT.
           ENTRY                   ADDRESS         REF BY
           =====                   =======         ======
           cfghdr_2_2              00017410 
    -------------------------------------------------------------------------
DATA_C
  Relative segment, address: CODE_AREA 0001743C - 0001743F (0x4 bytes), align: 2
  Segment part 134. ROOT.
           ENTRY                   ADDRESS         REF BY
           =====                   =======         ======
           isSystemFont            0001743C        Segment part 478 (main)
                                                   Segment part 539 (main)
                                                   Segment part 571 (main)
                                                   Segment part 651 (main)
                                                   XS_onCreate (status_change)
    -------------------------------------------------------------------------
DATA_C
  Relative segment, address: CODE_AREA 00017440 - 0001746B (0x2c bytes), align: 2
  Segment part 135. ROOT.
           ENTRY                   ADDRESS         REF BY
           =====                   =======         ======
           cfghdr2_8               00017440 
    -------------------------------------------------------------------------
DATA_C
  Relative segment, address: CODE_AREA 0001746C - 0001746F (0x4 bytes), align: 2
  Segment part 136. ROOT.
           ENTRY                   ADDRESS         REF BY
           =====                   =======         ======
           pngFont                 0001746C        Segment part 479 (main)
                                                   Segment part 540 (main)
                                                   Segment part 572 (main)
                                                   Segment part 652 (main)
                                                   XS_onCreate (status_change)
    -------------------------------------------------------------------------
DATA_C
  Relative segment, address: CODE_AREA 00017470 - 0001749B (0x2c bytes), align: 2
  Segment part 137. ROOT.
           ENTRY                   ADDRESS         REF BY
           =====                   =======         ======
           cfghdr2_9               00017470 
    -------------------------------------------------------------------------
DATA_C
  Relative segment, address: CODE_AREA 0001749C - 0001749F (0x4 bytes), align: 2
  Segment part 138. ROOT.
           ENTRY                   ADDRESS         REF BY
           =====                   =======         ======
           HeadFont                0001749C        Segment part 522 (main)
    -------------------------------------------------------------------------
DATA_C
  Relative segment, address: CODE_AREA 000174A0 - 000174CB (0x2c bytes), align: 2
  Segment part 139. ROOT.
           ENTRY                   ADDRESS         REF BY
           =====                   =======         ======
           cfghdr_y0               000174A0 
    -------------------------------------------------------------------------
DATA_C
  Relative segment, address: CODE_AREA 000174CC - 000174F7 (0x2c bytes), align: 2
  Segment part 140. ROOT.
           ENTRY                   ADDRESS         REF BY
           =====                   =======         ======
           cfghdr23_4              000174CC 
    -------------------------------------------------------------------------
DATA_C
  Relative segment, address: CODE_AREA 000174F8 - 00017523 (0x2c bytes), align: 2
  Segment part 141. ROOT.
           ENTRY                   ADDRESS         REF BY
           =====                   =======         ======
           cfghdr78_4520           000174F8 
    -------------------------------------------------------------------------
DATA_C
  Relative segment, address: CODE_AREA 00017524 - 00017527 (0x4 bytes), align: 2
  Segment part 142. ROOT.
           ENTRY                   ADDRESS         REF BY
           =====                   =======         ======
           ActionResh              00017524        ClOnKey (main)
    -------------------------------------------------------------------------
DATA_C
  Relative segment, address: CODE_AREA 00017528 - 00017567 (0x40 bytes), align: 2
  Segment part 143. ROOT.
           ENTRY                   ADDRESS         REF BY
           =====                   =======         ======
           cfgcbox_668_z           00017528 
    -------------------------------------------------------------------------
DATA_C
  Relative segment, address: CODE_AREA 00017568 - 00017593 (0x2c bytes), align: 2
  Segment part 144. ROOT.
           ENTRY                   ADDRESS         REF BY
           =====                   =======         ======
           cfghdr34_642            00017568 
    -------------------------------------------------------------------------
DATA_C
  Relative segment, address: CODE_AREA 00017594 - 00017597 (0x4 bytes), align: 2
  Segment part 145. ROOT.
           ENTRY                   ADDRESS         REF BY
           =====                   =======         ======
           isVolDownButton         00017594        ClOnKey (main)
    -------------------------------------------------------------------------
DATA_C
  Relative segment, address: CODE_AREA 00017598 - 000175D7 (0x40 bytes), align: 2
  Segment part 146. ROOT.
           ENTRY                   ADDRESS         REF BY
           =====                   =======         ======
           cfgcbox434_56           00017598 
    -------------------------------------------------------------------------
DATA_C
  Relative segment, address: CODE_AREA 000175D8 - 00017603 (0x2c bytes), align: 2
  Segment part 147. ROOT.
           ENTRY                   ADDRESS         REF BY
           =====                   =======         ======
           cfghdr34_6342           000175D8 
    -------------------------------------------------------------------------
DATA_C
  Relative segment, address: CODE_AREA 00017604 - 00017607 (0x4 bytes), align: 2
  Segment part 148. ROOT.
           ENTRY                   ADDRESS         REF BY
           =====                   =======         ======
           isVolUpButton           00017604        ClOnKey (main)
    -------------------------------------------------------------------------
DATA_C
  Relative segment, address: CODE_AREA 00017608 - 00017647 (0x40 bytes), align: 2
  Segment part 149. ROOT.
           ENTRY                   ADDRESS         REF BY
           =====                   =======         ======
           cfgcbox4134_56          00017608 
    -------------------------------------------------------------------------
DATA_C
  Relative segment, address: CODE_AREA 00017648 - 00017673 (0x2c bytes), align: 2
  Segment part 150. ROOT.
           ENTRY                   ADDRESS         REF BY
           =====                   =======         ======
           cfghdr99_1              00017648 
    -------------------------------------------------------------------------
DATA_C
  Relative segment, address: CODE_AREA 00017674 - 0001769F (0x2c bytes), align: 2
  Segment part 151. ROOT.
           ENTRY                   ADDRESS         REF BY
           =====                   =======         ======
           cfghdr4_67              00017674 
    -------------------------------------------------------------------------
DATA_C
  Relative segment, address: CODE_AREA 000176A0 - 000176A3 (0x4 bytes), align: 2
  Segment part 152. ROOT.
           ENTRY                   ADDRESS         REF BY
           =====                   =======         ======
           LongRightAction         000176A0        edchat_onkey (main)
    -------------------------------------------------------------------------
DATA_C
  Relative segment, address: CODE_AREA 000176A4 - 00017703 (0x60 bytes), align: 2
  Segment part 153. ROOT.
           ENTRY                   ADDRESS         REF BY
           =====                   =======         ======
           cfgcbox4_56             000176A4 
    -------------------------------------------------------------------------
DATA_C
  Relative segment, address: CODE_AREA 00017704 - 0001772F (0x2c bytes), align: 2
  Segment part 154. ROOT.
           ENTRY                   ADDRESS         REF BY
           =====                   =======         ======
           cfghdr34_64             00017704 
    -------------------------------------------------------------------------
DATA_C
  Relative segment, address: CODE_AREA 00017730 - 00017733 (0x4 bytes), align: 2
  Segment part 155. ROOT.
           ENTRY                   ADDRESS         REF BY
           =====                   =======         ======
           LongLeftAction          00017730        edchat_onkey (main)
    -------------------------------------------------------------------------
DATA_C
  Relative segment, address: CODE_AREA 00017734 - 00017773 (0x40 bytes), align: 2
  Segment part 156. ROOT.
           ENTRY                   ADDRESS         REF BY
           =====                   =======         ======
           cfgcbox444_56           00017734 
    -------------------------------------------------------------------------
DATA_C
  Relative segment, address: CODE_AREA 00017774 - 0001779F (0x2c bytes), align: 2
  Segment part 157. ROOT.
           ENTRY                   ADDRESS         REF BY
           =====                   =======         ======
           cfghdr23_1              00017774 
    -------------------------------------------------------------------------
DATA_C
  Relative segment, address: CODE_AREA 000177A0 - 000177A3 (0x4 bytes), align: 2
  Segment part 158. ROOT.
           ENTRY                   ADDRESS         REF BY
           =====                   =======         ======
           LongVolUpAction         000177A0        edchat_onkey (main)
    -------------------------------------------------------------------------
DATA_C
  Relative segment, address: CODE_AREA 000177A4 - 000177E3 (0x40 bytes), align: 2
  Segment part 159. ROOT.
           ENTRY                   ADDRESS         REF BY
           =====                   =======         ======
           cfgcbox23_2             000177A4 
    -------------------------------------------------------------------------
DATA_C
  Relative segment, address: CODE_AREA 000177E4 - 0001780F (0x2c bytes), align: 2
  Segment part 160. ROOT.
           ENTRY                   ADDRESS         REF BY
           =====                   =======         ======
           cfghdr23_3              000177E4 
    -------------------------------------------------------------------------
DATA_C
  Relative segment, address: CODE_AREA 00017810 - 00017813 (0x4 bytes), align: 2
  Segment part 161. ROOT.
           ENTRY                   ADDRESS         REF BY
           =====                   =======         ======
           LongVolDownAction       00017810        edchat_onkey (main)
    -------------------------------------------------------------------------
DATA_C
  Relative segment, address: CODE_AREA 00017814 - 00017853 (0x40 bytes), align: 2
  Segment part 162. ROOT.
           ENTRY                   ADDRESS         REF BY
           =====                   =======         ======
           cfgcbox23_4             00017814 
    -------------------------------------------------------------------------
DATA_C
  Relative segment, address: CODE_AREA 00017854 - 0001787F (0x2c bytes), align: 2
  Segment part 163. ROOT.
           ENTRY                   ADDRESS         REF BY
           =====                   =======         ======
           cfghdr99_3_0            00017854 
    -------------------------------------------------------------------------
DATA_C
  Relative segment, address: CODE_AREA 00017880 - 00017883 (0x4 bytes), align: 2
  Segment part 164. ROOT.
           ENTRY                   ADDRESS         REF BY
           =====                   =======         ======
           longAct_0               00017880        LongPressAction (main)
    -------------------------------------------------------------------------
DATA_C
  Relative segment, address: CODE_AREA 00017884 - 00017A43 (0x1c0 bytes), align: 2
  Segment part 165. ROOT.
           ENTRY                   ADDRESS         REF BY
           =====                   =======         ======
           cfgcbox99_4_0           00017884 
    -------------------------------------------------------------------------
DATA_C
  Relative segment, address: CODE_AREA 00017A44 - 00017A6F (0x2c bytes), align: 2
  Segment part 166. ROOT.
           ENTRY                   ADDRESS         REF BY
           =====                   =======         ======
           cfghdr99_3_1            00017A44 
    -------------------------------------------------------------------------
DATA_C
  Relative segment, address: CODE_AREA 00017A70 - 00017A73 (0x4 bytes), align: 2
  Segment part 167. ROOT.
           ENTRY                   ADDRESS         REF BY
           =====                   =======         ======
           longAct_1               00017A70        LongPressAction (main)
    -------------------------------------------------------------------------
DATA_C
  Relative segment, address: CODE_AREA 00017A74 - 00017C33 (0x1c0 bytes), align: 2
  Segment part 168. ROOT.
           ENTRY                   ADDRESS         REF BY
           =====                   =======         ======
           cfgcbox99_4_1           00017A74 
    -------------------------------------------------------------------------
DATA_C
  Relative segment, address: CODE_AREA 00017C34 - 00017C5F (0x2c bytes), align: 2
  Segment part 169. ROOT.
           ENTRY                   ADDRESS         REF BY
           =====                   =======         ======
           cfghdr99_3_2            00017C34 
    -------------------------------------------------------------------------
DATA_C
  Relative segment, address: CODE_AREA 00017C60 - 00017C63 (0x4 bytes), align: 2
  Segment part 170. ROOT.
           ENTRY                   ADDRESS         REF BY
           =====                   =======         ======
           longAct_2               00017C60        LongPressAction (main)
    -------------------------------------------------------------------------
DATA_C
  Relative segment, address: CODE_AREA 00017C64 - 00017E23 (0x1c0 bytes), align: 2
  Segment part 171. ROOT.
           ENTRY                   ADDRESS         REF BY
           =====                   =======         ======
           cfgcbox99_4_2           00017C64 
    -------------------------------------------------------------------------
DATA_C
  Relative segment, address: CODE_AREA 00017E24 - 00017E4F (0x2c bytes), align: 2
  Segment part 172. ROOT.
           ENTRY                   ADDRESS         REF BY
           =====                   =======         ======
           cfghdr99_3_3            00017E24 
    -------------------------------------------------------------------------
DATA_C
  Relative segment, address: CODE_AREA 00017E50 - 00017E53 (0x4 bytes), align: 2
  Segment part 173. ROOT.
           ENTRY                   ADDRESS         REF BY
           =====                   =======         ======
           longAct_3               00017E50        LongPressAction (main)
    -------------------------------------------------------------------------
DATA_C
  Relative segment, address: CODE_AREA 00017E54 - 00018013 (0x1c0 bytes), align: 2
  Segment part 174. ROOT.
           ENTRY                   ADDRESS         REF BY
           =====                   =======         ======
           cfgcbox99_4_3           00017E54 
    -------------------------------------------------------------------------
DATA_C
  Relative segment, address: CODE_AREA 00018014 - 0001803F (0x2c bytes), align: 2
  Segment part 175. ROOT.
           ENTRY                   ADDRESS         REF BY
           =====                   =======         ======
           cfghdr99_3_4            00018014 
    -------------------------------------------------------------------------
DATA_C
  Relative segment, address: CODE_AREA 00018040 - 00018043 (0x4 bytes), align: 2
  Segment part 176. ROOT.
           ENTRY                   ADDRESS         REF BY
           =====                   =======         ======
           longAct_4               00018040        LongPressAction (main)
    -------------------------------------------------------------------------
DATA_C
  Relative segment, address: CODE_AREA 00018044 - 00018203 (0x1c0 bytes), align: 2
  Segment part 177. ROOT.
           ENTRY                   ADDRESS         REF BY
           =====                   =======         ======
           cfgcbox99_4_4           00018044 
    -------------------------------------------------------------------------
DATA_C
  Relative segment, address: CODE_AREA 00018204 - 0001822F (0x2c bytes), align: 2
  Segment part 178. ROOT.
           ENTRY                   ADDRESS         REF BY
           =====                   =======         ======
           cfghdr99_3_5            00018204 
    -------------------------------------------------------------------------
DATA_C
  Relative segment, address: CODE_AREA 00018230 - 00018233 (0x4 bytes), align: 2
  Segment part 179. ROOT.
           ENTRY                   ADDRESS         REF BY
           =====                   =======         ======
           longAct_5               00018230        LongPressAction (main)
    -------------------------------------------------------------------------
DATA_C
  Relative segment, address: CODE_AREA 00018234 - 000183F3 (0x1c0 bytes), align: 2
  Segment part 180. ROOT.
           ENTRY                   ADDRESS         REF BY
           =====                   =======         ======
           cfgcbox99_4_5           00018234 
    -------------------------------------------------------------------------
DATA_C
  Relative segment, address: CODE_AREA 000183F4 - 0001841F (0x2c bytes), align: 2
  Segment part 181. ROOT.
           ENTRY                   ADDRESS         REF BY
           =====                   =======         ======
           cfghdr99_3_6            000183F4 
    -------------------------------------------------------------------------
DATA_C
  Relative segment, address: CODE_AREA 00018420 - 00018423 (0x4 bytes), align: 2
  Segment part 182. ROOT.
           ENTRY                   ADDRESS         REF BY
           =====                   =======         ======
           longAct_6               00018420        LongPressAction (main)
    -------------------------------------------------------------------------
DATA_C
  Relative segment, address: CODE_AREA 00018424 - 000185E3 (0x1c0 bytes), align: 2
  Segment part 183. ROOT.
           ENTRY                   ADDRESS         REF BY
           =====                   =======         ======
           cfgcbox99_4_6           00018424 
    -------------------------------------------------------------------------
DATA_C
  Relative segment, address: CODE_AREA 000185E4 - 0001860F (0x2c bytes), align: 2
  Segment part 184. ROOT.
           ENTRY                   ADDRESS         REF BY
           =====                   =======         ======
           cfghdr99_3_7            000185E4 
    -------------------------------------------------------------------------
DATA_C
  Relative segment, address: CODE_AREA 00018610 - 00018613 (0x4 bytes), align: 2
  Segment part 185. ROOT.
           ENTRY                   ADDRESS         REF BY
           =====                   =======         ======
           longAct_7               00018610        LongPressAction (main)
    -------------------------------------------------------------------------
DATA_C
  Relative segment, address: CODE_AREA 00018614 - 000187D3 (0x1c0 bytes), align: 2
  Segment part 186. ROOT.
           ENTRY                   ADDRESS         REF BY
           =====                   =======         ======
           cfgcbox99_4_7           00018614 
    -------------------------------------------------------------------------
DATA_C
  Relative segment, address: CODE_AREA 000187D4 - 000187FF (0x2c bytes), align: 2
  Segment part 187. ROOT.
           ENTRY                   ADDRESS         REF BY
           =====                   =======         ======
           cfghdr99_3_8            000187D4 
    -------------------------------------------------------------------------
DATA_C
  Relative segment, address: CODE_AREA 00018800 - 00018803 (0x4 bytes), align: 2
  Segment part 188. ROOT.
           ENTRY                   ADDRESS         REF BY
           =====                   =======         ======
           longAct_8               00018800        LongPressAction (main)
    -------------------------------------------------------------------------
DATA_C
  Relative segment, address: CODE_AREA 00018804 - 000189C3 (0x1c0 bytes), align: 2
  Segment part 189. ROOT.
           ENTRY                   ADDRESS         REF BY
           =====                   =======         ======
           cfgcbox99_4_8           00018804 
    -------------------------------------------------------------------------
DATA_C
  Relative segment, address: CODE_AREA 000189C4 - 000189EF (0x2c bytes), align: 2
  Segment part 190. ROOT.
           ENTRY                   ADDRESS         REF BY
           =====                   =======         ======
           cfghdr99_3_9            000189C4 
    -------------------------------------------------------------------------
DATA_C
  Relative segment, address: CODE_AREA 000189F0 - 000189F3 (0x4 bytes), align: 2
  Segment part 191. ROOT.
           ENTRY                   ADDRESS         REF BY
           =====                   =======         ======
           longAct_9               000189F0        LongPressAction (main)
    -------------------------------------------------------------------------
DATA_C
  Relative segment, address: CODE_AREA 000189F4 - 00018BB3 (0x1c0 bytes), align: 2
  Segment part 192. ROOT.
           ENTRY                   ADDRESS         REF BY
           =====                   =======         ======
           cfgcbox99_4_9           000189F4 
    -------------------------------------------------------------------------
DATA_C
  Relative segment, address: CODE_AREA 00018BB4 - 00018BDF (0x2c bytes), align: 2
  Segment part 193. ROOT.
           ENTRY                   ADDRESS         REF BY
           =====                   =======         ======
           cfghdr99_3_10           00018BB4 
    -------------------------------------------------------------------------
DATA_C
  Relative segment, address: CODE_AREA 00018BE0 - 00018BE3 (0x4 bytes), align: 2
  Segment part 194. ROOT.
           ENTRY                   ADDRESS         REF BY
           =====                   =======         ======
           longAct_10              00018BE0        LongPressAction (main)
    -------------------------------------------------------------------------
DATA_C
  Relative segment, address: CODE_AREA 00018BE4 - 00018DA3 (0x1c0 bytes), align: 2
  Segment part 195. ROOT.
           ENTRY                   ADDRESS         REF BY
           =====                   =======         ======
           cfgcbox99_4_10          00018BE4 
    -------------------------------------------------------------------------
DATA_C
  Relative segment, address: CODE_AREA 00018DA4 - 00018DCF (0x2c bytes), align: 2
  Segment part 196. ROOT.
           ENTRY                   ADDRESS         REF BY
           =====                   =======         ======
           cfghdr99_3_11           00018DA4 
    -------------------------------------------------------------------------
DATA_C
  Relative segment, address: CODE_AREA 00018DD0 - 00018DD3 (0x4 bytes), align: 2
  Segment part 197. ROOT.
           ENTRY                   ADDRESS         REF BY
           =====                   =======         ======
           longAct_11              00018DD0        LongPressAction (main)
    -------------------------------------------------------------------------
DATA_C
  Relative segment, address: CODE_AREA 00018DD4 - 00018F93 (0x1c0 bytes), align: 2
  Segment part 198. ROOT.
           ENTRY                   ADDRESS         REF BY
           =====                   =======         ======
           cfgcbox99_4_11          00018DD4 
    -------------------------------------------------------------------------
DATA_C
  Relative segment, address: CODE_AREA 00018F94 - 00018FBF (0x2c bytes), align: 2
  Segment part 199. ROOT.
           ENTRY                   ADDRESS         REF BY
           =====                   =======         ======
           cfghdr99_3_RB           00018F94 
    -------------------------------------------------------------------------
DATA_C
  Relative segment, address: CODE_AREA 00018FC0 - 00018FC3 (0x4 bytes), align: 2
  Segment part 200. ROOT.
           ENTRY                   ADDRESS         REF BY
           =====                   =======         ======
           longAct_RB              00018FC0        LongPressAction (main)
    -------------------------------------------------------------------------
DATA_C
  Relative segment, address: CODE_AREA 00018FC4 - 00019183 (0x1c0 bytes), align: 2
  Segment part 201. ROOT.
           ENTRY                   ADDRESS         REF BY
           =====                   =======         ======
           cfgcbox99_4_RB          00018FC4 
    -------------------------------------------------------------------------
DATA_C
  Relative segment, address: CODE_AREA 00019184 - 000191AF (0x2c bytes), align: 2
  Segment part 202. ROOT.
           ENTRY                   ADDRESS         REF BY
           =====                   =======         ======
           cfghdr99_2              00019184 
    -------------------------------------------------------------------------
DATA_C
  Relative segment, address: CODE_AREA 000191B0 - 000191DB (0x2c bytes), align: 2
  Segment part 203. ROOT.
           ENTRY                   ADDRESS         REF BY
           =====                   =======         ======
           cfghdr223_5             000191B0 
    -------------------------------------------------------------------------
DATA_C
  Relative segment, address: CODE_AREA 000191DC - 00019207 (0x2c bytes), align: 2
  Segment part 204. ROOT.
           ENTRY                   ADDRESS         REF BY
           =====                   =======         ======
           cfghdrI_0               000191DC 
    -------------------------------------------------------------------------
DATA_C
  Relative segment, address: CODE_AREA 00019208 - 00019233 (0x2c bytes), align: 2
  Segment part 205. ROOT.
           ENTRY                   ADDRESS         REF BY
           =====                   =======         ======
           cfghdrSnd1              00019208 
    -------------------------------------------------------------------------
DATA_C
  Relative segment, address: CODE_AREA 00019234 - 0001925F (0x2c bytes), align: 2
  Segment part 206. ROOT.
           ENTRY                   ADDRESS         REF BY
           =====                   =======         ======
           cfghdr181               00019234 
    -------------------------------------------------------------------------
DATA_C
  Relative segment, address: CODE_AREA 00019260 - 00019263 (0x4 bytes), align: 2
  Segment part 207. ROOT.
           ENTRY                   ADDRESS         REF BY
           =====                   =======         ======
           extended_sounds         00019260        Segment part 344 (main)
                                                   Segment part 439 (main)
    -------------------------------------------------------------------------
DATA_C
  Relative segment, address: CODE_AREA 00019264 - 000192A3 (0x40 bytes), align: 2
  Segment part 208. ROOT.
           ENTRY                   ADDRESS         REF BY
           =====                   =======         ======
           cfgcbox18_3_2           00019264 
    -------------------------------------------------------------------------
DATA_C
  Relative segment, address: CODE_AREA 000192A4 - 000192CF (0x2c bytes), align: 2
  Segment part 209. ROOT.
           ENTRY                   ADDRESS         REF BY
           =====                   =======         ======
           cfghdr1812              000192A4 
    -------------------------------------------------------------------------
DATA_C
  Relative segment, address: CODE_AREA 000192D0 - 000192D3 (0x4 bytes), align: 2
  Segment part 210. ROOT.
           ENTRY                   ADDRESS         REF BY
           =====                   =======         ======
           ext_type_sounds         000192D0        Segment part 346 (main)
                                                   Segment part 440 (main)
    -------------------------------------------------------------------------
DATA_C
  Relative segment, address: CODE_AREA 000192D4 - 00019333 (0x60 bytes), align: 2
  Segment part 211. ROOT.
           ENTRY                   ADDRESS         REF BY
           =====                   =======         ======
           cfgcbox182_3_2          000192D4 
    -------------------------------------------------------------------------
DATA_C
  Relative segment, address: CODE_AREA 00019334 - 0001935F (0x2c bytes), align: 2
  Segment part 212. ROOT.
           ENTRY                   ADDRESS         REF BY
           =====                   =======         ======
           cfghdr15                00019334 
    -------------------------------------------------------------------------
DATA_C
  Relative segment, address: CODE_AREA 00019360 - 0001939F (0x40 bytes), align: 2
  Segment part 213. ROOT.
           ENTRY                   ADDRESS         REF BY
           =====                   =======         ======
           sndGlobal2              00019360        ProcessPacket (main)
    -------------------------------------------------------------------------
DATA_C
  Relative segment, address: CODE_AREA 000193A0 - 000193CB (0x2c bytes), align: 2
  Segment part 214. ROOT.
           ENTRY                   ADDRESS         REF BY
           =====                   =======         ======
           cfghdr161               000193A0 
    -------------------------------------------------------------------------
DATA_C
  Relative segment, address: CODE_AREA 000193CC - 0001940B (0x40 bytes), align: 2
  Segment part 215. ROOT.
           ENTRY                   ADDRESS         REF BY
           =====                   =======         ======
           sndMsg2                 000193CC        get_answer (main)
    -------------------------------------------------------------------------
DATA_C
  Relative segment, address: CODE_AREA 0001940C - 00019437 (0x2c bytes), align: 2
  Segment part 216. ROOT.
           ENTRY                   ADDRESS         REF BY
           =====                   =======         ======
           cfghdr16r1              0001940C 
    -------------------------------------------------------------------------
DATA_C
  Relative segment, address: CODE_AREA 00019438 - 00019477 (0x40 bytes), align: 2
  Segment part 217. ROOT.
           ENTRY                   ADDRESS         REF BY
           =====                   =======         ======
           pingsnd                 00019438        get_answer (main)
    -------------------------------------------------------------------------
DATA_C
  Relative segment, address: CODE_AREA 00019478 - 000194A3 (0x2c bytes), align: 2
  Segment part 218. ROOT.
           ENTRY                   ADDRESS         REF BY
           =====                   =======         ======
           cfghdr16r2              00019478 
    -------------------------------------------------------------------------
DATA_C
  Relative segment, address: CODE_AREA 000194A4 - 000194E3 (0x40 bytes), align: 2
  Segment part 219. ROOT.
           ENTRY                   ADDRESS         REF BY
           =====                   =======         ======
           sndLostConn             000194A4        Segment part 325 (main)
                                                   Segment part 628 (main)
    -------------------------------------------------------------------------
DATA_C
  Relative segment, address: CODE_AREA 000194E4 - 0001950F (0x2c bytes), align: 2
  Segment part 220. ROOT.
           ENTRY                   ADDRESS         REF BY
           =====                   =======         ======
           cfghdrSnd0              000194E4 
    -------------------------------------------------------------------------
DATA_C
  Relative segment, address: CODE_AREA 00019510 - 0001953B (0x2c bytes), align: 2
  Segment part 221. ROOT.
           ENTRY                   ADDRESS         REF BY
           =====                   =======         ======
           cfghdr_45               00019510 
    -------------------------------------------------------------------------
DATA_C
  Relative segment, address: CODE_AREA 0001953C - 00019567 (0x2c bytes), align: 2
  Segment part 222. ROOT.
           ENTRY                   ADDRESS         REF BY
           =====                   =======         ======
           cfghdr467_1             0001953C 
    -------------------------------------------------------------------------
DATA_C
  Relative segment, address: CODE_AREA 00019568 - 0001956B (0x4 bytes), align: 2
  Segment part 223. ROOT.
           ENTRY                   ADDRESS         REF BY
           =====                   =======         ======
           ShowStatusIcon          00019568        Segment part 635 (main)
    -------------------------------------------------------------------------
DATA_C
  Relative segment, address: CODE_AREA 0001956C - 0001960B (0xa0 bytes), align: 2
  Segment part 224. ROOT.
           ENTRY                   ADDRESS         REF BY
           =====                   =======         ======
           cfgcbox9_1              0001956C 
    -------------------------------------------------------------------------
DATA_C
  Relative segment, address: CODE_AREA 0001960C - 00019637 (0x2c bytes), align: 2
  Segment part 225. ROOT.
           ENTRY                   ADDRESS         REF BY
           =====                   =======         ======
           cfghdrz_68              0001960C 
    -------------------------------------------------------------------------
DATA_C
  Relative segment, address: CODE_AREA 00019638 - 0001963B (0x4 bytes), align: 2
  Segment part 226. ROOT.
           ENTRY                   ADDRESS         REF BY
           =====                   =======         ======
           show_xstatus            00019638        addIconBar (main)
    -------------------------------------------------------------------------
DATA_C
  Relative segment, address: CODE_AREA 0001963C - 000196BB (0x80 bytes), align: 2
  Segment part 227. ROOT.
           ENTRY                   ADDRESS         REF BY
           =====                   =======         ======
           cfgcbox_8z              0001963C 
    -------------------------------------------------------------------------
DATA_C
  Relative segment, address: CODE_AREA 000196BC - 000196E7 (0x2c bytes), align: 2
  Segment part 228. ROOT.
           ENTRY                   ADDRESS         REF BY
           =====                   =======         ======
           cfghdrz_1               000196BC 
    -------------------------------------------------------------------------
DATA_C
  Relative segment, address: CODE_AREA 000196E8 - 000196EB (0x4 bytes), align: 2
  Segment part 229. ROOT.
           ENTRY                   ADDRESS         REF BY
           =====                   =======         ======
           IDLEICON_XX             000196E8 
    -------------------------------------------------------------------------
DATA_C
  Relative segment, address: CODE_AREA 000196EC - 000196EF (0x4 bytes), align: 2
  Segment part 230. ROOT.
           ENTRY                   ADDRESS         REF BY
           =====                   =======         ======
           IDLEICON_YX             000196EC 
    -------------------------------------------------------------------------
DATA_C
  Relative segment, address: CODE_AREA 000196F0 - 0001971B (0x2c bytes), align: 2
  Segment part 231. ROOT.
           ENTRY                   ADDRESS         REF BY
           =====                   =======         ======
           cfghdr780_1             000196F0 
    -------------------------------------------------------------------------
DATA_C
  Relative segment, address: CODE_AREA 0001971C - 0001971F (0x4 bytes), align: 2
  Segment part 232. ROOT.
           ENTRY                   ADDRESS         REF BY
           =====                   =======         ======
           ind_set_xstatus         0001971C        Segment part 246 (main)
                                                   XS_OnKey (status_change)
    -------------------------------------------------------------------------
DATA_C
  Relative segment, address: CODE_AREA 00019720 - 0001975F (0x40 bytes), align: 2
  Segment part 233. ROOT.
           ENTRY                   ADDRESS         REF BY
           =====                   =======         ======
           cfgcbox8_z2             00019720 
    -------------------------------------------------------------------------
DATA_C
  Relative segment, address: CODE_AREA 00019760 - 0001978B (0x2c bytes), align: 2
  Segment part 234. ROOT.
           ENTRY                   ADDRESS         REF BY
           =====                   =======         ======
           cfghdr780_11            00019760 
    -------------------------------------------------------------------------
DATA_C
  Relative segment, address: CODE_AREA 0001978C - 0001978F (0x4 bytes), align: 2
  Segment part 235. ROOT.
           ENTRY                   ADDRESS         REF BY
           =====                   =======         ======
           blink_mess              0001978C        addIconBar (main)
    -------------------------------------------------------------------------
DATA_C
  Relative segment, address: CODE_AREA 00019790 - 000197CF (0x40 bytes), align: 2
  Segment part 236. ROOT.
           ENTRY                   ADDRESS         REF BY
           =====                   =======         ======
           cfgcbox81_z2            00019790 
    -------------------------------------------------------------------------
DATA_C
  Relative segment, address: CODE_AREA 000197D0 - 000197FB (0x2c bytes), align: 2
  Segment part 237. ROOT.
           ENTRY                   ADDRESS         REF BY
           =====                   =======         ======
           cfghdr19_22             000197D0 
    -------------------------------------------------------------------------
DATA_C
  Relative segment, address: CODE_AREA 000197FC - 000197FF (0x4 bytes), align: 2
  Segment part 238. ROOT.
           ENTRY                   ADDRESS         REF BY
           =====                   =======         ======
           NumStatusToIconBar      000197FC        Segment part 427 (main)
                                                   Segment part 636 (main)
    -------------------------------------------------------------------------
DATA_C
  Relative segment, address: CODE_AREA 00019800 - 0001982B (0x2c bytes), align: 2
  Segment part 239. ROOT.
           ENTRY                   ADDRESS         REF BY
           =====                   =======         ======
           cfghdr19_242            00019800 
    -------------------------------------------------------------------------
DATA_C
  Relative segment, address: CODE_AREA 0001982C - 0001982F (0x4 bytes), align: 2
  Segment part 240. ROOT.
           ENTRY                   ADDRESS         REF BY
           =====                   =======         ======
           NumXStatusToIconBar     0001982C        addIconBar (main)
    -------------------------------------------------------------------------
DATA_C
  Relative segment, address: CODE_AREA 00019830 - 0001985B (0x2c bytes), align: 2
  Segment part 241. ROOT.
           ENTRY                   ADDRESS         REF BY
           =====                   =======         ======
           cfghdr_32_1             00019830 
    -------------------------------------------------------------------------
DATA_C
  Relative segment, address: CODE_AREA 0001985C - 00019887 (0x2c bytes), align: 2
  Segment part 242. ROOT.
           ENTRY                   ADDRESS         REF BY
           =====                   =======         ======
           cfghdr32_2              0001985C 
    -------------------------------------------------------------------------
DATA_C
  Relative segment, address: CODE_AREA 00019888 - 0001988B (0x4 bytes), align: 2
  Segment part 243. ROOT.
           ENTRY                   ADDRESS         REF BY
           =====                   =======         ======
           ADDITION_UIN            00019888        addIconBar (main)
    -------------------------------------------------------------------------
DATA_C
  Relative segment, address: CODE_AREA 0001988C - 000198B7 (0x2c bytes), align: 2
  Segment part 244. ROOT.
           ENTRY                   ADDRESS         REF BY
           =====                   =======         ======
           cfghdr332_3             0001988C 
    -------------------------------------------------------------------------
DATA_C
  Relative segment, address: CODE_AREA 000198B8 - 000198BB (0x4 bytes), align: 2
  Segment part 245. ROOT.
           ENTRY                   ADDRESS         REF BY
           =====                   =======         ======
           ShowAddStatusToIconBar
                                   000198B8        addIconBar (main)
    -------------------------------------------------------------------------
DATA_C
  Relative segment, address: CODE_AREA 000198BC - 000198E7 (0x2c bytes), align: 2
  Segment part 246. ROOT.
           ENTRY                   ADDRESS         REF BY
           =====                   =======         ======
           cfghdr32_3              000198BC 
    -------------------------------------------------------------------------
DATA_C
  Relative segment, address: CODE_AREA 000198E8 - 000198EB (0x4 bytes), align: 2
  Segment part 247. ROOT.
           ENTRY                   ADDRESS         REF BY
           =====                   =======         ======
           show_add_state          000198E8        addIconBar (main)
    -------------------------------------------------------------------------
DATA_C
  Relative segment, address: CODE_AREA 000198EC - 00019917 (0x2c bytes), align: 2
  Segment part 248. ROOT.
           ENTRY                   ADDRESS         REF BY
           =====                   =======         ======
           cfghdr32_5              000198EC 
    -------------------------------------------------------------------------
DATA_C
  Relative segment, address: CODE_AREA 00019918 - 0001991B (0x4 bytes), align: 2
  Segment part 249. ROOT.
           ENTRY                   ADDRESS         REF BY
           =====                   =======         ======
           show_add_xstate         00019918        addIconBar (main)
    -------------------------------------------------------------------------
DATA_C
  Relative segment, address: CODE_AREA 0001991C - 00019947 (0x2c bytes), align: 2
  Segment part 250. ROOT.
           ENTRY                   ADDRESS         REF BY
           =====                   =======         ======
           cfghdr_32_0             0001991C 
    -------------------------------------------------------------------------
DATA_C
  Relative segment, address: CODE_AREA 00019948 - 00019973 (0x2c bytes), align: 2
  Segment part 251. ROOT.
           ENTRY                   ADDRESS         REF BY
           =====                   =======         ======
           cfghdr_4                00019948 
    -------------------------------------------------------------------------
DATA_C
  Relative segment, address: CODE_AREA 00019974 - 0001999F (0x2c bytes), align: 2
  Segment part 252. ROOT.
           ENTRY                   ADDRESS         REF BY
           =====                   =======         ======
           cfghdr1_45              00019974 
    -------------------------------------------------------------------------
DATA_C
  Relative segment, address: CODE_AREA 000199A0 - 000199CB (0x2c bytes), align: 2
  Segment part 253. ROOT.
           ENTRY                   ADDRESS         REF BY
           =====                   =======         ======
           cfghdr65z               000199A0 
    -------------------------------------------------------------------------
DATA_C
  Relative segment, address: CODE_AREA 000199CC - 000199CF (0x4 bytes), align: 2
  Segment part 254. ROOT.
           ENTRY                   ADDRESS         REF BY
           =====                   =======         ======
           fonto                   000199CC        Segment part 208 (main)
                                                   Segment part 656 (main)
    -------------------------------------------------------------------------
DATA_C
  Relative segment, address: CODE_AREA 000199D0 - 000199FB (0x2c bytes), align: 2
  Segment part 255. ROOT.
           ENTRY                   ADDRESS         REF BY
           =====                   =======         ======
           cfghdr98                000199D0 
    -------------------------------------------------------------------------
DATA_C
  Relative segment, address: CODE_AREA 000199FC - 00019A3B (0x40 bytes), align: 2
  Segment part 256. ROOT.
           ENTRY                   ADDRESS         REF BY
           =====                   =======         ======
           fontpath                000199FC        Segment part 647 (main)
    -------------------------------------------------------------------------
DATA_C
  Relative segment, address: CODE_AREA 00019A3C - 00019A67 (0x2c bytes), align: 2
  Segment part 257. ROOT.
           ENTRY                   ADDRESS         REF BY
           =====                   =======         ======
           cfghdr65y               00019A3C 
    -------------------------------------------------------------------------
DATA_C
  Relative segment, address: CODE_AREA 00019A68 - 00019A6B (0x4 bytes), align: 2
  Segment part 258. ROOT.
           ENTRY                   ADDRESS         REF BY
           =====                   =======         ======
           spaco1                  00019A68        Segment part 207 (main)
                                                   Segment part 621 (main)
    -------------------------------------------------------------------------
DATA_C
  Relative segment, address: CODE_AREA 00019A6C - 00019A97 (0x2c bytes), align: 2
  Segment part 259. ROOT.
           ENTRY                   ADDRESS         REF BY
           =====                   =======         ======
           cfghdrss_45             00019A6C 
    -------------------------------------------------------------------------
DATA_C
  Relative segment, address: CODE_AREA 00019A98 - 00019AC3 (0x2c bytes), align: 2
  Segment part 260. ROOT.
           ENTRY                   ADDRESS         REF BY
           =====                   =======         ======
           cfghdr41                00019A98 
    -------------------------------------------------------------------------
DATA_C
  Relative segment, address: CODE_AREA 00019AC4 - 00019AEF (0x2c bytes), align: 2
  Segment part 261. ROOT.
           ENTRY                   ADDRESS         REF BY
           =====                   =======         ======
           cfghdrSm_5              00019AC4 
    -------------------------------------------------------------------------
DATA_C
  Relative segment, address: CODE_AREA 00019AF0 - 00019AF3 (0x4 bytes), align: 2
  Segment part 262. ROOT.
           ENTRY                   ADDRESS         REF BY
           =====                   =======         ======
           UseStandartSmileSel     00019AF0        method5 (select_smile)
    -------------------------------------------------------------------------
DATA_C
  Relative segment, address: CODE_AREA 00019AF4 - 00019B33 (0x40 bytes), align: 2
  Segment part 263. ROOT.
           ENTRY                   ADDRESS         REF BY
           =====                   =======         ======
           cfgcboxSm_6             00019AF4 
    -------------------------------------------------------------------------
DATA_C
  Relative segment, address: CODE_AREA 00019B34 - 00019B5F (0x2c bytes), align: 2
  Segment part 264. ROOT.
           ENTRY                   ADDRESS         REF BY
           =====                   =======         ======
           cfghdr40_1              00019B34 
    -------------------------------------------------------------------------
DATA_C
  Relative segment, address: CODE_AREA 00019B60 - 00019B63 (0x4 bytes), align: 2
  Segment part 265. ROOT.
           ENTRY                   ADDRESS         REF BY
           =====                   =======         ======
           SmBGcolor               00019B60        method0 (select_smile)
    -------------------------------------------------------------------------
DATA_C
  Relative segment, address: CODE_AREA 00019B64 - 00019B8F (0x2c bytes), align: 2
  Segment part 266. ROOT.
           ENTRY                   ADDRESS         REF BY
           =====                   =======         ======
           cfghdr40_2              00019B64 
    -------------------------------------------------------------------------
DATA_C
  Relative segment, address: CODE_AREA 00019B90 - 00019B93 (0x4 bytes), align: 2
  Segment part 267. ROOT.
           ENTRY                   ADDRESS         REF BY
           =====                   =======         ======
           SmSelectColor           00019B90        RenderPage (select_smile)
    -------------------------------------------------------------------------
DATA_C
  Relative segment, address: CODE_AREA 00019B94 - 00019BBF (0x2c bytes), align: 2
  Segment part 268. ROOT.
           ENTRY                   ADDRESS         REF BY
           =====                   =======         ======
           cfghdr40_3              00019B94 
    -------------------------------------------------------------------------
DATA_C
  Relative segment, address: CODE_AREA 00019BC0 - 00019BC3 (0x4 bytes), align: 2
  Segment part 269. ROOT.
           ENTRY                   ADDRESS         REF BY
           =====                   =======         ======
           SmFontColor             00019BC0        RenderPage (select_smile)
    -------------------------------------------------------------------------
DATA_C
  Relative segment, address: CODE_AREA 00019BC4 - 00019BEF (0x2c bytes), align: 2
  Segment part 270. ROOT.
           ENTRY                   ADDRESS         REF BY
           =====                   =======         ======
           cfghdr40                00019BC4 
    -------------------------------------------------------------------------
DATA_C
  Relative segment, address: CODE_AREA 00019BF0 - 00019C1B (0x2c bytes), align: 2
  Segment part 271. ROOT.
           ENTRY                   ADDRESS         REF BY
           =====                   =======         ======
           cfghdr_m71              00019BF0 
    -------------------------------------------------------------------------
DATA_C
  Relative segment, address: CODE_AREA 00019C1C - 00019C47 (0x2c bytes), align: 2
  Segment part 272. ROOT.
           ENTRY                   ADDRESS         REF BY
           =====                   =======         ======
           cfghdrm71_2             00019C1C 
    -------------------------------------------------------------------------
DATA_C
  Relative segment, address: CODE_AREA 00019C48 - 00019C4B (0x4 bytes), align: 2
  Segment part 273. ROOT.
           ENTRY                   ADDRESS         REF BY
           =====                   =======         ======
           Is_UPTIME_On            00019C48        maincsm_onmessage (main)
    -------------------------------------------------------------------------
DATA_C
  Relative segment, address: CODE_AREA 00019C4C - 00019C8B (0x40 bytes), align: 2
  Segment part 274. ROOT.
           ENTRY                   ADDRESS         REF BY
           =====                   =======         ======
           cfgcbox71_2_2           00019C4C 
    -------------------------------------------------------------------------
DATA_C
  Relative segment, address: CODE_AREA 00019C8C - 00019CB7 (0x2c bytes), align: 2
  Segment part 275. ROOT.
           ENTRY                   ADDRESS         REF BY
           =====                   =======         ======
           cfghdr699               00019C8C 
    -------------------------------------------------------------------------
DATA_C
  Relative segment, address: CODE_AREA 00019CB8 - 00019CBB (0x4 bytes), align: 2
  Segment part 276. ROOT.
           ENTRY                   ADDRESS         REF BY
           =====                   =======         ======
           onlineTime_x            00019CB8        DrawOnlineTime (main)
    -------------------------------------------------------------------------
DATA_C
  Relative segment, address: CODE_AREA 00019CBC - 00019CBF (0x4 bytes), align: 2
  Segment part 277. ROOT.
           ENTRY                   ADDRESS         REF BY
           =====                   =======         ======
           onlineTime_y            00019CBC        DrawOnlineTime (main)
    -------------------------------------------------------------------------
DATA_C
  Relative segment, address: CODE_AREA 00019CC0 - 00019CEB (0x2c bytes), align: 2
  Segment part 278. ROOT.
           ENTRY                   ADDRESS         REF BY
           =====                   =======         ======
           cfghdr698               00019CC0 
    -------------------------------------------------------------------------
DATA_C
  Relative segment, address: CODE_AREA 00019CEC - 00019CEF (0x4 bytes), align: 2
  Segment part 279. ROOT.
           ENTRY                   ADDRESS         REF BY
           =====                   =======         ======
           Pause_Time              00019CEC        upTime (main)
    -------------------------------------------------------------------------
DATA_C
  Relative segment, address: CODE_AREA 00019CF0 - 00019D2F (0x40 bytes), align: 2
  Segment part 280. ROOT.
           ENTRY                   ADDRESS         REF BY
           =====                   =======         ======
           cfgcbox85               00019CF0 
    -------------------------------------------------------------------------
DATA_C
  Relative segment, address: CODE_AREA 00019D30 - 00019D5B (0x2c bytes), align: 2
  Segment part 281. ROOT.
           ENTRY                   ADDRESS         REF BY
           =====                   =======         ======
           cfghdr123698            00019D30 
    -------------------------------------------------------------------------
DATA_C
  Relative segment, address: CODE_AREA 00019D5C - 00019D5F (0x4 bytes), align: 2
  Segment part 282. ROOT.
           ENTRY                   ADDRESS         REF BY
           =====                   =======         ======
           isPingIdle              00019D5C        maincsm_onmessage (main)
    -------------------------------------------------------------------------
DATA_C
  Relative segment, address: CODE_AREA 00019D60 - 00019D9F (0x40 bytes), align: 2
  Segment part 283. ROOT.
           ENTRY                   ADDRESS         REF BY
           =====                   =======         ======
           cfgcbox825              00019D60 
    -------------------------------------------------------------------------
DATA_C
  Relative segment, address: CODE_AREA 00019DA0 - 00019DCB (0x2c bytes), align: 2
  Segment part 284. ROOT.
           ENTRY                   ADDRESS         REF BY
           =====                   =======         ======
           cfghd66                 00019DA0 
    -------------------------------------------------------------------------
DATA_C
  Relative segment, address: CODE_AREA 00019DCC - 00019DCF (0x4 bytes), align: 2
  Segment part 285. ROOT.
           ENTRY                   ADDRESS         REF BY
           =====                   =======         ======
           Ping_X                  00019DCC        DrawPing (main)
    -------------------------------------------------------------------------
DATA_C
  Relative segment, address: CODE_AREA 00019DD0 - 00019DD3 (0x4 bytes), align: 2
  Segment part 286. ROOT.
           ENTRY                   ADDRESS         REF BY
           =====                   =======         ======
           Ping_Y                  00019DD0        DrawPing (main)
    -------------------------------------------------------------------------
DATA_C
  Relative segment, address: CODE_AREA 00019DD4 - 00019DFF (0x2c bytes), align: 2
  Segment part 287. ROOT.
           ENTRY                   ADDRESS         REF BY
           =====                   =======         ======
           cfghdr1z9a_1            00019DD4 
    -------------------------------------------------------------------------
DATA_C
  Relative segment, address: CODE_AREA 00019E00 - 00019E03 (0x4 bytes), align: 2
  Segment part 288. ROOT.
           ENTRY                   ADDRESS         REF BY
           =====                   =======         ======
           ping_time_config        00019E00        get_answer (main)
    -------------------------------------------------------------------------
DATA_C
  Relative segment, address: CODE_AREA 00019E04 - 00019E2F (0x2c bytes), align: 2
  Segment part 289. ROOT.
           ENTRY                   ADDRESS         REF BY
           =====                   =======         ======
           cfghdr298               00019E04 
    -------------------------------------------------------------------------
DATA_C
  Relative segment, address: CODE_AREA 00019E30 - 00019E33 (0x4 bytes), align: 2
  Segment part 290. ROOT.
           ENTRY                   ADDRESS         REF BY
           =====                   =======         ======
           Is_Unread_On            00019E30        maincsm_onmessage (main)
    -------------------------------------------------------------------------
DATA_C
  Relative segment, address: CODE_AREA 00019E34 - 00019E73 (0x40 bytes), align: 2
  Segment part 291. ROOT.
           ENTRY                   ADDRESS         REF BY
           =====                   =======         ======
           cfgcbox86               00019E34 
    -------------------------------------------------------------------------
DATA_C
  Relative segment, address: CODE_AREA 00019E74 - 00019E9F (0x2c bytes), align: 2
  Segment part 292. ROOT.
           ENTRY                   ADDRESS         REF BY
           =====                   =======         ======
           cfghd67                 00019E74 
    -------------------------------------------------------------------------
DATA_C
  Relative segment, address: CODE_AREA 00019EA0 - 00019EA3 (0x4 bytes), align: 2
  Segment part 293. ROOT.
           ENTRY                   ADDRESS         REF BY
           =====                   =======         ======
           unread_X                00019EA0        maincsm_onmessage (main)
    -------------------------------------------------------------------------
DATA_C
  Relative segment, address: CODE_AREA 00019EA4 - 00019EA7 (0x4 bytes), align: 2
  Segment part 294. ROOT.
           ENTRY                   ADDRESS         REF BY
           =====                   =======         ======
           unread_Y                00019EA4        maincsm_onmessage (main)
    -------------------------------------------------------------------------
DATA_C
  Relative segment, address: CODE_AREA 00019EA8 - 00019ED3 (0x2c bytes), align: 2
  Segment part 295. ROOT.
           ENTRY                   ADDRESS         REF BY
           =====                   =======         ======
           cfghdr71_3              00019EA8 
    -------------------------------------------------------------------------
DATA_C
  Relative segment, address: CODE_AREA 00019ED4 - 00019ED7 (0x4 bytes), align: 2
  Segment part 296. ROOT.
           ENTRY                   ADDRESS         REF BY
           =====                   =======         ======
           Is_Online_On            00019ED4        maincsm_onmessage (main)
    -------------------------------------------------------------------------
DATA_C
  Relative segment, address: CODE_AREA 00019ED8 - 00019F17 (0x40 bytes), align: 2
  Segment part 297. ROOT.
           ENTRY                   ADDRESS         REF BY
           =====                   =======         ======
           cfgcbox71_2             00019ED8 
    -------------------------------------------------------------------------
DATA_C
  Relative segment, address: CODE_AREA 00019F18 - 00019F43 (0x2c bytes), align: 2
  Segment part 298. ROOT.
           ENTRY                   ADDRESS         REF BY
           =====                   =======         ======
           cfghdr712_3             00019F18 
    -------------------------------------------------------------------------
DATA_C
  Relative segment, address: CODE_AREA 00019F44 - 00019F47 (0x4 bytes), align: 2
  Segment part 299. ROOT.
           ENTRY                   ADDRESS         REF BY
           =====                   =======         ======
           Is_Online_On_Align      00019F44        maincsm_onmessage (main)
    -------------------------------------------------------------------------
DATA_C
  Relative segment, address: CODE_AREA 00019F48 - 00019FA7 (0x60 bytes), align: 2
  Segment part 300. ROOT.
           ENTRY                   ADDRESS         REF BY
           =====                   =======         ======
           cfgcbox271_522          00019F48 
    -------------------------------------------------------------------------
DATA_C
  Relative segment, address: CODE_AREA 00019FA8 - 00019FD3 (0x2c bytes), align: 2
  Segment part 301. ROOT.
           ENTRY                   ADDRESS         REF BY
           =====                   =======         ======
           cfghd71_1               00019FA8 
    -------------------------------------------------------------------------
DATA_C
  Relative segment, address: CODE_AREA 00019FD4 - 00019FD7 (0x4 bytes), align: 2
  Segment part 302. ROOT.
           ENTRY                   ADDRESS         REF BY
           =====                   =======         ======
           online_x                00019FD4        maincsm_onmessage (main)
    -------------------------------------------------------------------------
DATA_C
  Relative segment, address: CODE_AREA 00019FD8 - 00019FDB (0x4 bytes), align: 2
  Segment part 303. ROOT.
           ENTRY                   ADDRESS         REF BY
           =====                   =======         ======
           online_y                00019FD8        maincsm_onmessage (main)
    -------------------------------------------------------------------------
DATA_C
  Relative segment, address: CODE_AREA 00019FDC - 0001A007 (0x2c bytes), align: 2
  Segment part 304. ROOT.
           ENTRY                   ADDRESS         REF BY
           =====                   =======         ======
           cfghdr71_32             00019FDC 
    -------------------------------------------------------------------------
DATA_C
  Relative segment, address: CODE_AREA 0001A008 - 0001A00B (0x4 bytes), align: 2
  Segment part 305. ROOT.
           ENTRY                   ADDRESS         REF BY
           =====                   =======         ======
           Is_SMARTCPU_On          0001A008        Segment part 445 (main)
                                                   Segment part 618 (main)
    -------------------------------------------------------------------------
DATA_C
  Relative segment, address: CODE_AREA 0001A00C - 0001A04B (0x40 bytes), align: 2
  Segment part 306. ROOT.
           ENTRY                   ADDRESS         REF BY
           =====                   =======         ======
           cfgcbox271_2            0001A00C 
    -------------------------------------------------------------------------
DATA_C
  Relative segment, address: CODE_AREA 0001A04C - 0001A077 (0x2c bytes), align: 2
  Segment part 307. ROOT.
           ENTRY                   ADDRESS         REF BY
           =====                   =======         ======
           cfghd83                 0001A04C 
    -------------------------------------------------------------------------
DATA_C
  Relative segment, address: CODE_AREA 0001A078 - 0001A07B (0x4 bytes), align: 2
  Segment part 308. ROOT.
           ENTRY                   ADDRESS         REF BY
           =====                   =======         ======
           msg_d_x                 0001A078        maincsm_onmessage (main)
    -------------------------------------------------------------------------
DATA_C
  Relative segment, address: CODE_AREA 0001A07C - 0001A07F (0x4 bytes), align: 2
  Segment part 309. ROOT.
           ENTRY                   ADDRESS         REF BY
           =====                   =======         ======
           msg_d_y                 0001A07C        maincsm_onmessage (main)
    -------------------------------------------------------------------------
DATA_C
  Relative segment, address: CODE_AREA 0001A080 - 0001A0AB (0x2c bytes), align: 2
  Segment part 310. ROOT.
           ENTRY                   ADDRESS         REF BY
           =====                   =======         ======
           cfghdrs19_1             0001A080 
    -------------------------------------------------------------------------
DATA_C
  Relative segment, address: CODE_AREA 0001A0AC - 0001A0AF (0x4 bytes), align: 2
  Segment part 311. ROOT.
           ENTRY                   ADDRESS         REF BY
           =====                   =======         ======
           main_msg_timer          0001A0AC        ProcessPacket (main)
    -------------------------------------------------------------------------
DATA_C
  Relative segment, address: CODE_AREA 0001A0B0 - 0001A0DB (0x2c bytes), align: 2
  Segment part 312. ROOT.
           ENTRY                   ADDRESS         REF BY
           =====                   =======         ======
           cfghdr60_2              0001A0B0 
    -------------------------------------------------------------------------
DATA_C
  Relative segment, address: CODE_AREA 0001A0DC - 0001A0DF (0x4 bytes), align: 2
  Segment part 313. ROOT.
           ENTRY                   ADDRESS         REF BY
           =====                   =======         ======
           fontColor               0001A0DC 
    -------------------------------------------------------------------------
DATA_C
  Relative segment, address: CODE_AREA 0001A0E0 - 0001A10B (0x2c bytes), align: 2
  Segment part 314. ROOT.
           ENTRY                   ADDRESS         REF BY
           =====                   =======         ======
           cfghdr60_3              0001A0E0 
    -------------------------------------------------------------------------
DATA_C
  Relative segment, address: CODE_AREA 0001A10C - 0001A10F (0x4 bytes), align: 2
  Segment part 315. ROOT.
           ENTRY                   ADDRESS         REF BY
           =====                   =======         ======
           bgrColor                0001A10C 
    -------------------------------------------------------------------------
DATA_C
  Relative segment, address: CODE_AREA 0001A110 - 0001A13B (0x2c bytes), align: 2
  Segment part 316. ROOT.
           ENTRY                   ADDRESS         REF BY
           =====                   =======         ======
           cfghdr19a_1             0001A110 
    -------------------------------------------------------------------------
DATA_C
  Relative segment, address: CODE_AREA 0001A13C - 0001A13F (0x4 bytes), align: 2
  Segment part 317. ROOT.
           ENTRY                   ADDRESS         REF BY
           =====                   =======         ======
           main_lenght             0001A13C        AddToMain (main)
    -------------------------------------------------------------------------
DATA_C
  Relative segment, address: CODE_AREA 0001A140 - 0001A16B (0x2c bytes), align: 2
  Segment part 318. ROOT.
           ENTRY                   ADDRESS         REF BY
           =====                   =======         ======
           cfghdr9z9               0001A140 
    -------------------------------------------------------------------------
DATA_C
  Relative segment, address: CODE_AREA 0001A16C - 0001A16F (0x4 bytes), align: 2
  Segment part 319. ROOT.
           ENTRY                   ADDRESS         REF BY
           =====                   =======         ======
           use_cutter              0001A16C        AddToMain (main)
    -------------------------------------------------------------------------
DATA_C
  Relative segment, address: CODE_AREA 0001A170 - 0001A1AF (0x40 bytes), align: 2
  Segment part 320. ROOT.
           ENTRY                   ADDRESS         REF BY
           =====                   =======         ======
           cfgcbox18a_4            0001A170 
    -------------------------------------------------------------------------
DATA_C
  Relative segment, address: CODE_AREA 0001A1B0 - 0001A1DB (0x2c bytes), align: 2
  Segment part 321. ROOT.
           ENTRY                   ADDRESS         REF BY
           =====                   =======         ======
           cfghdr_m90              0001A1B0 
    -------------------------------------------------------------------------
DATA_C
  Relative segment, address: CODE_AREA 0001A1DC - 0001A207 (0x2c bytes), align: 2
  Segment part 322. ROOT.
           ENTRY                   ADDRESS         REF BY
           =====                   =======         ======
           cfghdr_m61              0001A1DC 
    -------------------------------------------------------------------------
DATA_C
  Relative segment, address: CODE_AREA 0001A208 - 0001A233 (0x2c bytes), align: 2
  Segment part 323. ROOT.
           ENTRY                   ADDRESS         REF BY
           =====                   =======         ======
           cfghdr668               0001A208 
    -------------------------------------------------------------------------
DATA_C
  Relative segment, address: CODE_AREA 0001A234 - 0001A237 (0x4 bytes), align: 2
  Segment part 324. ROOT.
           ENTRY                   ADDRESS         REF BY
           =====                   =======         ======
           Auto_Status             0001A234        Segment part 184 (main)
                                                   Segment part 619 (main)
    -------------------------------------------------------------------------
DATA_C
  Relative segment, address: CODE_AREA 0001A238 - 0001A277 (0x40 bytes), align: 2
  Segment part 325. ROOT.
           ENTRY                   ADDRESS         REF BY
           =====                   =======         ======
           cfgcbox89               0001A238 
    -------------------------------------------------------------------------
DATA_C
  Relative segment, address: CODE_AREA 0001A278 - 0001A2A3 (0x2c bytes), align: 2
  Segment part 326. ROOT.
           ENTRY                   ADDRESS         REF BY
           =====                   =======         ======
           cfghdr_m61_1            0001A278 
    -------------------------------------------------------------------------
DATA_C
  Relative segment, address: CODE_AREA 0001A2A4 - 0001A2A7 (0x4 bytes), align: 2
  Segment part 327. ROOT.
           ENTRY                   ADDRESS         REF BY
           =====                   =======         ======
           IsOnNAStatus            0001A2A4        away_timer (main)
    -------------------------------------------------------------------------
DATA_C
  Relative segment, address: CODE_AREA 0001A2A8 - 0001A2E7 (0x40 bytes), align: 2
  Segment part 328. ROOT.
           ENTRY                   ADDRESS         REF BY
           =====                   =======         ======
           cfgcbox_m61_2           0001A2A8 
    -------------------------------------------------------------------------
DATA_C
  Relative segment, address: CODE_AREA 0001A2E8 - 0001A313 (0x2c bytes), align: 2
  Segment part 329. ROOT.
           ENTRY                   ADDRESS         REF BY
           =====                   =======         ======
           cfghdr61_8              0001A2E8 
    -------------------------------------------------------------------------
DATA_C
  Relative segment, address: CODE_AREA 0001A314 - 0001A317 (0x4 bytes), align: 2
  Segment part 330. ROOT.
           ENTRY                   ADDRESS         REF BY
           =====                   =======         ======
           NAStatusTime            0001A314        away_timer (main)
    -------------------------------------------------------------------------
DATA_C
  Relative segment, address: CODE_AREA 0001A318 - 0001A343 (0x2c bytes), align: 2
  Segment part 331. ROOT.
           ENTRY                   ADDRESS         REF BY
           =====                   =======         ======
           cfghdr6678              0001A318 
    -------------------------------------------------------------------------
DATA_C
  Relative segment, address: CODE_AREA 0001A344 - 0001A347 (0x4 bytes), align: 2
  Segment part 332. ROOT.
           ENTRY                   ADDRESS         REF BY
           =====                   =======         ======
           isAutoStatusOn          0001A344        SC_OnKey (status_change)
                                                   away_timer (main)
    -------------------------------------------------------------------------
DATA_C
  Relative segment, address: CODE_AREA 0001A348 - 0001A4E7 (0x1a0 bytes), align: 2
  Segment part 333. ROOT.
           ENTRY                   ADDRESS         REF BY
           =====                   =======         ======
           cfgcboxa1_153           0001A348 
    -------------------------------------------------------------------------
DATA_C
  Relative segment, address: CODE_AREA 0001A4E8 - 0001A513 (0x2c bytes), align: 2
  Segment part 334. ROOT.
           ENTRY                   ADDRESS         REF BY
           =====                   =======         ======
           cfghdr667               0001A4E8 
    -------------------------------------------------------------------------
DATA_C
  Relative segment, address: CODE_AREA 0001A514 - 0001A517 (0x4 bytes), align: 2
  Segment part 335. ROOT.
           ENTRY                   ADDRESS         REF BY
           =====                   =======         ======
           AUTO_ENGADE             0001A514        AutoAwayMSG (mainmenu)
                                                   SC_OnKey (status_change)
                                                   Segment part 213 (main)
                                                   Segment part 299 (main)
    -------------------------------------------------------------------------
DATA_C
  Relative segment, address: CODE_AREA 0001A518 - 0001A543 (0x2c bytes), align: 2
  Segment part 336. ROOT.
           ENTRY                   ADDRESS         REF BY
           =====                   =======         ======
           cfghdr61_18             0001A518 
    -------------------------------------------------------------------------
DATA_C
  Relative segment, address: CODE_AREA 0001A544 - 0001A547 (0x4 bytes), align: 2
  Segment part 337. ROOT.
           ENTRY                   ADDRESS         REF BY
           =====                   =======         ======
           automsgcount            0001A544        Segment part 345 (main)
                                                   Segment part 417 (main)
                                                   Segment part 444 (main)
    -------------------------------------------------------------------------
DATA_C
  Relative segment, address: CODE_AREA 0001A548 - 0001A573 (0x2c bytes), align: 2
  Segment part 338. ROOT.
           ENTRY                   ADDRESS         REF BY
           =====                   =======         ======
           cfghdr_13               0001A548 
    -------------------------------------------------------------------------
DATA_C
  Relative segment, address: CODE_AREA 0001A574 - 0001A577 (0x4 bytes), align: 2
  Segment part 339. ROOT.
           ENTRY                   ADDRESS         REF BY
           =====                   =======         ======
           time_zone               0001A574        init_time_zone (main)
    -------------------------------------------------------------------------
DATA_C
  Relative segment, address: CODE_AREA 0001A578 - 0001A997 (0x420 bytes), align: 2
  Segment part 340. ROOT.
           ENTRY                   ADDRESS         REF BY
           =====                   =======         ======
           cfgcbox_13              0001A578 
    -------------------------------------------------------------------------
DATA_C
  Relative segment, address: CODE_AREA 0001A998 - 0001A9C3 (0x2c bytes), align: 2
  Segment part 341. ROOT.
           ENTRY                   ADDRESS         REF BY
           =====                   =======         ======
           cfghdrzz_8              0001A998 
    -------------------------------------------------------------------------
DATA_C
  Relative segment, address: CODE_AREA 0001A9C4 - 0001A9DB (0x18 bytes), align: 2
  Segment part 342. ROOT.
           ENTRY                   ADDRESS         REF BY
           =====                   =======         ======
           awayHelloMsg            0001A9C4        CheckComand (main)
    -------------------------------------------------------------------------
DATA_C
  Relative segment, address: CODE_AREA 0001A9DC - 0001AA07 (0x2c bytes), align: 2
  Segment part 343. ROOT.
           ENTRY                   ADDRESS         REF BY
           =====                   =======         ======
           cfghdrzz_9              0001A9DC 
    -------------------------------------------------------------------------
DATA_C
  Relative segment, address: CODE_AREA 0001AA08 - 0001AB07 (0x100 bytes), align: 2
  Segment part 344. ROOT.
           ENTRY                   ADDRESS         REF BY
           =====                   =======         ======
           awayMsg                 0001AA08        Segment part 220 (main)
                                                   Segment part 418 (main)
    -------------------------------------------------------------------------
DATA_C
  Relative segment, address: CODE_AREA 0001AB08 - 0001AB33 (0x2c bytes), align: 2
  Segment part 345. ROOT.
           ENTRY                   ADDRESS         REF BY
           =====                   =======         ======
           cfghdr66_2              0001AB08 
    -------------------------------------------------------------------------
DATA_C
  Relative segment, address: CODE_AREA 0001AB34 - 0001AB37 (0x4 bytes), align: 2
  Segment part 346. ROOT.
           ENTRY                   ADDRESS         REF BY
           =====                   =======         ======
           Reset_timer             0001AB34        my_keyhook (main)
    -------------------------------------------------------------------------
DATA_C
  Relative segment, address: CODE_AREA 0001AB38 - 0001AB77 (0x40 bytes), align: 2
  Segment part 347. ROOT.
           ENTRY                   ADDRESS         REF BY
           =====                   =======         ======
           cfgcbox90               0001AB38 
    -------------------------------------------------------------------------
DATA_C
  Relative segment, address: CODE_AREA 0001AB78 - 0001ABA3 (0x2c bytes), align: 2
  Segment part 348. ROOT.
           ENTRY                   ADDRESS         REF BY
           =====                   =======         ======
           cfghdr663               0001AB78 
    -------------------------------------------------------------------------
DATA_C
  Relative segment, address: CODE_AREA 0001ABA4 - 0001ABA7 (0x4 bytes), align: 2
  Segment part 349. ROOT.
           ENTRY                   ADDRESS         REF BY
           =====                   =======         ======
           showAwayIdle            0001ABA4        Segment part 206 (main)
                                                   Segment part 620 (main)
    -------------------------------------------------------------------------
DATA_C
  Relative segment, address: CODE_AREA 0001ABA8 - 0001ABE7 (0x40 bytes), align: 2
  Segment part 350. ROOT.
           ENTRY                   ADDRESS         REF BY
           =====                   =======         ======
           cfgcbox82               0001ABA8 
    -------------------------------------------------------------------------
DATA_C
  Relative segment, address: CODE_AREA 0001ABE8 - 0001AC13 (0x2c bytes), align: 2
  Segment part 351. ROOT.
           ENTRY                   ADDRESS         REF BY
           =====                   =======         ======
           cfghd6_7                0001ABE8 
    -------------------------------------------------------------------------
DATA_C
  Relative segment, address: CODE_AREA 0001AC14 - 0001AC17 (0x4 bytes), align: 2
  Segment part 352. ROOT.
           ENTRY                   ADDRESS         REF BY
           =====                   =======         ======
           auto_x                  0001AC14        DrawAutoMSG (main)
    -------------------------------------------------------------------------
DATA_C
  Relative segment, address: CODE_AREA 0001AC18 - 0001AC1B (0x4 bytes), align: 2
  Segment part 353. ROOT.
           ENTRY                   ADDRESS         REF BY
           =====                   =======         ======
           auto_y                  0001AC18        DrawAutoMSG (main)
    -------------------------------------------------------------------------
DATA_C
  Relative segment, address: CODE_AREA 0001AC1C - 0001AC47 (0x2c bytes), align: 2
  Segment part 354. ROOT.
           ENTRY                   ADDRESS         REF BY
           =====                   =======         ======
           cfghdr_m60              0001AC1C 
    -------------------------------------------------------------------------
DATA_C
  Relative segment, address: CODE_AREA 0001AC48 - 0001AC73 (0x2c bytes), align: 2
  Segment part 355. ROOT.
           ENTRY                   ADDRESS         REF BY
           =====                   =======         ======
           cfghdra1                0001AC48 
    -------------------------------------------------------------------------
DATA_C
  Relative segment, address: CODE_AREA 0001AC74 - 0001AC9F (0x2c bytes), align: 2
  Segment part 356. ROOT.
           ENTRY                   ADDRESS         REF BY
           =====                   =======         ======
           cfghdra1_3              0001AC74 
    -------------------------------------------------------------------------
DATA_C
  Relative segment, address: CODE_AREA 0001ACA0 - 0001ACA3 (0x4 bytes), align: 2
  Segment part 357. ROOT.
           ENTRY                   ADDRESS         REF BY
           =====                   =======         ======
           status_1                0001ACA0        AutoChangeStatus_timer (main)
    -------------------------------------------------------------------------
DATA_C
  Relative segment, address: CODE_AREA 0001ACA4 - 0001AE43 (0x1a0 bytes), align: 2
  Segment part 358. ROOT.
           ENTRY                   ADDRESS         REF BY
           =====                   =======         ======
           cfgcboxa1_13            0001ACA4 
    -------------------------------------------------------------------------
DATA_C
  Relative segment, address: CODE_AREA 0001AE44 - 0001AE6F (0x2c bytes), align: 2
  Segment part 359. ROOT.
           ENTRY                   ADDRESS         REF BY
           =====                   =======         ======
           cfghdra1_2              0001AE44 
    -------------------------------------------------------------------------
DATA_C
  Relative segment, address: CODE_AREA 0001AE70 - 0001AE77 (0x8 bytes), align: 2
  Segment part 360. ROOT.
           ENTRY                   ADDRESS         REF BY
           =====                   =======         ======
           tm_status_1             0001AE70        AutoChangeStatus_timer (main)
    -------------------------------------------------------------------------
DATA_C
  Relative segment, address: CODE_AREA 0001AE78 - 0001AEA3 (0x2c bytes), align: 2
  Segment part 361. ROOT.
           ENTRY                   ADDRESS         REF BY
           =====                   =======         ======
           cfghdra1_1              0001AE78 
    -------------------------------------------------------------------------
DATA_C
  Relative segment, address: CODE_AREA 0001AEA4 - 0001AEA7 (0x4 bytes), align: 2
  Segment part 362. ROOT.
           ENTRY                   ADDRESS         REF BY
           =====                   =======         ======
           status_2                0001AEA4        AutoChangeStatus_timer (main)
    -------------------------------------------------------------------------
DATA_C
  Relative segment, address: CODE_AREA 0001AEA8 - 0001B047 (0x1a0 bytes), align: 2
  Segment part 363. ROOT.
           ENTRY                   ADDRESS         REF BY
           =====                   =======         ======
           cfgcboxa1_14            0001AEA8 
    -------------------------------------------------------------------------
DATA_C
  Relative segment, address: CODE_AREA 0001B048 - 0001B073 (0x2c bytes), align: 2
  Segment part 364. ROOT.
           ENTRY                   ADDRESS         REF BY
           =====                   =======         ======
           cfghdra1_4              0001B048 
    -------------------------------------------------------------------------
DATA_C
  Relative segment, address: CODE_AREA 0001B074 - 0001B07B (0x8 bytes), align: 2
  Segment part 365. ROOT.
           ENTRY                   ADDRESS         REF BY
           =====                   =======         ======
           tm_status_2             0001B074        AutoChangeStatus_timer (main)
    -------------------------------------------------------------------------
DATA_C
  Relative segment, address: CODE_AREA 0001B07C - 0001B0A7 (0x2c bytes), align: 2
  Segment part 366. ROOT.
           ENTRY                   ADDRESS         REF BY
           =====                   =======         ======
           cfghdra1_5              0001B07C 
    -------------------------------------------------------------------------
DATA_C
  Relative segment, address: CODE_AREA 0001B0A8 - 0001B0AB (0x4 bytes), align: 2
  Segment part 367. ROOT.
           ENTRY                   ADDRESS         REF BY
           =====                   =======         ======
           status_3                0001B0A8        AutoChangeStatus_timer (main)
    -------------------------------------------------------------------------
DATA_C
  Relative segment, address: CODE_AREA 0001B0AC - 0001B24B (0x1a0 bytes), align: 2
  Segment part 368. ROOT.
           ENTRY                   ADDRESS         REF BY
           =====                   =======         ======
           cfgcboxa1_15            0001B0AC 
    -------------------------------------------------------------------------
DATA_C
  Relative segment, address: CODE_AREA 0001B24C - 0001B277 (0x2c bytes), align: 2
  Segment part 369. ROOT.
           ENTRY                   ADDRESS         REF BY
           =====                   =======         ======
           cfghdra1_6              0001B24C 
    -------------------------------------------------------------------------
DATA_C
  Relative segment, address: CODE_AREA 0001B278 - 0001B27F (0x8 bytes), align: 2
  Segment part 370. ROOT.
           ENTRY                   ADDRESS         REF BY
           =====                   =======         ======
           tm_status_3             0001B278        AutoChangeStatus_timer (main)
    -------------------------------------------------------------------------
DATA_C
  Relative segment, address: CODE_AREA 0001B280 - 0001B2AB (0x2c bytes), align: 2
  Segment part 371. ROOT.
           ENTRY                   ADDRESS         REF BY
           =====                   =======         ======
           cfghdra1_7              0001B280 
    -------------------------------------------------------------------------
DATA_C
  Relative segment, address: CODE_AREA 0001B2AC - 0001B2AF (0x4 bytes), align: 2
  Segment part 372. ROOT.
           ENTRY                   ADDRESS         REF BY
           =====                   =======         ======
           status_4                0001B2AC        AutoChangeStatus_timer (main)
    -------------------------------------------------------------------------
DATA_C
  Relative segment, address: CODE_AREA 0001B2B0 - 0001B44F (0x1a0 bytes), align: 2
  Segment part 373. ROOT.
           ENTRY                   ADDRESS         REF BY
           =====                   =======         ======
           cfgcboxa1_16            0001B2B0 
    -------------------------------------------------------------------------
DATA_C
  Relative segment, address: CODE_AREA 0001B450 - 0001B47B (0x2c bytes), align: 2
  Segment part 374. ROOT.
           ENTRY                   ADDRESS         REF BY
           =====                   =======         ======
           cfghdra1_8              0001B450 
    -------------------------------------------------------------------------
DATA_C
  Relative segment, address: CODE_AREA 0001B47C - 0001B483 (0x8 bytes), align: 2
  Segment part 375. ROOT.
           ENTRY                   ADDRESS         REF BY
           =====                   =======         ======
           tm_status_4             0001B47C        AutoChangeStatus_timer (main)
    -------------------------------------------------------------------------
DATA_C
  Relative segment, address: CODE_AREA 0001B484 - 0001B4AF (0x2c bytes), align: 2
  Segment part 376. ROOT.
           ENTRY                   ADDRESS         REF BY
           =====                   =======         ======
           cfghdra1_9              0001B484 
    -------------------------------------------------------------------------
DATA_C
  Relative segment, address: CODE_AREA 0001B4B0 - 0001B4B3 (0x4 bytes), align: 2
  Segment part 377. ROOT.
           ENTRY                   ADDRESS         REF BY
           =====                   =======         ======
           status_5                0001B4B0        AutoChangeStatus_timer (main)
    -------------------------------------------------------------------------
DATA_C
  Relative segment, address: CODE_AREA 0001B4B4 - 0001B653 (0x1a0 bytes), align: 2
  Segment part 378. ROOT.
           ENTRY                   ADDRESS         REF BY
           =====                   =======         ======
           cfgcboxa1_17            0001B4B4 
    -------------------------------------------------------------------------
DATA_C
  Relative segment, address: CODE_AREA 0001B654 - 0001B67F (0x2c bytes), align: 2
  Segment part 379. ROOT.
           ENTRY                   ADDRESS         REF BY
           =====                   =======         ======
           cfghdra1_14             0001B654 
    -------------------------------------------------------------------------
DATA_C
  Relative segment, address: CODE_AREA 0001B680 - 0001B687 (0x8 bytes), align: 2
  Segment part 380. ROOT.
           ENTRY                   ADDRESS         REF BY
           =====                   =======         ======
           tm_status_5             0001B680        AutoChangeStatus_timer (main)
    -------------------------------------------------------------------------
DATA_C
  Relative segment, address: CODE_AREA 0001B688 - 0001B6B3 (0x2c bytes), align: 2
  Segment part 381. ROOT.
           ENTRY                   ADDRESS         REF BY
           =====                   =======         ======
           cfghdra0                0001B688 
    -------------------------------------------------------------------------
DATA_C
  Relative segment, address: CODE_AREA 0001B6B4 - 0001B6DF (0x2c bytes), align: 2
  Segment part 382. ROOT.
           ENTRY                   ADDRESS         REF BY
           =====                   =======         ======
           cfghdr_91               0001B6B4 
    -------------------------------------------------------------------------
DATA_C
  Relative segment, address: CODE_AREA 0001B6E0 - 0001B70B (0x2c bytes), align: 2
  Segment part 383. ROOT.
           ENTRY                   ADDRESS         REF BY
           =====                   =======         ======
           cfghdr9_1               0001B6E0 
    -------------------------------------------------------------------------
DATA_C
  Relative segment, address: CODE_AREA 0001B70C - 0001B70F (0x4 bytes), align: 2
  Segment part 384. ROOT.
           ENTRY                   ADDRESS         REF BY
           =====                   =======         ======
           isScreenSaverEna        0001B70C 
    -------------------------------------------------------------------------
DATA_C
  Relative segment, address: CODE_AREA 0001B710 - 0001B74F (0x40 bytes), align: 2
  Segment part 385. ROOT.
           ENTRY                   ADDRESS         REF BY
           =====                   =======         ======
           cfgcbox9_2              0001B710 
    -------------------------------------------------------------------------
DATA_C
  Relative segment, address: CODE_AREA 0001B750 - 0001B77B (0x2c bytes), align: 2
  Segment part 386. ROOT.
           ENTRY                   ADDRESS         REF BY
           =====                   =======         ======
           cfghdr9_3               0001B750 
    -------------------------------------------------------------------------
DATA_C
  Relative segment, address: CODE_AREA 0001B77C - 0001B77F (0x4 bytes), align: 2
  Segment part 387. ROOT.
           ENTRY                   ADDRESS         REF BY
           =====                   =======         ======
           screenSaverTime         0001B77C 
    -------------------------------------------------------------------------
DATA_C
  Relative segment, address: CODE_AREA 0001B780 - 0001B7AB (0x2c bytes), align: 2
  Segment part 388. ROOT.
           ENTRY                   ADDRESS         REF BY
           =====                   =======         ======
           cfghdr_90               0001B780 
    -------------------------------------------------------------------------
DATA_C
  Relative segment, address: CODE_AREA 0001B7AC - 0001B7D7 (0x2c bytes), align: 2
  Segment part 389. ROOT.
           ENTRY                   ADDRESS         REF BY
           =====                   =======         ======
           cfghdr_51               0001B7AC 
    -------------------------------------------------------------------------
DATA_C
  Relative segment, address: CODE_AREA 0001B7D8 - 0001B803 (0x2c bytes), align: 2
  Segment part 390. ROOT.
           ENTRY                   ADDRESS         REF BY
           =====                   =======         ======
           cfghdr51_0              0001B7D8 
    -------------------------------------------------------------------------
DATA_C
  Relative segment, address: CODE_AREA 0001B804 - 0001B807 (0x4 bytes), align: 2
  Segment part 391. ROOT.
           ENTRY                   ADDRESS         REF BY
           =====                   =======         ======
           PopupShow               0001B804        ProcessPacket (main)
    -------------------------------------------------------------------------
DATA_C
  Relative segment, address: CODE_AREA 0001B808 - 0001B887 (0x80 bytes), align: 2
  Segment part 392. ROOT.
           ENTRY                   ADDRESS         REF BY
           =====                   =======         ======
           cfgcbox51_2             0001B808 
    -------------------------------------------------------------------------
DATA_C
  Relative segment, address: CODE_AREA 0001B888 - 0001B8B3 (0x2c bytes), align: 2
  Segment part 393. ROOT.
           ENTRY                   ADDRESS         REF BY
           =====                   =======         ======
           cfghdr51_1              0001B888 
    -------------------------------------------------------------------------
DATA_C
  Relative segment, address: CODE_AREA 0001B8B4 - 0001B8BF (0xc bytes), align: 2
  Segment part 394. ROOT.
           ENTRY                   ADDRESS         REF BY
           =====                   =======         ======
           PopupMsgString          0001B8B4        ProcessPacket (main)
    -------------------------------------------------------------------------
DATA_C
  Relative segment, address: CODE_AREA 0001B8C0 - 0001B8EB (0x2c bytes), align: 2
  Segment part 395. ROOT.
           ENTRY                   ADDRESS         REF BY
           =====                   =======         ======
           cfghdr51_2              0001B8C0 
    -------------------------------------------------------------------------
DATA_C
  Relative segment, address: CODE_AREA 0001B8EC - 0001B8F7 (0xc bytes), align: 2
  Segment part 396. ROOT.
           ENTRY                   ADDRESS         REF BY
           =====                   =======         ======
           PopupOnlineString       0001B8EC        ProcessPacket (main)
    -------------------------------------------------------------------------
DATA_C
  Relative segment, address: CODE_AREA 0001B8F8 - 0001B923 (0x2c bytes), align: 2
  Segment part 397. ROOT.
           ENTRY                   ADDRESS         REF BY
           =====                   =======         ======
           cfghdr51_3              0001B8F8 
    -------------------------------------------------------------------------
DATA_C
  Relative segment, address: CODE_AREA 0001B924 - 0001B927 (0x4 bytes), align: 2
  Segment part 398. ROOT.
           ENTRY                   ADDRESS         REF BY
           =====                   =======         ======
           PopupFont               0001B924        Segment part 426 (main)
    -------------------------------------------------------------------------
DATA_C
  Relative segment, address: CODE_AREA 0001B928 - 0001B953 (0x2c bytes), align: 2
  Segment part 399. ROOT.
           ENTRY                   ADDRESS         REF BY
           =====                   =======         ======
           cfghdr51_6              0001B928 
    -------------------------------------------------------------------------
DATA_C
  Relative segment, address: CODE_AREA 0001B954 - 0001B957 (0x4 bytes), align: 2
  Segment part 400. ROOT.
           ENTRY                   ADDRESS         REF BY
           =====                   =======         ======
           PopupBGCl               0001B954        Segment part 428 (main)
    -------------------------------------------------------------------------
DATA_C
  Relative segment, address: CODE_AREA 0001B958 - 0001B983 (0x2c bytes), align: 2
  Segment part 401. ROOT.
           ENTRY                   ADDRESS         REF BY
           =====                   =======         ======
           cfghdr51_4              0001B958 
    -------------------------------------------------------------------------
DATA_C
  Relative segment, address: CODE_AREA 0001B984 - 0001B987 (0x4 bytes), align: 2
  Segment part 402. ROOT.
           ENTRY                   ADDRESS         REF BY
           =====                   =======         ======
           PopupOnlineCl           0001B984        show_on_contact (main)
    -------------------------------------------------------------------------
DATA_C
  Relative segment, address: CODE_AREA 0001B988 - 0001B9B3 (0x2c bytes), align: 2
  Segment part 403. ROOT.
           ENTRY                   ADDRESS         REF BY
           =====                   =======         ======
           cfghdr51_5              0001B988 
    -------------------------------------------------------------------------
DATA_C
  Relative segment, address: CODE_AREA 0001B9B4 - 0001B9B7 (0x4 bytes), align: 2
  Segment part 404. ROOT.
           ENTRY                   ADDRESS         REF BY
           =====                   =======         ======
           PopupMsgCl              0001B9B4        show_pp_sender (main)
    -------------------------------------------------------------------------
DATA_C
  Relative segment, address: CODE_AREA 0001B9B8 - 0001B9E3 (0x2c bytes), align: 2
  Segment part 405. ROOT.
           ENTRY                   ADDRESS         REF BY
           =====                   =======         ======
           cfghdr51_9              0001B9B8 
    -------------------------------------------------------------------------
DATA_C
  Relative segment, address: CODE_AREA 0001B9E4 - 0001B9E7 (0x4 bytes), align: 2
  Segment part 406. ROOT.
           ENTRY                   ADDRESS         REF BY
           =====                   =======         ======
           isPopupOff              0001B9E4        show_off_contact (main)
    -------------------------------------------------------------------------
DATA_C
  Relative segment, address: CODE_AREA 0001B9E8 - 0001BA13 (0x2c bytes), align: 2
  Segment part 407. ROOT.
           ENTRY                   ADDRESS         REF BY
           =====                   =======         ======
           cfghdr51_7              0001B9E8 
    -------------------------------------------------------------------------
DATA_C
  Relative segment, address: CODE_AREA 0001BA14 - 0001BA17 (0x4 bytes), align: 2
  Segment part 408. ROOT.
           ENTRY                   ADDRESS         REF BY
           =====                   =======         ======
           PopupOffBGCl            0001BA14        show_off_contact (main)
    -------------------------------------------------------------------------
DATA_C
  Relative segment, address: CODE_AREA 0001BA18 - 0001BA43 (0x2c bytes), align: 2
  Segment part 409. ROOT.
           ENTRY                   ADDRESS         REF BY
           =====                   =======         ======
           cfghdr51_8              0001BA18 
    -------------------------------------------------------------------------
DATA_C
  Relative segment, address: CODE_AREA 0001BA44 - 0001BA47 (0x4 bytes), align: 2
  Segment part 410. ROOT.
           ENTRY                   ADDRESS         REF BY
           =====                   =======         ======
           PopupOffCl              0001BA44        show_off_contact (main)
    -------------------------------------------------------------------------
DATA_C
  Relative segment, address: CODE_AREA 0001BA48 - 0001BA73 (0x2c bytes), align: 2
  Segment part 411. ROOT.
           ENTRY                   ADDRESS         REF BY
           =====                   =======         ======
           cfghdr_50               0001BA48 
    -------------------------------------------------------------------------
DATA_C
  Relative segment, address: CODE_AREA 0001BA74 - 0001BA9F (0x2c bytes), align: 2
  Segment part 412. ROOT.
           ENTRY                   ADDRESS         REF BY
           =====                   =======         ======
           cfghdr_m51              0001BA74 
    -------------------------------------------------------------------------
DATA_C
  Relative segment, address: CODE_AREA 0001BAA0 - 0001BACB (0x2c bytes), align: 2
  Segment part 413. ROOT.
           ENTRY                   ADDRESS         REF BY
           =====                   =======         ======
           cfghdr65                0001BAA0 
    -------------------------------------------------------------------------
DATA_C
  Relative segment, address: CODE_AREA 0001BACC - 0001BACF (0x4 bytes), align: 2
  Segment part 414. ROOT.
           ENTRY                   ADDRESS         REF BY
           =====                   =======         ======
           Vibra_cc                0001BACC        Remind_Timer2 (main)
    -------------------------------------------------------------------------
DATA_C
  Relative segment, address: CODE_AREA 0001BAD0 - 0001BAFB (0x2c bytes), align: 2
  Segment part 415. ROOT.
           ENTRY                   ADDRESS         REF BY
           =====                   =======         ======
           cfghdr66                0001BAD0 
    -------------------------------------------------------------------------
DATA_C
  Relative segment, address: CODE_AREA 0001BAFC - 0001BB07 (0xc bytes), align: 2
  Segment part 416. ROOT.
           ENTRY                   ADDRESS         REF BY
           =====                   =======         ======
           CsmAdr                  0001BAFC        initTags (player_tags)
    -------------------------------------------------------------------------
DATA_C
  Relative segment, address: CODE_AREA 0001BB08 - 0001BB33 (0x2c bytes), align: 2
  Segment part 417. ROOT.
           ENTRY                   ADDRESS         REF BY
           =====                   =======         ======
           cfghdr67                0001BB08 
    -------------------------------------------------------------------------
DATA_C
  Relative segment, address: CODE_AREA 0001BB34 - 0001BB53 (0x20 bytes), align: 2
  Segment part 418. ROOT.
           ENTRY                   ADDRESS         REF BY
           =====                   =======         ======
           playing                 0001BB34        set_my_xstatus2 (main)
    -------------------------------------------------------------------------
DATA_C
  Relative segment, address: CODE_AREA 0001BB54 - 0001BB7F (0x2c bytes), align: 2
  Segment part 419. ROOT.
           ENTRY                   ADDRESS         REF BY
           =====                   =======         ======
           cfghdr7820              0001BB54 
    -------------------------------------------------------------------------
DATA_C
  Relative segment, address: CODE_AREA 0001BB80 - 0001BB83 (0x4 bytes), align: 2
  Segment part 420. ROOT.
           ENTRY                   ADDRESS         REF BY
           =====                   =======         ======
           Is_ID3_ANY_STATUS       0001BB80        GetTags (player_tags)
                                                   set_my_xstatus (main)
    -------------------------------------------------------------------------
DATA_C
  Relative segment, address: CODE_AREA 0001BB84 - 0001BBAF (0x2c bytes), align: 2
  Segment part 421. ROOT.
           ENTRY                   ADDRESS         REF BY
           =====                   =======         ======
           cfghdr780               0001BB84 
    -------------------------------------------------------------------------
DATA_C
  Relative segment, address: CODE_AREA 0001BBB0 - 0001BBB3 (0x4 bytes), align: 2
  Segment part 422. ROOT.
           ENTRY                   ADDRESS         REF BY
           =====                   =======         ======
           show_send_info          0001BBB0        CheckComand (main)
    -------------------------------------------------------------------------
DATA_C
  Relative segment, address: CODE_AREA 0001BBB4 - 0001BBDF (0x2c bytes), align: 2
  Segment part 423. ROOT.
           ENTRY                   ADDRESS         REF BY
           =====                   =======         ======
           cfghdr7_80              0001BBB4 
    -------------------------------------------------------------------------
DATA_C
  Relative segment, address: CODE_AREA 0001BBE0 - 0001BBE3 (0x4 bytes), align: 2
  Segment part 424. ROOT.
           ENTRY                   ADDRESS         REF BY
           =====                   =======         ======
           isLogStatusChange       0001BBE0        Segment part 438 (main)
                                                   Segment part 544 (main)
    -------------------------------------------------------------------------
DATA_C
  Relative segment, address: CODE_AREA 0001BBE4 - 0001BC0F (0x2c bytes), align: 2
  Segment part 425. ROOT.
           ENTRY                   ADDRESS         REF BY
           =====                   =======         ======
           cfghdr71_30             0001BBE4 
    -------------------------------------------------------------------------
DATA_C
  Relative segment, address: CODE_AREA 0001BC10 - 0001BC13 (0x4 bytes), align: 2
  Segment part 426. ROOT.
           ENTRY                   ADDRESS         REF BY
           =====                   =======         ======
           IsShowLoopback          0001BC10        maincsm_onmessage (main)
    -------------------------------------------------------------------------
DATA_C
  Relative segment, address: CODE_AREA 0001BC14 - 0001BC3F (0x2c bytes), align: 2
  Segment part 427. ROOT.
           ENTRY                   ADDRESS         REF BY
           =====                   =======         ======
           cfghdr71_31             0001BC14 
    -------------------------------------------------------------------------
DATA_C
  Relative segment, address: CODE_AREA 0001BC40 - 0001BC43 (0x4 bytes), align: 2
  Segment part 428. ROOT.
           ENTRY                   ADDRESS         REF BY
           =====                   =======         ======
           IsOpenBrowser           0001BC40        edchat_onkey (main)
    -------------------------------------------------------------------------
DATA_C
  Relative segment, address: CODE_AREA 0001BC44 - 0001BC6F (0x2c bytes), align: 2
  Segment part 429. ROOT.
           ENTRY                   ADDRESS         REF BY
           =====                   =======         ======
           cfghdr71_33             0001BC44 
    -------------------------------------------------------------------------
DATA_C
  Relative segment, address: CODE_AREA 0001BC70 - 0001BC73 (0x4 bytes), align: 2
  Segment part 430. ROOT.
           ENTRY                   ADDRESS         REF BY
           =====                   =======         ======
           IsMultiBuffer           0001BC70        Segment part 671 (main)
                                                   Segment part 693 (main)
    -------------------------------------------------------------------------
DATA_C
  Relative segment, address: CODE_AREA 0001BC74 - 0001BC9F (0x2c bytes), align: 2
  Segment part 431. ROOT.
           ENTRY                   ADDRESS         REF BY
           =====                   =======         ======
           cfghdr_m50              0001BC74 
    -------------------------------------------------------------------------
DATA_C
  Relative segment, address: CODE_AREA 0001BCA0 - 0001BCCB (0x2c bytes), align: 2
  Segment part 432. ROOT.
           ENTRY                   ADDRESS         REF BY
           =====                   =======         ======
           cfghdr_q1               0001BCA0 
    -------------------------------------------------------------------------
DATA_C
  Relative segment, address: CODE_AREA 0001BCCC - 0001BCF7 (0x2c bytes), align: 2
  Segment part 433. ROOT.
           ENTRY                   ADDRESS         REF BY
           =====                   =======         ======
           cfghdr_s2               0001BCCC 
    -------------------------------------------------------------------------
DATA_C
  Relative segment, address: CODE_AREA 0001BCF8 - 0001BCFF (0x8 bytes), align: 2
  Segment part 434. ROOT.
           ENTRY                   ADDRESS         REF BY
           =====                   =======         ======
           PBRECT                  0001BCF8        DrawLoadScreen (main)
    -------------------------------------------------------------------------
DATA_C
  Relative segment, address: CODE_AREA 0001BD00 - 0001BD2B (0x2c bytes), align: 2
  Segment part 435. ROOT.
           ENTRY                   ADDRESS         REF BY
           =====                   =======         ======
           cfghdr_s3               0001BD00 
    -------------------------------------------------------------------------
DATA_C
  Relative segment, address: CODE_AREA 0001BD2C - 0001BD2F (0x4 bytes), align: 2
  Segment part 436. ROOT.
           ENTRY                   ADDRESS         REF BY
           =====                   =======         ======
           PBcolor                 0001BD2C        DrawLoadScreen (main)
    -------------------------------------------------------------------------
DATA_C
  Relative segment, address: CODE_AREA 0001BD30 - 0001BD5B (0x2c bytes), align: 2
  Segment part 437. ROOT.
           ENTRY                   ADDRESS         REF BY
           =====                   =======         ======
           cfghdr_s7               0001BD30 
    -------------------------------------------------------------------------
DATA_C
  Relative segment, address: CODE_AREA 0001BD5C - 0001BD5F (0x4 bytes), align: 2
  Segment part 438. ROOT.
           ENTRY                   ADDRESS         REF BY
           =====                   =======         ======
           BGPBcolor               0001BD5C        DrawLoadScreen (main)
    -------------------------------------------------------------------------
DATA_C
  Relative segment, address: CODE_AREA 0001BD60 - 0001BD8B (0x2c bytes), align: 2
  Segment part 439. ROOT.
           ENTRY                   ADDRESS         REF BY
           =====                   =======         ======
           cfghdr_s4               0001BD60 
    -------------------------------------------------------------------------
DATA_C
  Relative segment, address: CODE_AREA 0001BD8C - 0001BD8F (0x4 bytes), align: 2
  Segment part 440. ROOT.
           ENTRY                   ADDRESS         REF BY
           =====                   =======         ======
           IsInvertSoftKey         0001BD8C        Segment part 582 (main)
    -------------------------------------------------------------------------
DATA_C
  Relative segment, address: CODE_AREA 0001BD90 - 0001BDCF (0x40 bytes), align: 2
  Segment part 441. ROOT.
           ENTRY                   ADDRESS         REF BY
           =====                   =======         ======
           cfgcbox_s5              0001BD90 
    -------------------------------------------------------------------------
DATA_C
  Relative segment, address: CODE_AREA 0001BDD0 - 0001BDFB (0x2c bytes), align: 2
  Segment part 442. ROOT.
           ENTRY                   ADDRESS         REF BY
           =====                   =======         ======
           cfghdr_s6               0001BDD0 
    -------------------------------------------------------------------------
DATA_C
  Relative segment, address: CODE_AREA 0001BDFC - 0001BDFF (0x4 bytes), align: 2
  Segment part 443. ROOT.
           ENTRY                   ADDRESS         REF BY
           =====                   =======         ======
           IsShowInfo              0001BDFC        DrawLoadScreen (main)
    -------------------------------------------------------------------------
DATA_C
  Relative segment, address: CODE_AREA 0001BE00 - 0001BE3F (0x40 bytes), align: 2
  Segment part 444. ROOT.
           ENTRY                   ADDRESS         REF BY
           =====                   =======         ======
           cfgcbox_s7              0001BE00 
    -------------------------------------------------------------------------
DATA_C
  Relative segment, address: CODE_AREA 0001BE40 - 0001BE6B (0x2c bytes), align: 2
  Segment part 445. ROOT.
           ENTRY                   ADDRESS         REF BY
           =====                   =======         ======
           cfghdr_q0               0001BE40 
    -------------------------------------------------------------------------
DATA_C
  Relative segment, address: CODE_AREA 0001BE6C - 0001BE97 (0x2c bytes), align: 2
  Segment part 446. ROOT.
           ENTRY                   ADDRESS         REF BY
           =====                   =======         ======
           cfghdrL_1               0001BE6C 
    -------------------------------------------------------------------------
DATA_C
  Relative segment, address: CODE_AREA 0001BE98 - 0001BEC3 (0x2c bytes), align: 2
  Segment part 447. ROOT.
           ENTRY                   ADDRESS         REF BY
           =====                   =======         ======
           cfghdrL_2               0001BE98 
    -------------------------------------------------------------------------
DATA_C
  Relative segment, address: CODE_AREA 0001BEC4 - 0001BEC7 (0x4 bytes), align: 2
  Segment part 448. ROOT.
           ENTRY                   ADDRESS         REF BY
           =====                   =======         ======
           IsLogEna                0001BEC4        LogStatusChange2 (history)
    -------------------------------------------------------------------------
DATA_C
  Relative segment, address: CODE_AREA 0001BEC8 - 0001BEF3 (0x2c bytes), align: 2
  Segment part 449. ROOT.
           ENTRY                   ADDRESS         REF BY
           =====                   =======         ======
           cfghdrL_5               0001BEC8 
    -------------------------------------------------------------------------
DATA_C
  Relative segment, address: CODE_AREA 0001BEF4 - 0001BEF7 (0x4 bytes), align: 2
  Segment part 450. ROOT.
           ENTRY                   ADDRESS         REF BY
           =====                   =======         ======
           _fontlog                0001BEF4        onCreate (history)
    -------------------------------------------------------------------------
DATA_C
  Relative segment, address: CODE_AREA 0001BEF8 - 0001BF23 (0x2c bytes), align: 2
  Segment part 451. ROOT.
           ENTRY                   ADDRESS         REF BY
           =====                   =======         ======
           cfghdrL_3               0001BEF8 
    -------------------------------------------------------------------------
DATA_C
  Relative segment, address: CODE_AREA 0001BF24 - 0001BF27 (0x4 bytes), align: 2
  Segment part 452. ROOT.
           ENTRY                   ADDRESS         REF BY
           =====                   =======         ======
           BGLog                   0001BF24        OnRedraw (history)
    -------------------------------------------------------------------------
DATA_C
  Relative segment, address: CODE_AREA 0001BF28 - 0001BF53 (0x2c bytes), align: 2
  Segment part 453. ROOT.
           ENTRY                   ADDRESS         REF BY
           =====                   =======         ======
           cfghdrL_4               0001BF28 
    -------------------------------------------------------------------------
DATA_C
  Relative segment, address: CODE_AREA 0001BF54 - 0001BF57 (0x4 bytes), align: 2
  Segment part 454. ROOT.
           ENTRY                   ADDRESS         REF BY
           =====                   =======         ======
           FontClrLog              0001BF54        DrawList (history)
    -------------------------------------------------------------------------
DATA_C
  Relative segment, address: CODE_AREA 0001BF58 - 0001BF83 (0x2c bytes), align: 2
  Segment part 455. ROOT.
           ENTRY                   ADDRESS         REF BY
           =====                   =======         ======
           cfghdL_0                0001BF58 
    -------------------------------------------------------------------------
DATA_C
  Relative segment, address: CODE_AREA 0001BF84 - 0001BFAF (0x2c bytes), align: 2
  Segment part 456. ROOT.
           ENTRY                   ADDRESS         REF BY
           =====                   =======         ======
           cfghdrIn_1              0001BF84 
    -------------------------------------------------------------------------
DATA_C
  Relative segment, address: CODE_AREA 0001BFB0 - 0001BFDB (0x2c bytes), align: 2
  Segment part 457. ROOT.
           ENTRY                   ADDRESS         REF BY
           =====                   =======         ======
           cfghdrIn_2              0001BFB0 
    -------------------------------------------------------------------------
DATA_C
  Relative segment, address: CODE_AREA 0001BFDC - 0001BFDF (0x4 bytes), align: 2
  Segment part 458. ROOT.
           ENTRY                   ADDRESS         REF BY
           =====                   =======         ======
           BGInfo                  0001BFDC        reftes (screen_save)
    -------------------------------------------------------------------------
DATA_C
  Relative segment, address: CODE_AREA 0001BFE0 - 0001C00B (0x2c bytes), align: 2
  Segment part 459. ROOT.
           ENTRY                   ADDRESS         REF BY
           =====                   =======         ======
           cfghdrIn_3              0001BFE0 
    -------------------------------------------------------------------------
DATA_C
  Relative segment, address: CODE_AREA 0001C00C - 0001C00F (0x4 bytes), align: 2
  Segment part 460. ROOT.
           ENTRY                   ADDRESS         REF BY
           =====                   =======         ======
           FontClrInfo             0001C00C        Segment part 27 (screen_save)
    -------------------------------------------------------------------------
DATA_C
  Relative segment, address: CODE_AREA 0001C010 - 0001C03B (0x2c bytes), align: 2
  Segment part 461. ROOT.
           ENTRY                   ADDRESS         REF BY
           =====                   =======         ======
           cfghdrIn_0              0001C010 
    -------------------------------------------------------------------------
DATA_C
  Relative segment, address: CODE_AREA 0001C03C - 0001C067 (0x2c bytes), align: 2
  Segment part 462. ROOT.
           ENTRY                   ADDRESS         REF BY
           =====                   =======         ======
           cfghdr11_10             0001C03C 
    -------------------------------------------------------------------------
DATA_C
  Relative segment, address: CODE_AREA 0001C068 - 0001C087 (0x20 bytes), align: 2
  Segment part 463. ROOT.
           ENTRY                   ADDRESS         REF BY
           =====                   =======         ======
           I_str                   0001C068        Segment part 413 (main)
                                                   Segment part 725 (main)
                                                   Segment part 729 (main)
    -------------------------------------------------------------------------
DATA_C
  Relative segment, address: CODE_AREA 0001C088 - 0001C0B3 (0x2c bytes), align: 2
  Segment part 464. ROOT.
           ENTRY                   ADDRESS         REF BY
           =====                   =======         ======
           cfghdr11_9              0001C088 
    -------------------------------------------------------------------------
DATA_C
  Relative segment, address: CODE_AREA 0001C0B4 - 0001C1B3 (0x100 bytes), align: 2
  Segment part 465. ROOT.
           ENTRY                   ADDRESS         REF BY
           =====                   =======         ======
           ignor_list              0001C0B4        Segment part 343 (main)
                                                   Segment part 416 (main)

    *************************************************************************

  FILE NAME : D:\pasha\elf\_MY_PROJECT_\naticq_mod2\Release\Obj\configs.r79
  PROGRAM MODULE, NAME : configs

  SEGMENTS IN THE MODULE
  ======================
DATA_I
  Relative segment, address: DATA_AREA 000003B4 - 000003B6 (0x3 bytes), align: 0
  Segment part 5.             Intra module refs:   UpdateConfig
           ENTRY                   ADDRESS         REF BY
           =====                   =======         ======
           per_s                   000003B4        CheckComand2 (addon)
    -------------------------------------------------------------------------
CODE
  Relative segment, address: CODE_AREA 00001740 - 00001A9F (0x360 bytes), align: 2
  Segment part 8.
           ENTRY                   ADDRESS         REF BY
           =====                   =======         ======
           UpdateConfig            00001740        main (main)
                                                   maincsm_onmessage (main)
               stack 1 = 00000000 ( 0000001C )
    -------------------------------------------------------------------------
DATA_Z
  Relative segment, address: CODE_AREA 0001E4E4 - 0001E9BF (0x4dc bytes), align: 2
  Segment part 4.             Intra module refs:   Segment part 13
           ENTRY                   ADDRESS         REF BY
           =====                   =======         ======
           ACK_COLOR               0001E5E4        Segment part 367 (main)
                                                   Segment part 703 (main)
           DEVELOP_IF              0001E590        ProcessPacket (main)
           ED_FONT_SIZE            0001E5CC        Segment part 363 (main)
                                                   Segment part 714 (main)
           ED_H_FONT_SIZE          0001E5D0        Segment part 374 (main)
                                                   Segment part 701 (main)
           ED_X_FONT_SIZE          0001E5D4        Segment part 364 (main)
                                                   Segment part 713 (main)
           ENA_AUTO_XTXT           0001E5EC        ProcessPacket (main)
           FIRST_LETTER            0001E59C        CreateEditChat (main)
           HISTORY_BUFFER          0001E5F8        Segment part 353 (main)
                                                   Segment part 441 (main)
                                                   Segment part 563 (main)
           HISTORY_TYPE            0001E5A4        OpenLogfile (main)
                                                   Segment part 39 (history)
           HIST_PATH               0001E8C0        OpenLogfile (main)
                                                   Segment part 38 (history)
           ICON_PATH               0001E800        Segment part 230 (main)
           IDLEICON_X              0001E5AC        maincsm_onmessage (main)
           IDLEICON_Y              0001E5B0        maincsm_onmessage (main)
           ILL_DISP_RECV           0001E5FC        ProcessPacket (main)
           ILL_DISP_SEND           0001E608        ProcessPacket (main)
           ILL_KEYS_RECV           0001E600        ProcessPacket (main)
           ILL_KEYS_SEND           0001E60C        ProcessPacket (main)
           ILL_OFF_FADE            0001E61C        IlluminationOff (main)
           ILL_RECV_FADE           0001E618        ProcessPacket (main)
           ILL_RECV_TMR            0001E604        ProcessPacket (main)
           ILL_SEND_FADE           0001E614 
           ILL_SEND_TMR            0001E610        ProcessPacket (main)
           I_COLOR                 0001E5B4        Segment part 371 (main)
                                                   Segment part 702 (main)
           LOG_ALL                 0001E594        Add2History (history)
           LOG_STATCH              0001E598        LogStatusChange (history)
           LOG_XTXT                0001E5F4        AddStringToLog (main)
           NATICQ_HOST             0001E900        create_connect (main)
           NATICQ_PORT             0001E624        GetPort (main)
           NOT_LOG_SAME_XTXT       0001E5F0        AddStringToLog (main)
           O_ED_FONT_SIZE          0001E5D8        Segment part 362 (main)
                                                   Segment part 709 (main)
           O_ED_H_FONT_SIZE        0001E5DC        Segment part 373 (main)
                                                   Segment part 706 (main)
           O_ED_X_FONT_SIZE        0001E5E0        Segment part 359 (main)
                                                   Segment part 712 (main)
           O_I_COLOR               0001E5C0        Segment part 369 (main)
                                                   Segment part 704 (main)
           O_TO_COLOR              0001E5C4        Segment part 368 (main)
                                                   Segment part 705 (main)
           O_X_COLOR               0001E5C8        Segment part 361 (main)
                                                   Segment part 710 (main)
           PASS                    0001E634        aa (auth)
           RECONNECT_TIME          0001E628        Segment part 319 (main)
                                                   Segment part 630 (main)
           SMILE_FILE              0001E780        Segment part 17 (smiles_loader)
           SMILE_PATH              0001E840        ProcessNextSmile (smiles_loader)
           SORT_CLIST              0001E5A0        CompareContacts (cl_work)
           TEMPLATES_PATH          0001E7C0        LoadLocalCL (cl_work)
                                                   LoadMenuLang (mainmenu)
                                                   Segment part 288 (main)
                                                   Segment part 394 (main)
                                                   Segment part 55 (history)
                                                   Segment part 598 (main)
                                                   Segment part 692 (main)
                                                   Segment part 98 (status_change)
           TO_COLOR                0001E5B8        Segment part 370 (main)
                                                   Segment part 707 (main)
           UIN                     0001E584        Draw5 (screen_save)
                                                   FindContactByNS (cl_work)
                                                   Segment part 289 (main)
                                                   Segment part 334 (main)
                                                   Segment part 41 (history)
                                                   Segment part 600 (main)
                                                   Segment part 644 (main)
                                                   Segment part 733 (main)
                                                   ab (auth)
           UNACK_COLOR             0001E5E8        Segment part 372 (main)
                                                   Segment part 708 (main)
           VIBR_ON_CONNECT         0001E588        Segment part 437 (main)
                                                   Segment part 627 (main)
           VIBR_TYPE               0001E58C        CheckComand2 (addon)
                                                   Segment part 258 (main)
                                                   Segment part 442 (main)
           XSTATUSES_PATH          0001E880        Segment part 28 (smiles_loader)
                                                   XStatusToIMGHDR (main)
           X_COLOR                 0001E5BC        Segment part 360 (main)
                                                   Segment part 711 (main)
           addonuin                0001E4E4 
           sndGlobal               0001E6C0        ProcessPacket (main)
           sndMsg                  0001E700        get_answer (main)
           sndMsgSent              0001E740        get_answer (main)
           sndSrvMsg               0001E680        ProcessPacket (main)
           sndStartup              0001E640        get_answer (main)
           sndVolume               0001E620        Play (main)
           suc_config_name         0001E980        EditConfig (mainmenu)
                                                   Segment part 300 (main)
                                                   Segment part 645 (main)
           temp_chars              0001E62C 
           temp_lines              0001E630 
           vibraPower              0001E5A8        Segment part 255 (main)
    -------------------------------------------------------------------------
CODE
  Relative segment, address: CODE_AREA 00001AA0 - 00001AA3 (0x4 bytes), align: 2
  Segment part 13.            Intra module refs:   UpdateConfig
    -------------------------------------------------------------------------
DATA_ID
  Relative segment, address: CODE_AREA 000003B4 - 000003B6 (0x3 bytes), align: 0
  Segment part 6.             Intra module refs:   per_s
    -------------------------------------------------------------------------
INITTAB
  Relative segment, address: CODE_AREA 0001E4D8 - 0001E4E3 (0xc bytes), align: 2
  Segment part 21. ROOT.
           ENTRY                   ADDRESS         REF BY
           =====                   =======         ======
           ?init?tab?DATA_Z        0001E4D8 
    -------------------------------------------------------------------------
DATA_C
  Relative segment, address: CODE_AREA 0001C1B4 - 0001C1FF (0x4c bytes), align: 2
  Segment part 2.             Intra module refs:   UpdateConfig

    *************************************************************************

  FILE NAME : D:\pasha\elf\_MY_PROJECT_\naticq_mod2\Release\Obj\func.r79
  PROGRAM MODULE, NAME : func

Absolute parts
           ENTRY                   ADDRESS         REF BY
           =====                   =======         ======
           PickingOff              AD888888 
  SEGMENTS IN THE MODULE
  ======================
ELFBEGIN
  Relative segment, address: CODE_AREA 00000000, align: 0
  Segment part 0. ROOT.
           ENTRY                   ADDRESS         REF BY
           =====                   =======         ======
           ELF_BEGIN               00000000        ElfKiller (main)
    -------------------------------------------------------------------------
CODE
  Relative segment, address: CODE_AREA 00001AA4 - 00001AA7 (0x4 bytes), align: 2
  Segment part 1. ROOT.
           ENTRY                   ADDRESS         REF BY
           =====                   =======         ======
           kill_data               00001AA4        ElfKiller (main)
                                                   I_gui_methods (main)
                                                   MM_Canvas (mainmenu)
                                                   Segment part 13 (history)
                                                   Segment part 15 (main)
                                                   Segment part 15 (screen_save)
                                                   Segment part 2 (select_smile)
                                                   Segment part 29 (status_change)
                                                   Segment part 44 (status_change)

    *************************************************************************

  FILE NAME : D:\pasha\elf\_MY_PROJECT_\naticq_mod2\Release\Obj\history.r79
  PROGRAM MODULE, NAME : history

  SEGMENTS IN THE MODULE
  ======================
CODE
  Relative segment, address: CODE_AREA 00001AA8 - 00001C0B (0x164 bytes), align: 2
  Segment part 24.            Intra module refs:   Add2History
           LOCAL                   ADDRESS         
           =====                   =======         
           do_logwrite             00001AA8 
               stack 1 = 00000000 ( 0000014C )
    -------------------------------------------------------------------------
CODE
  Relative segment, address: CODE_AREA 00001C0C - 00001CA3 (0x98 bytes), align: 2
  Segment part 26.            Intra module refs:   LogStatusChange
           ENTRY                   ADDRESS         REF BY
           =====                   =======         ======
           Add2History             00001C0C        AddStringToLog (main)
               stack 1 = 00000000 ( 0000001C )
    -------------------------------------------------------------------------
CODE
  Relative segment, address: CODE_AREA 00001CA4 - 00001CE3 (0x40 bytes), align: 2
  Segment part 28.            Intra module refs:   AddFirstLOGQ
           ENTRY                   ADDRESS         REF BY
           =====                   =======         ======
           ActivateLastX           00001CA4 
    -------------------------------------------------------------------------
CODE
  Relative segment, address: CODE_AREA 00001CE4 - 00001D23 (0x40 bytes), align: 2
  Segment part 30.            Intra module refs:   GetHistory
           ENTRY                   ADDRESS         REF BY
           =====                   =======         ======
           AddFirstLOGQ            00001CE4 
               stack 1 = 00000000 ( 00000004 )
    -------------------------------------------------------------------------
CODE
  Relative segment, address: CODE_AREA 00001D24 - 00001D4B (0x28 bytes), align: 2
  Segment part 32.            Intra module refs:   CheckLOGQ
           ENTRY                   ADDRESS         REF BY
           =====                   =======         ======
           DeleteLOGQ              00001D24 
               stack 1 = 00000000 ( 00000008 )
    -------------------------------------------------------------------------
CODE
  Relative segment, address: CODE_AREA 00001D4C - 00001DB3 (0x68 bytes), align: 2
  Segment part 34.            Intra module refs:   GetHistory
           ENTRY                   ADDRESS         REF BY
           =====                   =======         ======
           CheckLOGQ               00001D4C 
               stack 1 = 00000000 ( 00000008 )
    -------------------------------------------------------------------------
CODE
  Relative segment, address: CODE_AREA 00001DB4 - 00002063 (0x2b0 bytes), align: 2
  Segment part 36.
           ENTRY                   ADDRESS         REF BY
           =====                   =======         ======
           GetHistory              00001DB4        AddStringToLog (main)
                                                   ClOnKey (main)
                                                   ProcessPacket (main)
               stack 1 = 00000000 ( 000000C4 )
    -------------------------------------------------------------------------
CODE
  Relative segment, address: CODE_AREA 00002064 - 00002067 (0x4 bytes), align: 2
  Segment part 37.            Intra module refs:   GetHistory
                                                   do_logwrite
    -------------------------------------------------------------------------
CODE
  Relative segment, address: CODE_AREA 00002068 - 0000206B (0x4 bytes), align: 2
  Segment part 38.            Intra module refs:   GetHistory
                                                   do_logwrite
    -------------------------------------------------------------------------
CODE
  Relative segment, address: CODE_AREA 0000206C - 0000206F (0x4 bytes), align: 2
  Segment part 39.            Intra module refs:   GetHistory
                                                   do_logwrite
    -------------------------------------------------------------------------
CODE
  Relative segment, address: CODE_AREA 00002070 - 00002073 (0x4 bytes), align: 2
  Segment part 40.            Intra module refs:   GetHistory
                                                   do_logwrite
    -------------------------------------------------------------------------
CODE
  Relative segment, address: CODE_AREA 00002074 - 00002077 (0x4 bytes), align: 2
  Segment part 41.            Intra module refs:   GetHistory
                                                   do_logwrite
    -------------------------------------------------------------------------
CODE
  Relative segment, address: CODE_AREA 00002078 - 000020EF (0x78 bytes), align: 2
  Segment part 43.            Intra module refs:   LogStatusChange
                                                   LogStatusChange2
           ENTRY                   ADDRESS         REF BY
           =====                   =======         ======
           GetStatusById           00002078 
               stack 1 = 00000000 ( 00000004 )
    -------------------------------------------------------------------------
CODE
  Relative segment, address: CODE_AREA 000020F0 - 000021BB (0xcc bytes), align: 2
  Segment part 45.            Intra module refs:   LogStatusChange2
           LOCAL                   ADDRESS         
           =====                   =======         
           AddToLog                000020F0 
               stack 1 = 00000000 ( 000000A8 )
    -------------------------------------------------------------------------
DATA_I
  Relative segment, address: DATA_AREA 000003B7 - 000003B9 (0x3 bytes), align: 0
  Segment part 18.            Intra module refs:   Segment part 50
           ENTRY                   ADDRESS         REF BY
           =====                   =======         ======
           _u                      000003B7 
    -------------------------------------------------------------------------
CODE
  Relative segment, address: CODE_AREA 000021BC - 0000227B (0xc0 bytes), align: 2
  Segment part 47.
           ENTRY                   ADDRESS         REF BY
           =====                   =======         ======
           LogStatusChange         000021BC        ProcessPacket (main)
               stack 1 = 00000000 ( 000000FC )
    -------------------------------------------------------------------------
CODE
  Relative segment, address: CODE_AREA 0000227C - 0000231F (0xa4 bytes), align: 2
  Segment part 49.
           ENTRY                   ADDRESS         REF BY
           =====                   =======         ======
           LogStatusChange2        0000227C        ProcessPacket (main)
               stack 1 = 00000000 ( 000000D4 )
    -------------------------------------------------------------------------
CODE
  Relative segment, address: CODE_AREA 00002320 - 00002323 (0x4 bytes), align: 2
  Segment part 50.            Intra module refs:   LogStatusChange
                                                   LogStatusChange2
    -------------------------------------------------------------------------
CODE
  Relative segment, address: CODE_AREA 00002324 - 0000235B (0x38 bytes), align: 2
  Segment part 52.            Intra module refs:   LoadLog
                                                   onClose
           ENTRY                   ADDRESS         REF BY
           =====                   =======         ======
           FreeLog                 00002324 
               stack 1 = 00000000 ( 00000008 )
    -------------------------------------------------------------------------
CODE
  Relative segment, address: CODE_AREA 0000235C - 00002487 (0x12c bytes), align: 2
  Segment part 54.            Intra module refs:   CreateLog
           LOCAL                   ADDRESS         
           =====                   =======         
           LoadLog                 0000235C 
               stack 1 = 00000000 ( 0000014C )
    -------------------------------------------------------------------------
CODE
  Relative segment, address: CODE_AREA 00002488 - 0000248B (0x4 bytes), align: 2
  Segment part 55.            Intra module refs:   AddToLog
                                                   LoadLog
    -------------------------------------------------------------------------
DATA_Z
  Relative segment, address: CODE_AREA 0001E9C0 - 0001E9D7 (0x18 bytes), align: 2
  Segment part 20.            Intra module refs:   CreateLog
                                                   Segment part 70
                                                   onCreate
    -------------------------------------------------------------------------
DATA_I
  Relative segment, address: DATA_AREA 00000018 - 0000001B (0x4 bytes), align: 2
  Segment part 21.            Intra module refs:   Segment part 71
           ENTRY                   ADDRESS         REF BY
           =====                   =======         ======
           start_x                 00000018 
    -------------------------------------------------------------------------
CODE
  Relative segment, address: CODE_AREA 0000248C - 00002663 (0x1d8 bytes), align: 2
  Segment part 57.            Intra module refs:   OnRedraw
           LOCAL                   ADDRESS         
           =====                   =======         
           DrawList                0000248C 
               stack 1 = 00000000 ( 00000084 )
    -------------------------------------------------------------------------
CODE
  Relative segment, address: CODE_AREA 00002664 - 000026B3 (0x50 bytes), align: 2
  Segment part 59.            Intra module refs:   Segment part 13
           LOCAL                   ADDRESS         
           =====                   =======         
           OnRedraw                00002664 
               stack 1 = 00000000 ( 0000001C )
    -------------------------------------------------------------------------
CODE
  Relative segment, address: CODE_AREA 000026B4 - 000026F3 (0x40 bytes), align: 2
  Segment part 61.            Intra module refs:   Segment part 13
           LOCAL                   ADDRESS         
           =====                   =======         
           onCreate                000026B4 
               stack 1 = 00000000 ( 00000008 )
    -------------------------------------------------------------------------
CODE
  Relative segment, address: CODE_AREA 000026F4 - 0000270B (0x18 bytes), align: 2
  Segment part 63.            Intra module refs:   Segment part 13
           LOCAL                   ADDRESS         
           =====                   =======         
           onClose                 000026F4 
               stack 1 = 00000000 ( 00000008 )
    -------------------------------------------------------------------------
CODE
  Relative segment, address: CODE_AREA 0000270C - 0000271F (0x14 bytes), align: 2
  Segment part 65.            Intra module refs:   Segment part 13
           LOCAL                   ADDRESS         
           =====                   =======         
           onFocus                 0000270C 
               stack 1 = 00000000 ( 00000004 )
    -------------------------------------------------------------------------
CODE
  Relative segment, address: CODE_AREA 00002720 - 00002733 (0x14 bytes), align: 2
  Segment part 67.            Intra module refs:   Segment part 13
           LOCAL                   ADDRESS         
           =====                   =======         
           onUnfocus               00002720 
    -------------------------------------------------------------------------
CODE
  Relative segment, address: CODE_AREA 00002734 - 0000281B (0xe8 bytes), align: 2
  Segment part 69.            Intra module refs:   Segment part 13
           LOCAL                   ADDRESS         
           =====                   =======         
           OnKey                   00002734 
               stack 1 = 00000000 ( 00000008 )
    -------------------------------------------------------------------------
CODE
  Relative segment, address: CODE_AREA 0000281C - 0000281F (0x4 bytes), align: 2
  Segment part 70.            Intra module refs:   DrawList
                                                   FreeLog
                                                   LoadLog
                                                   OnKey
    -------------------------------------------------------------------------
CODE
  Relative segment, address: CODE_AREA 00002820 - 00002823 (0x4 bytes), align: 2
  Segment part 71.            Intra module refs:   DrawList
                                                   OnKey
                                                   onCreate
    -------------------------------------------------------------------------
CODE
  Relative segment, address: CODE_AREA 00002824 - 0000282B (0x8 bytes), align: 2
  Segment part 73.            Intra module refs:   Segment part 13
           LOCAL                   ADDRESS         
           =====                   =======         
           method8                 00002824 
    -------------------------------------------------------------------------
CODE
  Relative segment, address: CODE_AREA 0000282C - 00002833 (0x8 bytes), align: 2
  Segment part 75.            Intra module refs:   Segment part 13
           LOCAL                   ADDRESS         
           =====                   =======         
           method9                 0000282C 
    -------------------------------------------------------------------------
DATA_C
  Relative segment, address: CODE_AREA 0001C200 - 0001C27B (0x7c bytes), align: 2
  Segment part 2.             Intra module refs:   Segment part 37
    -------------------------------------------------------------------------
DATA_C
  Relative segment, address: CODE_AREA 0001C27C - 0001C29B (0x20 bytes), align: 2
  Segment part 5.             Intra module refs:   AddToLog
    -------------------------------------------------------------------------
DATA_C
  Relative segment, address: CODE_AREA 0001C29C - 0001C2AF (0x14 bytes), align: 2
  Segment part 6.             Intra module refs:   LogStatusChange
    -------------------------------------------------------------------------
DATA_C
  Relative segment, address: CODE_AREA 0001C2B0 - 0001C2CB (0x1c bytes), align: 2
  Segment part 7.             Intra module refs:   LogStatusChange
    -------------------------------------------------------------------------
DATA_C
  Relative segment, address: CODE_AREA 0001C2CC - 0001C2DB (0x10 bytes), align: 2
  Segment part 8.             Intra module refs:   LogStatusChange2
    -------------------------------------------------------------------------
DATA_C
  Relative segment, address: CODE_AREA 0001C2DC - 0001C2E7 (0xc bytes), align: 2
  Segment part 9.             Intra module refs:   LoadLog
    -------------------------------------------------------------------------
DATA_C
  Relative segment, address: CODE_AREA 0001C2E8 - 0001C30B (0x24 bytes), align: 2
  Segment part 11.            Intra module refs:   DrawList
    -------------------------------------------------------------------------
DATA_C
  Relative segment, address: CODE_AREA 0001C30C - 0001C327 (0x1c bytes), align: 2
  Segment part 12.            Intra module refs:   Add2History
    -------------------------------------------------------------------------
DATA_C
  Relative segment, address: CODE_AREA 0001C328 - 0001C35B (0x34 bytes), align: 2
  Segment part 13.            Intra module refs:   CreateLog
    -------------------------------------------------------------------------
DATA_C
  Relative segment, address: CODE_AREA 0001C35C - 0001C383 (0x28 bytes), align: 2
  Segment part 16.            Intra module refs:   GetStatusById
    -------------------------------------------------------------------------
CODE
  Relative segment, address: CODE_AREA 00002834 - 00002897 (0x64 bytes), align: 2
  Segment part 77.
           ENTRY                   ADDRESS         REF BY
           =====                   =======         ======
           CreateLog               00002834        CreateLogs (mainmenu)
               stack 1 = 00000000 ( 00000014 )
    -------------------------------------------------------------------------
DATA_ID
  Relative segment, address: CODE_AREA 000003B7 - 000003B9 (0x3 bytes), align: 0
  Segment part 19.            Intra module refs:   _u
    -------------------------------------------------------------------------
DATA_ID
  Relative segment, address: CODE_AREA 00000018 - 0000001B (0x4 bytes), align: 2
  Segment part 22.            Intra module refs:   start_x

    *************************************************************************

  FILE NAME : D:\pasha\elf\_MY_PROJECT_\naticq_mod2\Release\Obj\main.r79
  PROGRAM MODULE, NAME : main

  SEGMENTS IN THE MODULE
  ======================
CODE
  Relative segment, address: CODE_AREA 00002898 - 00002937 (0xa0 bytes), align: 2
  Segment part 172.           Intra module refs:   Segment part 173
                                                   Segment part 657
           ENTRY                   ADDRESS         REF BY
           =====                   =======         ======
           Pinger2                 00002898 
               stack 1 = 00000000 ( 00000010 )
    -------------------------------------------------------------------------
CODE
  Relative segment, address: CODE_AREA 00002938 - 0000293B (0x4 bytes), align: 2
  Segment part 173.           Intra module refs:   Pinger2
    -------------------------------------------------------------------------
CODE
  Relative segment, address: CODE_AREA 0000293C - 0000293F (0x4 bytes), align: 2
  Segment part 174.           Intra module refs:   Pinger2
    -------------------------------------------------------------------------
CODE
  Relative segment, address: CODE_AREA 00002940 - 00002943 (0x4 bytes), align: 2
  Segment part 175.           Intra module refs:   Pinger2
    -------------------------------------------------------------------------
CODE
  Relative segment, address: CODE_AREA 00002944 - 0000296F (0x2c bytes), align: 2
  Segment part 177.           Intra module refs:   DrawSoftInfo
                                                   ProcessPacket
                                                   RecountMenu
                                                   SendAnswer
                                                   create_connect
                                                   get_answer
                                                   maincsm_onmessage
           ENTRY                   ADDRESS         REF BY
           =====                   =======         ======
           SMART_REDRAW            00002944        ProcessNextSmile (smiles_loader)
               stack 1 = 00000000 ( 00000008 )
    -------------------------------------------------------------------------
CODE
  Relative segment, address: CODE_AREA 00002970 - 00002973 (0x4 bytes), align: 2
  Segment part 178.           Intra module refs:   SMART_REDRAW
    -------------------------------------------------------------------------
CODE
  Relative segment, address: CODE_AREA 00002974 - 00002997 (0x24 bytes), align: 2
  Segment part 180.           Intra module refs:   ProcessPacket
           ENTRY                   ADDRESS         REF BY
           =====                   =======         ======
           FreeXText2              00002974 
               stack 1 = 00000000 ( 00000008 )
    -------------------------------------------------------------------------
CODE
  Relative segment, address: CODE_AREA 00002998 - 00002B27 (0x190 bytes), align: 2
  Segment part 182.           Intra module refs:   input_awaymsg_onkey
                                                   main
           ENTRY                   ADDRESS         REF BY
           =====                   =======         ======
           away_timer              00002998        AutoAwayMSG (mainmenu)
                                                   SC_OnKey (status_change)
               stack 1 = 00000000 ( 00000030 )
    -------------------------------------------------------------------------
CODE
  Relative segment, address: CODE_AREA 00002B28 - 00002B2B (0x4 bytes), align: 2
  Segment part 183.           Intra module refs:   away_timer
    -------------------------------------------------------------------------
CODE
  Relative segment, address: CODE_AREA 00002B2C - 00002B2F (0x4 bytes), align: 2
  Segment part 184.           Intra module refs:   away_timer
    -------------------------------------------------------------------------
CODE
  Relative segment, address: CODE_AREA 00002B30 - 00002C93 (0x164 bytes), align: 2
  Segment part 186.           Intra module refs:   main
                                                   maincsm_onmessage
           ENTRY                   ADDRESS         REF BY
           =====                   =======         ======
           init_time_zone          00002B30 
               stack 1 = 00000000 ( 00000004 )
    -------------------------------------------------------------------------
CODE
  Relative segment, address: CODE_AREA 00002C94 - 000030C3 (0x430 bytes), align: 2
  Segment part 188.           Intra module refs:   main
           ENTRY                   ADDRESS         REF BY
           =====                   =======         ======
           AutoChangeStatus_timer
                                   00002C94 
               stack 1 = 00000000 ( 00000014 )
    -------------------------------------------------------------------------
CODE
  Relative segment, address: CODE_AREA 000030C4 - 0000310F (0x4c bytes), align: 2
  Segment part 190.           Intra module refs:   maincsm_onmessage
           ENTRY                   ADDRESS         REF BY
           =====                   =======         ======
           DrawPing                000030C4 
               stack 1 = 00000000 ( 0000000C )
    -------------------------------------------------------------------------
CODE
  Relative segment, address: CODE_AREA 00003110 - 00003153 (0x44 bytes), align: 2
  Segment part 192.           Intra module refs:   Segment part 195
           ENTRY                   ADDRESS         REF BY
           =====                   =======         ======
           Remind_Timer2           00003110 
               stack 1 = 00000000 ( 00000008 )
    -------------------------------------------------------------------------
CODE
  Relative segment, address: CODE_AREA 00003154 - 00003173 (0x20 bytes), align: 2
  Segment part 194.           Intra module refs:   ProcessPacket
           ENTRY                   ADDRESS         REF BY
           =====                   =======         ======
           Reminder_timer          00003154 
               stack 1 = 00000000 ( 00000004 )
    -------------------------------------------------------------------------
CODE
  Relative segment, address: CODE_AREA 00003174 - 00003177 (0x4 bytes), align: 2
  Segment part 195.           Intra module refs:   Remind_Timer2
                                                   Reminder_timer
    -------------------------------------------------------------------------
CODE
  Relative segment, address: CODE_AREA 00003178 - 000031B7 (0x40 bytes), align: 2
  Segment part 197.           Intra module refs:   upTime
           ENTRY                   ADDRESS         REF BY
           =====                   =======         ======
           UptimeMinHour           00003178 
    -------------------------------------------------------------------------
CODE
  Relative segment, address: CODE_AREA 000031B8 - 00003257 (0xa0 bytes), align: 2
  Segment part 199.           Intra module refs:   main
           ENTRY                   ADDRESS         REF BY
           =====                   =======         ======
           upTime                  000031B8 
               stack 1 = 00000000 ( 00000014 )
    -------------------------------------------------------------------------
CODE
  Relative segment, address: CODE_AREA 00003258 - 0000325B (0x4 bytes), align: 2
  Segment part 200.           Intra module refs:   upTime
    -------------------------------------------------------------------------
CODE
  Relative segment, address: CODE_AREA 0000325C - 0000325F (0x4 bytes), align: 2
  Segment part 201.           Intra module refs:   upTime
    -------------------------------------------------------------------------
CODE
  Relative segment, address: CODE_AREA 00003260 - 000032F7 (0x98 bytes), align: 2
  Segment part 203.           Intra module refs:   maincsm_onmessage
           ENTRY                   ADDRESS         REF BY
           =====                   =======         ======
           DrawOnlineTime          00003260 
               stack 1 = 00000000 ( 00000014 )
    -------------------------------------------------------------------------
CODE
  Relative segment, address: CODE_AREA 000032F8 - 00003387 (0x90 bytes), align: 2
  Segment part 205.           Intra module refs:   maincsm_onmessage
           ENTRY                   ADDRESS         REF BY
           =====                   =======         ======
           DrawAutoMSG             000032F8 
               stack 1 = 00000000 ( 0000004C )
    -------------------------------------------------------------------------
CODE
  Relative segment, address: CODE_AREA 00003388 - 0000338B (0x4 bytes), align: 2
  Segment part 206.           Intra module refs:   DrawAutoMSG
    -------------------------------------------------------------------------
CODE
  Relative segment, address: CODE_AREA 0000338C - 0000338F (0x4 bytes), align: 2
  Segment part 207.           Intra module refs:   DrawAutoMSG
                                                   DrawOnlineTime
                                                   DrawPing
    -------------------------------------------------------------------------
CODE
  Relative segment, address: CODE_AREA 00003390 - 00003393 (0x4 bytes), align: 2
  Segment part 208.           Intra module refs:   DrawAutoMSG
                                                   DrawOnlineTime
                                                   DrawPing
    -------------------------------------------------------------------------
CODE
  Relative segment, address: CODE_AREA 00003394 - 00003397 (0x4 bytes), align: 2
  Segment part 209.           Intra module refs:   DrawAutoMSG
                                                   DrawPing
    -------------------------------------------------------------------------
CODE
  Relative segment, address: CODE_AREA 00003398 - 00003493 (0xfc bytes), align: 2
  Segment part 211.           Intra module refs:   Segment part 9
           ENTRY                   ADDRESS         REF BY
           =====                   =======         ======
           input_awaymsg_onkey     00003398 
               stack 1 = 00000000 ( 0000004C )
    -------------------------------------------------------------------------
CODE
  Relative segment, address: CODE_AREA 00003494 - 00003497 (0x4 bytes), align: 2
  Segment part 212.           Intra module refs:   DrawOnlineTime
                                                   away_timer
                                                   input_awaymsg_onkey
    -------------------------------------------------------------------------
CODE
  Relative segment, address: CODE_AREA 00003498 - 0000349B (0x4 bytes), align: 2
  Segment part 213.           Intra module refs:   away_timer
                                                   input_awaymsg_onkey
    -------------------------------------------------------------------------
CODE
  Relative segment, address: CODE_AREA 0000349C - 000034DF (0x44 bytes), align: 2
  Segment part 215.           Intra module refs:   Segment part 9
           ENTRY                   ADDRESS         REF BY
           =====                   =======         ======
           input_awaymsg_ghook     0000349C 
               stack 1 = 00000000 ( 00000004 )
    -------------------------------------------------------------------------
CODE
  Relative segment, address: CODE_AREA 000034E0 - 000034E3 (0x4 bytes), align: 2
  Segment part 217.           Intra module refs:   Segment part 9
           ENTRY                   ADDRESS         REF BY
           =====                   =======         ======
           input_awaymsg_locret    000034E0 
    -------------------------------------------------------------------------
CODE
  Relative segment, address: CODE_AREA 000034E4 - 00003633 (0x150 bytes), align: 2
  Segment part 219.           Intra module refs:   ClOnKey
                                                   LongPressActionOnChat
           ENTRY                   ADDRESS         REF BY
           =====                   =======         ======
           InputAwayMsg            000034E4 
               stack 1 = 00000000 ( 0000004C )
    -------------------------------------------------------------------------
CODE
  Relative segment, address: CODE_AREA 00003634 - 00003637 (0x4 bytes), align: 2
  Segment part 220.           Intra module refs:   InputAwayMsg
                                                   input_awaymsg_onkey
    -------------------------------------------------------------------------
CODE
  Relative segment, address: CODE_AREA 00003638 - 0000367B (0x44 bytes), align: 2
  Segment part 222.           Intra module refs:   main
                                                   maincsm_onmessage
           ENTRY                   ADDRESS         REF BY
           =====                   =======         ======
           setup_ICONS             00003638 
               stack 1 = 00000000 ( 0000000C )
    -------------------------------------------------------------------------
CODE
  Relative segment, address: CODE_AREA 0000367C - 000036A3 (0x28 bytes), align: 2
  Segment part 224.           Intra module refs:   XStatusToIMGHDR
           ENTRY                   ADDRESS         REF BY
           =====                   =======         ======
           get_file_size           0000367C 
               stack 1 = 00000000 ( 00000030 )
    -------------------------------------------------------------------------
CODE
  Relative segment, address: CODE_AREA 000036A4 - 00003713 (0x70 bytes), align: 2
  Segment part 226.           Intra module refs:   CheckDoubleRun
           ENTRY                   ADDRESS         REF BY
           =====                   =======         ======
           XStatusToIMGHDR         000036A4 
               stack 1 = 00000000 ( 00000014 )
    -------------------------------------------------------------------------
CODE
  Relative segment, address: CODE_AREA 00003714 - 00003717 (0x4 bytes), align: 2
  Segment part 227.           Intra module refs:   AutoChangeStatus_timer
                                                   DrawAutoMSG
                                                   DrawOnlineTime
                                                   Pinger2
                                                   Remind_Timer2
                                                   UptimeMinHour
                                                   XStatusToIMGHDR
                                                   away_timer
                                                   input_awaymsg_onkey
                                                   setup_ICONS
                                                   upTime
    -------------------------------------------------------------------------
CODE
  Relative segment, address: CODE_AREA 00003718 - 0000375B (0x44 bytes), align: 2
  Segment part 229.           Intra module refs:   CheckDoubleRun
           ENTRY                   ADDRESS         REF BY
           =====                   =======         ======
           StatusToIMGHDR          00003718 
               stack 1 = 00000000 ( 00000010 )
    -------------------------------------------------------------------------
CODE
  Relative segment, address: CODE_AREA 0000375C - 0000375F (0x4 bytes), align: 2
  Segment part 230.           Intra module refs:   StatusToIMGHDR
                                                   setup_ICONS
    -------------------------------------------------------------------------
CODE
  Relative segment, address: CODE_AREA 00003760 - 00003763 (0x4 bytes), align: 2
  Segment part 231.           Intra module refs:   StatusToIMGHDR
                                                   setup_ICONS
    -------------------------------------------------------------------------
CODE
  Relative segment, address: CODE_AREA 00003764 - 000037C3 (0x60 bytes), align: 2
  Segment part 233.           Intra module refs:   maincsm_onclose
           ENTRY                   ADDRESS         REF BY
           =====                   =======         ======
           FreeStatusToIMGHDR      00003764 
               stack 1 = 00000000 ( 0000000C )
    -------------------------------------------------------------------------
CODE
  Relative segment, address: CODE_AREA 000037C4 - 000037F3 (0x30 bytes), align: 2
  Segment part 235.           Intra module refs:   maincsm_onclose
                                                   maincsm_onmessage
           ENTRY                   ADDRESS         REF BY
           =====                   =======         ======
           free_ICONS              000037C4 
               stack 1 = 00000000 ( 00000010 )
    -------------------------------------------------------------------------
CODE
  Relative segment, address: CODE_AREA 000037F4 - 0000382B (0x38 bytes), align: 2
  Segment part 237.           Intra module refs:   IlluminationOn
           ENTRY                   ADDRESS         REF BY
           =====                   =======         ======
           IlluminationOff         000037F4 
               stack 1 = 00000000 ( 00000008 )
    -------------------------------------------------------------------------
CODE
  Relative segment, address: CODE_AREA 0000382C - 000038A3 (0x78 bytes), align: 2
  Segment part 239.           Intra module refs:   ProcessPacket
           ENTRY                   ADDRESS         REF BY
           =====                   =======         ======
           IlluminationOn          0000382C 
               stack 1 = 00000000 ( 00000018 )
    -------------------------------------------------------------------------
CODE
  Relative segment, address: CODE_AREA 000038A4 - 00003AFF (0x25c bytes), align: 2
  Segment part 241.           Intra module refs:   main
           ENTRY                   ADDRESS         REF BY
           =====                   =======         ======
           ReadDefSettings         000038A4 
               stack 1 = 00000000 ( 000000B8 )
    -------------------------------------------------------------------------
CODE
  Relative segment, address: CODE_AREA 00003B00 - 00003D5F (0x260 bytes), align: 2
  Segment part 243.           Intra module refs:   Segment part 298
                                                   Segment part 584
                                                   maincsm_onclose
           ENTRY                   ADDRESS         REF BY
           =====                   =======         ======
           WriteDefSettings        00003B00        Segment part 152 (status_change)
                                                   Segment part 71 (mainmenu)
                                                   Segment part 75 (status_change)
               stack 1 = 00000000 ( 000000B4 )
    -------------------------------------------------------------------------
CODE
  Relative segment, address: CODE_AREA 00003D60 - 00003D63 (0x4 bytes), align: 2
  Segment part 244.           Intra module refs:   ReadDefSettings
                                                   WriteDefSettings
    -------------------------------------------------------------------------
CODE
  Relative segment, address: CODE_AREA 00003D64 - 00003D67 (0x4 bytes), align: 2
  Segment part 245.           Intra module refs:   ReadDefSettings
                                                   WriteDefSettings
    -------------------------------------------------------------------------
CODE
  Relative segment, address: CODE_AREA 00003D68 - 00003D6B (0x4 bytes), align: 2
  Segment part 246.           Intra module refs:   ReadDefSettings
                                                   WriteDefSettings
    -------------------------------------------------------------------------
CODE
  Relative segment, address: CODE_AREA 00003D6C - 00003E9B (0x130 bytes), align: 2
  Segment part 248.           Intra module refs:   ProcessPacket
                                                   end_socket
                                                   get_answer
                                                   maincsm_onmessage
           ENTRY                   ADDRESS         REF BY
           =====                   =======         ======
           Play                    00003D6C 
               stack 1 = 00000000 ( 000000EC )
    -------------------------------------------------------------------------
CODE
  Relative segment, address: CODE_AREA 00003E9C - 00003EFF (0x64 bytes), align: 2
  Segment part 250.           Intra module refs:   ProcessPacket
                                                   maincsm_onmessage
                                                   stop_vibra
           ENTRY                   ADDRESS         REF BY
           =====                   =======         ======
           start_vibra             00003E9C        CheckComand2 (addon)
               stack 1 = 00000000 ( 00000008 )
    -------------------------------------------------------------------------
CODE
  Relative segment, address: CODE_AREA 00003F00 - 00003F57 (0x58 bytes), align: 2
  Segment part 252.           Intra module refs:   start_vibra
           ENTRY                   ADDRESS         REF BY
           =====                   =======         ======
           stop_vibra              00003F00 
               stack 1 = 00000000 ( 00000004 )
    -------------------------------------------------------------------------
CODE
  Relative segment, address: CODE_AREA 00003F58 - 00003F93 (0x3c bytes), align: 2
  Segment part 254.           Intra module refs:   Remind_Timer2
                                                   stop_vibra2
           ENTRY                   ADDRESS         REF BY
           =====                   =======         ======
           start_vibra2            00003F58 
               stack 1 = 00000000 ( 00000004 )
    -------------------------------------------------------------------------
CODE
  Relative segment, address: CODE_AREA 00003F94 - 00003F97 (0x4 bytes), align: 2
  Segment part 255.           Intra module refs:   start_vibra
                                                   start_vibra2
    -------------------------------------------------------------------------
CODE
  Relative segment, address: CODE_AREA 00003F98 - 00003FEF (0x58 bytes), align: 2
  Segment part 257.           Intra module refs:   start_vibra2
           ENTRY                   ADDRESS         REF BY
           =====                   =======         ======
           stop_vibra2             00003F98 
               stack 1 = 00000000 ( 00000004 )
    -------------------------------------------------------------------------
CODE
  Relative segment, address: CODE_AREA 00003FF0 - 00003FF3 (0x4 bytes), align: 2
  Segment part 258.           Intra module refs:   start_vibra
                                                   start_vibra2
                                                   stop_vibra
                                                   stop_vibra2
    -------------------------------------------------------------------------
CODE
  Relative segment, address: CODE_AREA 00003FF4 - 0000402B (0x38 bytes), align: 2
  Segment part 264.           Intra module refs:   LoadTemplates
                                                   maincsm_onclose
           ENTRY                   ADDRESS         REF BY
           =====                   =======         ======
           FreeTemplates           00003FF4 
               stack 1 = 00000000 ( 00000008 )
    -------------------------------------------------------------------------
CODE
  Relative segment, address: CODE_AREA 0000402C - 000041B7 (0x18c bytes), align: 2
  Segment part 266.           Intra module refs:   edchat_onkey
           ENTRY                   ADDRESS         REF BY
           =====                   =======         ======
           LoadTemplates           0000402C 
               stack 1 = 00000000 ( 0000014C )
    -------------------------------------------------------------------------
CODE
  Relative segment, address: CODE_AREA 000041B8 - 000041BB (0x4 bytes), align: 2
  Segment part 267.           Intra module refs:   FreeStatusToIMGHDR
                                                   FreeTemplates
                                                   LoadTemplates
                                                   ReadDefSettings
                                                   StatusToIMGHDR
                                                   WriteDefSettings
                                                   free_ICONS
                                                   start_vibra
                                                   stop_vibra
                                                   stop_vibra2
    -------------------------------------------------------------------------
CODE
  Relative segment, address: CODE_AREA 000041BC - 000041D7 (0x1c bytes), align: 2
  Segment part 269.           Intra module refs:   Segment part 605
                                                   Segment part 646
           ENTRY                   ADDRESS         REF BY
           =====                   =======         ======
           ElfKiller               000041BC        CheckComand2 (addon)
               stack 1 = 00000000 ( 00000004 )
    -------------------------------------------------------------------------
CODE
  Relative segment, address: CODE_AREA 000041D8 - 0000420B (0x34 bytes), align: 2
  Segment part 271.           Intra module refs:   AddStringToLog
           ENTRY                   ADDRESS         REF BY
           =====                   =======         ======
           NewLOGQ                 000041D8        GetHistory (history)
               stack 1 = 00000000 ( 0000000C )
    -------------------------------------------------------------------------
CODE
  Relative segment, address: CODE_AREA 0000420C - 0000423B (0x30 bytes), align: 2
  Segment part 275.           Intra module refs:   ClOnKey
                                                   ClearLog
                                                   LongPressActionOnChat
                                                   maincsm_onmessage
           ENTRY                   ADDRESS         REF BY
           =====                   =======         ======
           FreeLOGQ                0000420C        FreeCLIST (cl_work)
               stack 1 = 00000000 ( 00000008 )
    -------------------------------------------------------------------------
CODE
  Relative segment, address: CODE_AREA 0000423C - 0000426F (0x34 bytes), align: 2
  Segment part 277.           Intra module refs:   AddStringToLog
           ENTRY                   ADDRESS         REF BY
           =====                   =======         ======
           RemoveLOGQ              0000423C 
               stack 1 = 00000000 ( 00000004 )
    -------------------------------------------------------------------------
CODE
  Relative segment, address: CODE_AREA 00004270 - 0000429B (0x2c bytes), align: 2
  Segment part 279.           Intra module refs:   AddStringToLog
           ENTRY                   ADDRESS         REF BY
           =====                   =======         ======
           AddLOGQ                 00004270        GetHistory (history)
    -------------------------------------------------------------------------
CODE
  Relative segment, address: CODE_AREA 0000429C - 000042E3 (0x48 bytes), align: 2
  Segment part 281.           Intra module refs:   AddStringToLog
           ENTRY                   ADDRESS         REF BY
           =====                   =======         ======
           GetLastXTextLOGQ        0000429C 
    -------------------------------------------------------------------------
CODE
  Relative segment, address: CODE_AREA 000042E4 - 000043C7 (0xe4 bytes), align: 2
  Segment part 283.           Intra module refs:   DrawList
                                                   DrawSoftInfo
                                                   I_DrawList
                                                   ProcessPacket
                                                   addIconBar
                                                   my_ed_redraw
           ENTRY                   ADDRESS         REF BY
           =====                   =======         ======
           GetIconIndex            000042E4        CompareContacts (cl_work)
                                                   FindContactByNS (cl_work)
    -------------------------------------------------------------------------
CODE
  Relative segment, address: CODE_AREA 000043C8 - 0000441F (0x58 bytes), align: 2
  Segment part 285.           Intra module refs:   ProcessPacket
                                                   get_answer
           ENTRY                   ADDRESS         REF BY
           =====                   =======         ======
           FindContactLOGQByAck    000043C8 
               stack 1 = 00000000 ( 0000000C )
    -------------------------------------------------------------------------
CODE
  Relative segment, address: CODE_AREA 00004420 - 0000451B (0xfc bytes), align: 2
  Segment part 287.           Intra module refs:   ProcessPacket
           ENTRY                   ADDRESS         REF BY
           =====                   =======         ======
           CreateCLFile            00004420        SaveCL (mainmenu)
               stack 1 = 00000000 ( 00000118 )
    -------------------------------------------------------------------------
CODE
  Relative segment, address: CODE_AREA 0000451C - 0000451F (0x4 bytes), align: 2
  Segment part 288.           Intra module refs:   CreateCLFile
                                                   LoadTemplates
    -------------------------------------------------------------------------
CODE
  Relative segment, address: CODE_AREA 00004520 - 00004523 (0x4 bytes), align: 2
  Segment part 289.           Intra module refs:   CreateCLFile
                                                   ReadDefSettings
                                                   WriteDefSettings
    -------------------------------------------------------------------------
CODE
  Relative segment, address: CODE_AREA 00004524 - 00004547 (0x24 bytes), align: 2
  Segment part 293.           Intra module refs:   ClOnKey
           ENTRY                   ADDRESS         REF BY
           =====                   =======         ======
           AddContactT9Key         00004524 
               stack 1 = 00000000 ( 0000000C )
    -------------------------------------------------------------------------
CODE
  Relative segment, address: CODE_AREA 00004548 - 0000456B (0x24 bytes), align: 2
  Segment part 295.           Intra module refs:   ClOnKey
           ENTRY                   ADDRESS         REF BY
           =====                   =======         ======
           BackSpaceContactT9      00004548 
               stack 1 = 00000000 ( 00000008 )
    -------------------------------------------------------------------------
CODE
  Relative segment, address: CODE_AREA 0000456C - 000048EF (0x384 bytes), align: 2
  Segment part 297.           Intra module refs:   LongPressAction
           ENTRY                   ADDRESS         REF BY
           =====                   =======         ======
           LongPressActionOnChat   0000456C 
               stack 1 = 00000000 ( 00000028 )
    -------------------------------------------------------------------------
CODE
  Relative segment, address: CODE_AREA 000048F0 - 000048F3 (0x4 bytes), align: 2
  Segment part 298.           Intra module refs:   LongPressActionOnChat
    -------------------------------------------------------------------------
CODE
  Relative segment, address: CODE_AREA 000048F4 - 000048F7 (0x4 bytes), align: 2
  Segment part 299.           Intra module refs:   LongPressActionOnChat
    -------------------------------------------------------------------------
CODE
  Relative segment, address: CODE_AREA 000048F8 - 000048FB (0x4 bytes), align: 2
  Segment part 300.           Intra module refs:   LongPressActionOnChat
    -------------------------------------------------------------------------
CODE
  Relative segment, address: CODE_AREA 000048FC - 000048FF (0x4 bytes), align: 2
  Segment part 301.           Intra module refs:   LongPressActionOnChat
    -------------------------------------------------------------------------
CODE
  Relative segment, address: CODE_AREA 00004900 - 00004903 (0x4 bytes), align: 2
  Segment part 302.           Intra module refs:   LongPressActionOnChat
    -------------------------------------------------------------------------
CODE
  Relative segment, address: CODE_AREA 00004904 - 00004A0B (0x108 bytes), align: 2
  Segment part 304.           Intra module refs:   ClOnKey
           ENTRY                   ADDRESS         REF BY
           =====                   =======         ======
           LongPressAction         00004904 
               stack 1 = 00000000 ( 00000004 )
    -------------------------------------------------------------------------
CODE
  Relative segment, address: CODE_AREA 00004A0C - 00004A67 (0x5c bytes), align: 2
  Segment part 306.           Intra module refs:   DrawList
           ENTRY                   ADDRESS         REF BY
           =====                   =======         ======
           GetOnTotalContact       00004A0C 
               stack 1 = 00000000 ( 00000008 )
    -------------------------------------------------------------------------
CODE
  Relative segment, address: CODE_AREA 00004A68 - 00004A6B (0x4 bytes), align: 2
  Segment part 307.           Intra module refs:   CreateCLFile
                                                   GetOnTotalContact
    -------------------------------------------------------------------------
CODE
  Relative segment, address: CODE_AREA 00004A6C - 00004B2B (0xc0 bytes), align: 2
  Segment part 309.           Intra module refs:   create_connect
           ENTRY                   ADDRESS         REF BY
           =====                   =======         ======
           GetHost                 00004A6C 
    -------------------------------------------------------------------------
CODE
  Relative segment, address: CODE_AREA 00004B2C - 00004B7F (0x54 bytes), align: 2
  Segment part 311.           Intra module refs:   GetPort
           ENTRY                   ADDRESS         REF BY
           =====                   =======         ======
           atoi                    00004B2C 
               stack 1 = 00000000 ( 00000004 )
    -------------------------------------------------------------------------
CODE
  Relative segment, address: CODE_AREA 00004B80 - 00004C93 (0x114 bytes), align: 2
  Segment part 313.           Intra module refs:   create_connect
           ENTRY                   ADDRESS         REF BY
           =====                   =======         ======
           GetPort                 00004B80 
               stack 1 = 00000000 ( 00000010 )
    -------------------------------------------------------------------------
CODE
  Relative segment, address: CODE_AREA 00004C94 - 00004D0B (0x78 bytes), align: 2
  Segment part 315.           Intra module refs:   create_connect
           ENTRY                   ADDRESS         REF BY
           =====                   =======         ======
           GetHostsCount           00004C94 
    -------------------------------------------------------------------------
CODE
  Relative segment, address: CODE_AREA 00004D0C - 00005003 (0x2f8 bytes), align: 2
  Segment part 317.           Intra module refs:   CheckDoubleRun
                                                   Segment part 608
                                                   Segment part 624
           ENTRY                   ADDRESS         REF BY
           =====                   =======         ======
           create_connect          00004D0C 
               stack 1 = 00000000 ( 00000138 )
    -------------------------------------------------------------------------
CODE
  Relative segment, address: CODE_AREA 00005004 - 00005007 (0x4 bytes), align: 2
  Segment part 318.           Intra module refs:   LongPressActionOnChat
                                                   create_connect
    -------------------------------------------------------------------------
CODE
  Relative segment, address: CODE_AREA 00005008 - 0000500B (0x4 bytes), align: 2
  Segment part 319.           Intra module refs:   create_connect
    -------------------------------------------------------------------------
CODE
  Relative segment, address: CODE_AREA 0000500C - 0000500F (0x4 bytes), align: 2
  Segment part 320.           Intra module refs:   create_connect
    -------------------------------------------------------------------------
CODE
  Relative segment, address: CODE_AREA 00005010 - 0000502F (0x20 bytes), align: 2
  Segment part 322.           Intra module refs:   Segment part 629
           ENTRY                   ADDRESS         REF BY
           =====                   =======         ======
           ClearSendQ              00005010 
               stack 1 = 00000000 ( 00000008 )
    -------------------------------------------------------------------------
CODE
  Relative segment, address: CODE_AREA 00005030 - 0000505F (0x30 bytes), align: 2
  Segment part 324.           Intra module refs:   Segment part 604
                                                   Segment part 626
                                                   SendAnswer
                                                   get_answer
           ENTRY                   ADDRESS         REF BY
           =====                   =======         ======
           end_socket              00005030        CheckComand2 (addon)
                                                   Disconnect (mainmenu)
               stack 1 = 00000000 ( 00000008 )
    -------------------------------------------------------------------------
CODE
  Relative segment, address: CODE_AREA 00005060 - 00005063 (0x4 bytes), align: 2
  Segment part 325.           Intra module refs:   end_socket
    -------------------------------------------------------------------------
CODE
  Relative segment, address: CODE_AREA 00005064 - 000051EB (0x188 bytes), align: 2
  Segment part 327.           Intra module refs:   Segment part 175
                                                   Segment part 339
                                                   Segment part 410
                                                   Segment part 415
                                                   Segment part 625
                                                   Segment part 726
                                                   Segment part 730
                                                   SendMSGACK
                                                   do_ping
           ENTRY                   ADDRESS         REF BY
           =====                   =======         ======
           SendAnswer              00005064        CheckComand2 (addon)
                                                   PingToServer (mainmenu)
                                                   Segment part 45 (manage_cl)
                                                   aa (auth)
                                                   ab (auth)
               stack 1 = 00000000 ( 00000020 )
    -------------------------------------------------------------------------
CODE
  Relative segment, address: CODE_AREA 000051EC - 000051EF (0x4 bytes), align: 2
  Segment part 328.           Intra module refs:   AddContactT9Key
                                                   BackSpaceContactT9
                                                   LongPressActionOnChat
                                                   SendAnswer
                                                   create_connect
    -------------------------------------------------------------------------
CODE
  Relative segment, address: CODE_AREA 000051F0 - 000051F3 (0x4 bytes), align: 2
  Segment part 331.           Intra module refs:   ClearSendQ
                                                   LongPressActionOnChat
                                                   SendAnswer
                                                   create_connect
                                                   end_socket
    -------------------------------------------------------------------------
CODE
  Relative segment, address: CODE_AREA 000051F4 - 00005227 (0x34 bytes), align: 2
  Segment part 333.           Intra module refs:   process_active_timer
           ENTRY                   ADDRESS         REF BY
           =====                   =======         ======
           do_ping                 000051F4 
               stack 1 = 00000000 ( 00000004 )
    -------------------------------------------------------------------------
CODE
  Relative segment, address: CODE_AREA 00005228 - 0000522B (0x4 bytes), align: 2
  Segment part 334.           Intra module refs:   do_ping
    -------------------------------------------------------------------------
CODE
  Relative segment, address: CODE_AREA 0000522C - 0000525F (0x34 bytes), align: 2
  Segment part 336.           Intra module refs:   get_answer
           ENTRY                   ADDRESS         REF BY
           =====                   =======         ======
           SendMSGACK              0000522C 
               stack 1 = 00000000 ( 00000008 )
    -------------------------------------------------------------------------
CODE
  Relative segment, address: CODE_AREA 00005260 - 00005293 (0x34 bytes), align: 2
  Segment part 338.           Intra module refs:   CreateEditChat
                                                   ProcessPacket
                                                   RqtXText
           ENTRY                   ADDRESS         REF BY
           =====                   =======         ======
           RequestXText            00005260 
               stack 1 = 00000000 ( 00000008 )
    -------------------------------------------------------------------------
CODE
  Relative segment, address: CODE_AREA 00005294 - 00005297 (0x4 bytes), align: 2
  Segment part 339.           Intra module refs:   LongPressActionOnChat
                                                   RequestXText
    -------------------------------------------------------------------------
CODE
  Relative segment, address: CODE_AREA 00005298 - 00005913 (0x67c bytes), align: 2
  Segment part 341.           Intra module refs:   maincsm_onmessage
           ENTRY                   ADDRESS         REF BY
           =====                   =======         ======
           get_answer              00005298 
               stack 1 = 00000000 ( 00000450 )
    -------------------------------------------------------------------------
CODE
  Relative segment, address: CODE_AREA 00005914 - 00005917 (0x4 bytes), align: 2
  Segment part 342.           Intra module refs:   get_answer
    -------------------------------------------------------------------------
CODE
  Relative segment, address: CODE_AREA 00005918 - 0000591B (0x4 bytes), align: 2
  Segment part 343.           Intra module refs:   get_answer
    -------------------------------------------------------------------------
CODE
  Relative segment, address: CODE_AREA 0000591C - 0000591F (0x4 bytes), align: 2
  Segment part 344.           Intra module refs:   get_answer
    -------------------------------------------------------------------------
CODE
  Relative segment, address: CODE_AREA 00005920 - 00005923 (0x4 bytes), align: 2
  Segment part 345.           Intra module refs:   get_answer
    -------------------------------------------------------------------------
CODE
  Relative segment, address: CODE_AREA 00005924 - 00005927 (0x4 bytes), align: 2
  Segment part 346.           Intra module refs:   get_answer
    -------------------------------------------------------------------------
CODE
  Relative segment, address: CODE_AREA 00005928 - 0000592B (0x4 bytes), align: 2
  Segment part 347.           Intra module refs:   get_answer
    -------------------------------------------------------------------------
CODE
  Relative segment, address: CODE_AREA 0000592C - 0000592F (0x4 bytes), align: 2
  Segment part 348.           Intra module refs:   get_answer
    -------------------------------------------------------------------------
CODE
  Relative segment, address: CODE_AREA 00005930 - 00005B63 (0x234 bytes), align: 2
  Segment part 350.           Intra module refs:   ProcessPacket
           ENTRY                   ADDRESS         REF BY
           =====                   =======         ======
           AddToMain               00005930 
               stack 1 = 00000000 ( 00000028 )
    -------------------------------------------------------------------------
CODE
  Relative segment, address: CODE_AREA 00005B64 - 00005DBB (0x258 bytes), align: 2
  Segment part 352.           Intra module refs:   CheckComand
                                                   GetShortInfo
                                                   ProcessPacket
                                                   SendAuthGrant
                                                   SendAuthReq
                                                   edchat_onkey
           ENTRY                   ADDRESS         REF BY
           =====                   =======         ======
           AddStringToLog          00005B64        CheckComand2 (addon)
               stack 1 = 00000000 ( 000000C4 )
    -------------------------------------------------------------------------
CODE
  Relative segment, address: CODE_AREA 00005DBC - 00005DBF (0x4 bytes), align: 2
  Segment part 353.           Intra module refs:   AddStringToLog
    -------------------------------------------------------------------------
CODE
  Relative segment, address: CODE_AREA 00005DC0 - 00005E57 (0x98 bytes), align: 2
  Segment part 355.           Intra module refs:   AddMsgToChat
                                                   CreateEditChat
           ENTRY                   ADDRESS         REF BY
           =====                   =======         ======
           ParseXStatusText        00005DC0 
               stack 1 = 00000000 ( 00000014 )
    -------------------------------------------------------------------------
CODE
  Relative segment, address: CODE_AREA 00005E58 - 00006183 (0x32c bytes), align: 2
  Segment part 357.           Intra module refs:   GetShortInfo
                                                   ReqAddMsgToChat
                                                   SendAuthGrant
                                                   SendAuthReq
                                                   edchat_ghook
                                                   edchat_onkey
           ENTRY                   ADDRESS         REF BY
           =====                   =======         ======
           AddMsgToChat            00005E58 
               stack 1 = 00000000 ( 00000068 )
    -------------------------------------------------------------------------
CODE
  Relative segment, address: CODE_AREA 00006184 - 00006187 (0x4 bytes), align: 2
  Segment part 358.           Intra module refs:   AddMsgToChat
                                                   AddStringToLog
                                                   AddToMain
                                                   get_answer
    -------------------------------------------------------------------------
CODE
  Relative segment, address: CODE_AREA 00006188 - 0000618B (0x4 bytes), align: 2
  Segment part 359.           Intra module refs:   AddMsgToChat
    -------------------------------------------------------------------------
CODE
  Relative segment, address: CODE_AREA 0000618C - 0000618F (0x4 bytes), align: 2
  Segment part 360.           Intra module refs:   AddMsgToChat
    -------------------------------------------------------------------------
CODE
  Relative segment, address: CODE_AREA 00006190 - 00006193 (0x4 bytes), align: 2
  Segment part 361.           Intra module refs:   AddMsgToChat
    -------------------------------------------------------------------------
CODE
  Relative segment, address: CODE_AREA 00006194 - 00006197 (0x4 bytes), align: 2
  Segment part 362.           Intra module refs:   AddMsgToChat
    -------------------------------------------------------------------------
CODE
  Relative segment, address: CODE_AREA 00006198 - 0000619B (0x4 bytes), align: 2
  Segment part 363.           Intra module refs:   AddMsgToChat
    -------------------------------------------------------------------------
CODE
  Relative segment, address: CODE_AREA 0000619C - 0000619F (0x4 bytes), align: 2
  Segment part 364.           Intra module refs:   AddMsgToChat
    -------------------------------------------------------------------------
CODE
  Relative segment, address: CODE_AREA 000061A0 - 000062F3 (0x154 bytes), align: 2
  Segment part 366.           Intra module refs:   ProcessPacket
                                                   edchat_ghook
           ENTRY                   ADDRESS         REF BY
           =====                   =======         ======
           DrawAck                 000061A0 
               stack 1 = 00000000 ( 00000050 )
    -------------------------------------------------------------------------
CODE
  Relative segment, address: CODE_AREA 000062F4 - 000062F7 (0x4 bytes), align: 2
  Segment part 367.           Intra module refs:   AddMsgToChat
                                                   DrawAck
    -------------------------------------------------------------------------
CODE
  Relative segment, address: CODE_AREA 000062F8 - 000062FB (0x4 bytes), align: 2
  Segment part 368.           Intra module refs:   AddMsgToChat
                                                   DrawAck
    -------------------------------------------------------------------------
CODE
  Relative segment, address: CODE_AREA 000062FC - 000062FF (0x4 bytes), align: 2
  Segment part 369.           Intra module refs:   AddMsgToChat
                                                   DrawAck
    -------------------------------------------------------------------------
CODE
  Relative segment, address: CODE_AREA 00006300 - 00006303 (0x4 bytes), align: 2
  Segment part 370.           Intra module refs:   AddMsgToChat
                                                   DrawAck
    -------------------------------------------------------------------------
CODE
  Relative segment, address: CODE_AREA 00006304 - 00006307 (0x4 bytes), align: 2
  Segment part 371.           Intra module refs:   AddMsgToChat
                                                   DrawAck
    -------------------------------------------------------------------------
CODE
  Relative segment, address: CODE_AREA 00006308 - 0000630B (0x4 bytes), align: 2
  Segment part 372.           Intra module refs:   AddMsgToChat
                                                   DrawAck
    -------------------------------------------------------------------------
CODE
  Relative segment, address: CODE_AREA 0000630C - 0000630F (0x4 bytes), align: 2
  Segment part 373.           Intra module refs:   AddMsgToChat
                                                   DrawAck
    -------------------------------------------------------------------------
CODE
  Relative segment, address: CODE_AREA 00006310 - 00006313 (0x4 bytes), align: 2
  Segment part 374.           Intra module refs:   AddMsgToChat
                                                   DrawAck
    -------------------------------------------------------------------------
CODE
  Relative segment, address: CODE_AREA 00006314 - 0000635B (0x48 bytes), align: 2
  Segment part 378.           Intra module refs:   AutoChangeStatus_timer
                                                   ClOnKey
                                                   LongPressActionOnChat
                                                   ProcessPacket
                                                   away_timer
                                                   edchat_onkey
                                                   input_awaymsg_onkey
                                                   my_keyhook
           ENTRY                   ADDRESS         REF BY
           =====                   =======         ======
           set_my_status           00006314        AutoAwayMSG (mainmenu)
                                                   SC_OnKey (status_change)
               stack 1 = 00000000 ( 00000004 )
    -------------------------------------------------------------------------
CODE
  Relative segment, address: CODE_AREA 0000635C - 0000657F (0x224 bytes), align: 2
  Segment part 380.           Intra module refs:   ProcessPacket
           ENTRY                   ADDRESS         REF BY
           =====                   =======         ======
           set_my_xstatus          0000635C        ChangeId3tagMode (mainmenu)
                                                   GetTags (player_tags)
                                                   XS_OnKey (status_change)
               stack 1 = 00000000 ( 0000002C )
    -------------------------------------------------------------------------
CODE
  Relative segment, address: CODE_AREA 00006580 - 00006673 (0xf4 bytes), align: 2
  Segment part 382.
           ENTRY                   ADDRESS         REF BY
           =====                   =======         ======
           set_my_xstatus2         00006580        GetTags (player_tags)
               stack 1 = 00000000 ( 00000024 )
    -------------------------------------------------------------------------
CODE
  Relative segment, address: CODE_AREA 00006674 - 000066C3 (0x50 bytes), align: 2
  Segment part 384.           Intra module refs:   ProcessPacket
                                                   begin_to_develop
                                                   maincsm_onmessage
           ENTRY                   ADDRESS         REF BY
           =====                   =======         ======
           to_develop              00006674 
               stack 1 = 00000000 ( 00000004 )
    -------------------------------------------------------------------------
CODE
  Relative segment, address: CODE_AREA 000066C4 - 000066C7 (0x4 bytes), align: 2
  Segment part 385.           Intra module refs:   to_develop
    -------------------------------------------------------------------------
CODE
  Relative segment, address: CODE_AREA 000066C8 - 0000673F (0x78 bytes), align: 2
  Segment part 387.           Intra module refs:   ProcessPacket
           ENTRY                   ADDRESS         REF BY
           =====                   =======         ======
           ReqAddMsgToChat         000066C8 
               stack 1 = 00000000 ( 00000010 )
    -------------------------------------------------------------------------
CODE
  Relative segment, address: CODE_AREA 00006740 - 00006773 (0x34 bytes), align: 2
  Segment part 389.           Intra module refs:   ProcessPacket
           ENTRY                   ADDRESS         REF BY
           =====                   =======         ======
           begin_to_develop        00006740 
               stack 1 = 00000000 ( 00000004 )
    -------------------------------------------------------------------------
CODE
  Relative segment, address: CODE_AREA 00006774 - 000067AB (0x38 bytes), align: 2
  Segment part 391.           Intra module refs:   CmdMenuGHook
                                                   LoadCmd
                                                   maincsm_onclose
           ENTRY                   ADDRESS         REF BY
           =====                   =======         ======
           cmdFree                 00006774 
               stack 1 = 00000000 ( 00000008 )
    -------------------------------------------------------------------------
CODE
  Relative segment, address: CODE_AREA 000067AC - 000068C3 (0x118 bytes), align: 2
  Segment part 393.           Intra module refs:   DispCmdMenu
           ENTRY                   ADDRESS         REF BY
           =====                   =======         ======
           LoadCmd                 000067AC 
               stack 1 = 00000000 ( 0000014C )
    -------------------------------------------------------------------------
CODE
  Relative segment, address: CODE_AREA 000068C4 - 000068C7 (0x4 bytes), align: 2
  Segment part 394.           Intra module refs:   LoadCmd
    -------------------------------------------------------------------------
CODE
  Relative segment, address: CODE_AREA 000068C8 - 000068CB (0x4 bytes), align: 2
  Segment part 395.           Intra module refs:   LoadCmd
                                                   cmdFree
    -------------------------------------------------------------------------
CODE
  Relative segment, address: CODE_AREA 000068CC - 00006923 (0x58 bytes), align: 2
  Segment part 397.           Intra module refs:   Segment part 24
           ENTRY                   ADDRESS         REF BY
           =====                   =======         ======
           CmdMenuItemHandler      000068CC 
               stack 1 = 00000000 ( 00000018 )
    -------------------------------------------------------------------------
CODE
  Relative segment, address: CODE_AREA 00006924 - 00006947 (0x24 bytes), align: 2
  Segment part 399.           Intra module refs:   Segment part 24
           ENTRY                   ADDRESS         REF BY
           =====                   =======         ======
           CmdMenuGHook            00006924 
               stack 1 = 00000000 ( 00000004 )
    -------------------------------------------------------------------------
CODE
  Relative segment, address: CODE_AREA 00006948 - 000069E7 (0xa0 bytes), align: 2
  Segment part 401.           Intra module refs:   Segment part 24
           LOCAL                   ADDRESS         
           =====                   =======         
           CmdMenuKeyHook          00006948 
               stack 1 = 00000000 ( 00000010 )
    -------------------------------------------------------------------------
CODE
  Relative segment, address: CODE_AREA 000069E8 - 000069EB (0x4 bytes), align: 2
  Segment part 402.           Intra module refs:   CmdMenuItemHandler
                                                   CmdMenuKeyHook
    -------------------------------------------------------------------------
CODE
  Relative segment, address: CODE_AREA 000069EC - 00006A7F (0x94 bytes), align: 2
  Segment part 404.           Intra module refs:   ed_options_handler
           ENTRY                   ADDRESS         REF BY
           =====                   =======         ======
           DispCmdMenu             000069EC 
               stack 1 = 00000000 ( 00000020 )
    -------------------------------------------------------------------------
CODE
  Relative segment, address: CODE_AREA 00006A80 - 00006B2F (0xb0 bytes), align: 2
  Segment part 406.           Intra module refs:   ProcessPacket
           ENTRY                   ADDRESS         REF BY
           =====                   =======         ======
           GetStatusByIconIndex    00006A80 
               stack 1 = 00000000 ( 0000000C )
    -------------------------------------------------------------------------
CODE
  Relative segment, address: CODE_AREA 00006B30 - 00006BA7 (0x78 bytes), align: 2
  Segment part 408.           Intra module refs:   CheckComand
           ENTRY                   ADDRESS         REF BY
           =====                   =======         ======
           SendData                00006B30        CheckComand2 (addon)
               stack 1 = 00000000 ( 00000010 )
    -------------------------------------------------------------------------
CODE
  Relative segment, address: CODE_AREA 00006BA8 - 00006BAB (0x4 bytes), align: 2
  Segment part 409.           Intra module refs:   ReqAddMsgToChat
                                                   SendData
                                                   set_my_xstatus
                                                   to_develop
    -------------------------------------------------------------------------
CODE
  Relative segment, address: CODE_AREA 00006BAC - 00006BAF (0x4 bytes), align: 2
  Segment part 410.           Intra module refs:   SendData
                                                   set_my_status
                                                   set_my_xstatus
                                                   set_my_xstatus2
    -------------------------------------------------------------------------
CODE
  Relative segment, address: CODE_AREA 00006BB0 - 000077F3 (0xc44 bytes), align: 2
  Segment part 412.           Intra module refs:   ProcessPacket
           ENTRY                   ADDRESS         REF BY
           =====                   =======         ======
           CheckComand             00006BB0 
               stack 1 = 00000000 ( 0000027C )
    -------------------------------------------------------------------------
CODE
  Relative segment, address: CODE_AREA 000077F4 - 000077F7 (0x4 bytes), align: 2
  Segment part 413.           Intra module refs:   CheckComand
    -------------------------------------------------------------------------
CODE
  Relative segment, address: CODE_AREA 000077F8 - 000077FB (0x4 bytes), align: 2
  Segment part 414.           Intra module refs:   CheckComand
    -------------------------------------------------------------------------
CODE
  Relative segment, address: CODE_AREA 000077FC - 000077FF (0x4 bytes), align: 2
  Segment part 415.           Intra module refs:   CheckComand
    -------------------------------------------------------------------------
CODE
  Relative segment, address: CODE_AREA 00007800 - 00007803 (0x4 bytes), align: 2
  Segment part 416.           Intra module refs:   CheckComand
    -------------------------------------------------------------------------
CODE
  Relative segment, address: CODE_AREA 00007804 - 00007807 (0x4 bytes), align: 2
  Segment part 417.           Intra module refs:   CheckComand
    -------------------------------------------------------------------------
CODE
  Relative segment, address: CODE_AREA 00007808 - 0000780B (0x4 bytes), align: 2
  Segment part 418.           Intra module refs:   CheckComand
    -------------------------------------------------------------------------
CODE
  Relative segment, address: CODE_AREA 0000780C - 000079F7 (0x1ec bytes), align: 2
  Segment part 420.           Intra module refs:   ProcessPacket
           ENTRY                   ADDRESS         REF BY
           =====                   =======         ======
           show_on_contact         0000780C 
               stack 1 = 00000000 ( 0000003C )
    -------------------------------------------------------------------------
CODE
  Relative segment, address: CODE_AREA 000079F8 - 000079FB (0x4 bytes), align: 2
  Segment part 421.           Intra module refs:   CheckComand
                                                   show_on_contact
    -------------------------------------------------------------------------
CODE
  Relative segment, address: CODE_AREA 000079FC - 00007BDB (0x1e0 bytes), align: 2
  Segment part 423.           Intra module refs:   ProcessPacket
           ENTRY                   ADDRESS         REF BY
           =====                   =======         ======
           show_off_contact        000079FC 
               stack 1 = 00000000 ( 0000004C )
    -------------------------------------------------------------------------
CODE
  Relative segment, address: CODE_AREA 00007BDC - 00007D83 (0x1a8 bytes), align: 2
  Segment part 425.           Intra module refs:   ProcessPacket
           ENTRY                   ADDRESS         REF BY
           =====                   =======         ======
           show_pp_sender          00007BDC 
               stack 1 = 00000000 ( 0000004C )
    -------------------------------------------------------------------------
CODE
  Relative segment, address: CODE_AREA 00007D84 - 00007D87 (0x4 bytes), align: 2
  Segment part 426.           Intra module refs:   show_off_contact
                                                   show_on_contact
                                                   show_pp_sender
    -------------------------------------------------------------------------
CODE
  Relative segment, address: CODE_AREA 00007D88 - 00007D8B (0x4 bytes), align: 2
  Segment part 427.           Intra module refs:   show_pp_sender
    -------------------------------------------------------------------------
CODE
  Relative segment, address: CODE_AREA 00007D8C - 00007D8F (0x4 bytes), align: 2
  Segment part 428.           Intra module refs:   show_on_contact
                                                   show_pp_sender
    -------------------------------------------------------------------------
CODE
  Relative segment, address: CODE_AREA 00007D90 - 00007DEB (0x5c bytes), align: 2
  Segment part 430.           Intra module refs:   CheckComand
                                                   DrawHeader
                                                   ProcessPacket
           ENTRY                   ADDRESS         REF BY
           =====                   =======         ======
           Get_Online_total        00007D90 
    -------------------------------------------------------------------------
CODE
  Relative segment, address: CODE_AREA 00007DEC - 00007E37 (0x4c bytes), align: 2
  Segment part 432.           Intra module refs:   ProcessPacket
           ENTRY                   ADDRESS         REF BY
           =====                   =======         ======
           SetIndividStatus        00007DEC 
    -------------------------------------------------------------------------
CODE
  Relative segment, address: CODE_AREA 00007E38 - 00007E3B (0x4 bytes), align: 2
  Segment part 433.           Intra module refs:   Get_Online_total
                                                   SetIndividStatus
                                                   show_off_contact
                                                   show_pp_sender
    -------------------------------------------------------------------------
CODE
  Relative segment, address: CODE_AREA 00007E3C - 00008A53 (0xc18 bytes), align: 2
  Segment part 435.           Intra module refs:   maincsm_onmessage
           ENTRY                   ADDRESS         REF BY
           =====                   =======         ======
           ProcessPacket           00007E3C 
               stack 1 = 00000000 ( 00000174 )
    -------------------------------------------------------------------------
CODE
  Relative segment, address: CODE_AREA 00008A54 - 00008A57 (0x4 bytes), align: 2
  Segment part 436.           Intra module refs:   ProcessPacket
    -------------------------------------------------------------------------
CODE
  Relative segment, address: CODE_AREA 00008A58 - 00008A5B (0x4 bytes), align: 2
  Segment part 437.           Intra module refs:   ProcessPacket
    -------------------------------------------------------------------------
CODE
  Relative segment, address: CODE_AREA 00008A5C - 00008A5F (0x4 bytes), align: 2
  Segment part 438.           Intra module refs:   ProcessPacket
    -------------------------------------------------------------------------
CODE
  Relative segment, address: CODE_AREA 00008A60 - 00008A63 (0x4 bytes), align: 2
  Segment part 439.           Intra module refs:   ProcessPacket
    -------------------------------------------------------------------------
CODE
  Relative segment, address: CODE_AREA 00008A64 - 00008A67 (0x4 bytes), align: 2
  Segment part 440.           Intra module refs:   ProcessPacket
    -------------------------------------------------------------------------
CODE
  Relative segment, address: CODE_AREA 00008A68 - 00008A6B (0x4 bytes), align: 2
  Segment part 441.           Intra module refs:   ProcessPacket
    -------------------------------------------------------------------------
CODE
  Relative segment, address: CODE_AREA 00008A6C - 00008A6F (0x4 bytes), align: 2
  Segment part 442.           Intra module refs:   ProcessPacket
    -------------------------------------------------------------------------
CODE
  Relative segment, address: CODE_AREA 00008A70 - 00008A73 (0x4 bytes), align: 2
  Segment part 443.           Intra module refs:   ProcessPacket
    -------------------------------------------------------------------------
CODE
  Relative segment, address: CODE_AREA 00008A74 - 00008A77 (0x4 bytes), align: 2
  Segment part 444.           Intra module refs:   ProcessPacket
    -------------------------------------------------------------------------
CODE
  Relative segment, address: CODE_AREA 00008A78 - 00008A7B (0x4 bytes), align: 2
  Segment part 445.           Intra module refs:   ProcessPacket
    -------------------------------------------------------------------------
CODE
  Relative segment, address: CODE_AREA 00008A7C - 00008B0F (0x94 bytes), align: 2
  Segment part 447.           Intra module refs:   Segment part 449
                                                   Segment part 599
           ENTRY                   ADDRESS         REF BY
           =====                   =======         ======
           process_active_timer    00008A7C 
               stack 1 = 00000000 ( 0000000C )
    -------------------------------------------------------------------------
CODE
  Relative segment, address: CODE_AREA 00008B10 - 00008B13 (0x4 bytes), align: 2
  Segment part 448.           Intra module refs:   process_active_timer
    -------------------------------------------------------------------------
CODE
  Relative segment, address: CODE_AREA 00008B14 - 00008B17 (0x4 bytes), align: 2
  Segment part 449.           Intra module refs:   process_active_timer
    -------------------------------------------------------------------------
CODE
  Relative segment, address: CODE_AREA 00008B18 - 00008B7B (0x64 bytes), align: 2
  Segment part 451.           Intra module refs:   maincsm_oncreate
           ENTRY                   ADDRESS         REF BY
           =====                   =======         ======
           OneSecTmr               00008B18 
               stack 1 = 00000000 ( 00000008 )
    -------------------------------------------------------------------------
CODE
  Relative segment, address: CODE_AREA 00008B7C - 00008B7F (0x4 bytes), align: 2
  Segment part 452.           Intra module refs:   OneSecTmr
                                                   ProcessPacket
                                                   process_active_timer
    -------------------------------------------------------------------------
CODE
  Relative segment, address: CODE_AREA 00008B80 - 00008BA7 (0x28 bytes), align: 2
  Segment part 454.           Intra module refs:   Segment part 107
           ENTRY                   ADDRESS         REF BY
           =====                   =======         ======
           RqtXText                00008B80 
               stack 1 = 00000000 ( 00000008 )
    -------------------------------------------------------------------------
CODE
  Relative segment, address: CODE_AREA 00008BA8 - 00008BAB (0x4 bytes), align: 2
  Segment part 455.           Intra module refs:   OneSecTmr
                                                   ProcessPacket
                                                   RqtXText
                                                   process_active_timer
    -------------------------------------------------------------------------
CODE
  Relative segment, address: CODE_AREA 00008BAC - 00008BD7 (0x2c bytes), align: 2
  Segment part 457.           Intra module refs:   Segment part 107
           ENTRY                   ADDRESS         REF BY
           =====                   =======         ======
           ChangeVibraContact      00008BAC 
               stack 1 = 00000000 ( 00000004 )
    -------------------------------------------------------------------------
CODE
  Relative segment, address: CODE_AREA 00008BD8 - 00008C03 (0x2c bytes), align: 2
  Segment part 459.           Intra module refs:   Segment part 107
           ENTRY                   ADDRESS         REF BY
           =====                   =======         ======
           ChangeSoundContact      00008BD8 
               stack 1 = 00000000 ( 00000004 )
    -------------------------------------------------------------------------
CODE
  Relative segment, address: CODE_AREA 00008C04 - 00008C2F (0x2c bytes), align: 2
  Segment part 461.           Intra module refs:   Segment part 107
           ENTRY                   ADDRESS         REF BY
           =====                   =======         ======
           ChangeAutoMsg           00008C04 
               stack 1 = 00000000 ( 00000004 )
    -------------------------------------------------------------------------
CODE
  Relative segment, address: CODE_AREA 00008C30 - 00008C5B (0x2c bytes), align: 2
  Segment part 463.           Intra module refs:   Segment part 107
           ENTRY                   ADDRESS         REF BY
           =====                   =======         ======
           ChangeShowXstatus       00008C30 
               stack 1 = 00000000 ( 00000004 )
    -------------------------------------------------------------------------
DATA_C
  Relative segment, address: CODE_AREA 0001C384 - 0001C393 (0x10 bytes), align: 2
  Segment part 2.             Intra module refs:   Segment part 163
    -------------------------------------------------------------------------
DATA_C
  Relative segment, address: CODE_AREA 0001C394 - 0001C3A3 (0x10 bytes), align: 2
  Segment part 3.             Intra module refs:   Segment part 163
    -------------------------------------------------------------------------
DATA_C
  Relative segment, address: CODE_AREA 0001C3A4 - 0001C477 (0xd4 bytes), align: 2
  Segment part 4.             Intra module refs:   DrawSoftInfo
                                                   I_DrawList
                                                   Segment part 183
                                                   Segment part 510
           ENTRY                   ADDRESS         REF BY
           =====                   =======         ======
           menutext                0001C3A4 
    -------------------------------------------------------------------------
DATA_C
  Relative segment, address: CODE_AREA 0001C478 - 0001C603 (0x18c bytes), align: 2
  Segment part 5.             Intra module refs:   init_time_zone
    -------------------------------------------------------------------------
DATA_C
  Relative segment, address: CODE_AREA 0001C604 - 0001C623 (0x20 bytes), align: 2
  Segment part 6.             Intra module refs:   DrawOnlineTime
    -------------------------------------------------------------------------
DATA_C
  Relative segment, address: CODE_AREA 0001C624 - 0001C633 (0x10 bytes), align: 2
  Segment part 7.             Intra module refs:   DrawAutoMSG
    -------------------------------------------------------------------------
DATA_C
  Relative segment, address: CODE_AREA 0001C634 - 0001C68B (0x58 bytes), align: 2
  Segment part 9.             Intra module refs:   InputAwayMsg
           ENTRY                   ADDRESS         REF BY
           =====                   =======         ======
           input_awaymsg_desc      0001C634 
           input_awaymsg_hdr       0001C66C 
    -------------------------------------------------------------------------
DATA_C
  Relative segment, address: CODE_AREA 0001C68C - 0001C697 (0xc bytes), align: 2
  Segment part 10.            Intra module refs:   XStatusToIMGHDR
    -------------------------------------------------------------------------
DATA_C
  Relative segment, address: CODE_AREA 0001C698 - 0001C6A7 (0x10 bytes), align: 2
  Segment part 13.            Intra module refs:   LoadTemplates
    -------------------------------------------------------------------------
DATA_C
  Relative segment, address: CODE_AREA 0001C6A8 - 0001C6E3 (0x3c bytes), align: 2
  Segment part 14.            Intra module refs:   CreateCLFile
    -------------------------------------------------------------------------
CODE
  Relative segment, address: CODE_AREA 00008C5C - 00008CE3 (0x88 bytes), align: 2
  Segment part 465.           Intra module refs:   I_DrawList
           ENTRY                   ADDRESS         REF BY
           =====                   =======         ======
           DrawIconInfo            00008C5C 
               stack 1 = 00000000 ( 00000010 )
    -------------------------------------------------------------------------
CODE
  Relative segment, address: CODE_AREA 00008CE4 - 0000905B (0x378 bytes), align: 2
  Segment part 467.           Intra module refs:   I_OnRedraw
           ENTRY                   ADDRESS         REF BY
           =====                   =======         ======
           I_DrawList              00008CE4 
               stack 1 = 00000000 ( 00000054 )
    -------------------------------------------------------------------------
CODE
  Relative segment, address: CODE_AREA 0000905C - 00009077 (0x1c bytes), align: 2
  Segment part 469.           Intra module refs:   I_OnKey
           ENTRY                   ADDRESS         REF BY
           =====                   =======         ======
           I_MoveUp                0000905C 
    -------------------------------------------------------------------------
CODE
  Relative segment, address: CODE_AREA 00009078 - 00009093 (0x1c bytes), align: 2
  Segment part 471.           Intra module refs:   I_OnKey
           ENTRY                   ADDRESS         REF BY
           =====                   =======         ======
           I_MoveDown              00009078 
    -------------------------------------------------------------------------
CODE
  Relative segment, address: CODE_AREA 00009094 - 0000926F (0x1dc bytes), align: 2
  Segment part 475.           Intra module refs:   I_gui_methods
           ENTRY                   ADDRESS         REF BY
           =====                   =======         ======
           I_OnRedraw              00009094 
               stack 1 = 00000000 ( 00000064 )
    -------------------------------------------------------------------------
CODE
  Relative segment, address: CODE_AREA 00009270 - 0000933F (0xd0 bytes), align: 2
  Segment part 477.           Intra module refs:   I_gui_methods
           ENTRY                   ADDRESS         REF BY
           =====                   =======         ======
           I_onCreate              00009270 
               stack 1 = 00000000 ( 00000024 )
    -------------------------------------------------------------------------
CODE
  Relative segment, address: CODE_AREA 00009340 - 00009343 (0x4 bytes), align: 2
  Segment part 478.           Intra module refs:   I_onCreate
    -------------------------------------------------------------------------
CODE
  Relative segment, address: CODE_AREA 00009344 - 00009347 (0x4 bytes), align: 2
  Segment part 479.           Intra module refs:   I_onCreate
    -------------------------------------------------------------------------
CODE
  Relative segment, address: CODE_AREA 00009348 - 0000934B (0x4 bytes), align: 2
  Segment part 480.           Intra module refs:   I_OnRedraw
                                                   I_onCreate
    -------------------------------------------------------------------------
CODE
  Relative segment, address: CODE_AREA 0000934C - 0000934F (0x4 bytes), align: 2
  Segment part 481.           Intra module refs:   I_OnRedraw
                                                   I_onCreate
    -------------------------------------------------------------------------
CODE
  Relative segment, address: CODE_AREA 00009350 - 0000937F (0x30 bytes), align: 2
  Segment part 483.           Intra module refs:   I_gui_methods
           ENTRY                   ADDRESS         REF BY
           =====                   =======         ======
           I_onClose               00009350 
               stack 1 = 00000000 ( 00000008 )
    -------------------------------------------------------------------------
CODE
  Relative segment, address: CODE_AREA 00009380 - 00009393 (0x14 bytes), align: 2
  Segment part 485.           Intra module refs:   I_gui_methods
           ENTRY                   ADDRESS         REF BY
           =====                   =======         ======
           I_onFocus               00009380 
               stack 1 = 00000000 ( 00000004 )
    -------------------------------------------------------------------------
CODE
  Relative segment, address: CODE_AREA 00009394 - 000093A7 (0x14 bytes), align: 2
  Segment part 487.           Intra module refs:   I_gui_methods
           ENTRY                   ADDRESS         REF BY
           =====                   =======         ======
           I_onUnfocus             00009394 
    -------------------------------------------------------------------------
CODE
  Relative segment, address: CODE_AREA 000093A8 - 0000946B (0xc4 bytes), align: 2
  Segment part 489.           Intra module refs:   I_gui_methods
           ENTRY                   ADDRESS         REF BY
           =====                   =======         ======
           I_OnKey                 000093A8 
               stack 1 = 00000000 ( 00000010 )
    -------------------------------------------------------------------------
CODE
  Relative segment, address: CODE_AREA 0000946C - 00009473 (0x8 bytes), align: 2
  Segment part 491.           Intra module refs:   I_gui_methods
           ENTRY                   ADDRESS         REF BY
           =====                   =======         ======
           I_method8               0000946C 
    -------------------------------------------------------------------------
CODE
  Relative segment, address: CODE_AREA 00009474 - 0000947B (0x8 bytes), align: 2
  Segment part 493.           Intra module refs:   I_gui_methods
           ENTRY                   ADDRESS         REF BY
           =====                   =======         ======
           I_method9               00009474 
    -------------------------------------------------------------------------
CODE
  Relative segment, address: CODE_AREA 0000947C - 000094BF (0x44 bytes), align: 2
  Segment part 495.           Intra module refs:   ClOnKey
                                                   LongPressActionOnChat
           ENTRY                   ADDRESS         REF BY
           =====                   =======         ======
           CreateContactMenu       0000947C 
               stack 1 = 00000000 ( 00000008 )
    -------------------------------------------------------------------------
CODE
  Relative segment, address: CODE_AREA 000094C0 - 000094C3 (0x4 bytes), align: 2
  Segment part 496.           Intra module refs:   ChangeAutoMsg
                                                   ChangeShowXstatus
                                                   ChangeSoundContact
                                                   ChangeVibraContact
                                                   CreateContactMenu
                                                   DrawIconInfo
                                                   I_OnKey
    -------------------------------------------------------------------------
CODE
  Relative segment, address: CODE_AREA 000094C4 - 00009513 (0x50 bytes), align: 2
  Segment part 498.           Intra module refs:   ClOnKey
                                                   ClearLog
                                                   GetShortInfo
                                                   LongPressActionOnChat
                                                   ProcessPacket
                                                   SendAuthGrant
                                                   SendAuthReq
                                                   edchat_ghook
                                                   edchat_onkey
                                                   maincsm_onmessage
           ENTRY                   ADDRESS         REF BY
           =====                   =======         ======
           RecountMenu             000094C4        ChangeShowGroupsMode (mainmenu)
                                                   ChangeShowOfflineMode (mainmenu)
                                                   CheckComand2 (addon)
               stack 1 = 00000000 ( 00000010 )
    -------------------------------------------------------------------------
CODE
  Relative segment, address: CODE_AREA 00009514 - 0000956F (0x5c bytes), align: 2
  Segment part 505.           Intra module refs:   DrawSoftInfo
           ENTRY                   ADDRESS         REF BY
           =====                   =======         ======
           DoScreen3               00009514 
               stack 1 = 00000000 ( 00000018 )
    -------------------------------------------------------------------------
CODE
  Relative segment, address: CODE_AREA 00009570 - 0000978B (0x21c bytes), align: 2
  Segment part 507.           Intra module refs:   DrawContactList
           ENTRY                   ADDRESS         REF BY
           =====                   =======         ======
           DrawSoftKeys            00009570        MM_OnRedraw (mainmenu)
                                                   SC_OnRedraw (status_change)
                                                   XS_onCreate (status_change)
               stack 1 = 00000000 ( 00000048 )
    -------------------------------------------------------------------------
CODE
  Relative segment, address: CODE_AREA 0000978C - 0000978F (0x4 bytes), align: 2
  Segment part 508.           Intra module refs:   DrawSoftKeys
                                                   I_DrawList
                                                   RecountMenu
    -------------------------------------------------------------------------
CODE
  Relative segment, address: CODE_AREA 00009790 - 00009793 (0x4 bytes), align: 2
  Segment part 509.           Intra module refs:   DrawSoftKeys
                                                   I_DrawList
                                                   I_MoveDown
                                                   I_MoveUp
                                                   I_OnKey
    -------------------------------------------------------------------------
CODE
  Relative segment, address: CODE_AREA 00009794 - 00009797 (0x4 bytes), align: 2
  Segment part 510.           Intra module refs:   DrawSoftKeys
    -------------------------------------------------------------------------
CODE
  Relative segment, address: CODE_AREA 00009798 - 00009B57 (0x3c0 bytes), align: 2
  Segment part 512.           Intra module refs:   DrawList
           ENTRY                   ADDRESS         REF BY
           =====                   =======         ======
           DrawSoftInfo            00009798 
               stack 1 = 00000000 ( 0000005C )
    -------------------------------------------------------------------------
CODE
  Relative segment, address: CODE_AREA 00009B58 - 00009B5B (0x4 bytes), align: 2
  Segment part 513.           Intra module refs:   DrawSoftInfo
                                                   DrawSoftKeys
    -------------------------------------------------------------------------
CODE
  Relative segment, address: CODE_AREA 00009B5C - 00009B5F (0x4 bytes), align: 2
  Segment part 514.           Intra module refs:   DoScreen3
                                                   DrawSoftInfo
    -------------------------------------------------------------------------
CODE
  Relative segment, address: CODE_AREA 00009B60 - 00009B63 (0x4 bytes), align: 2
  Segment part 515.           Intra module refs:   DrawSoftInfo
                                                   DrawSoftKeys
    -------------------------------------------------------------------------
CODE
  Relative segment, address: CODE_AREA 00009B64 - 00009B67 (0x4 bytes), align: 2
  Segment part 516.           Intra module refs:   DrawSoftInfo
                                                   DrawSoftKeys
    -------------------------------------------------------------------------
CODE
  Relative segment, address: CODE_AREA 00009B68 - 0000A1CB (0x664 bytes), align: 2
  Segment part 520.           Intra module refs:   DrawContactList
                                                   I_OnRedraw
           ENTRY                   ADDRESS         REF BY
           =====                   =======         ======
           DrawHeader              00009B68        MM_onFocus (mainmenu)
                                                   SC_OnKey (status_change)
                                                   XS_OnKey (status_change)
                                                   method0 (select_smile)
               stack 1 = 00000000 ( 0000004C )
    -------------------------------------------------------------------------
CODE
  Relative segment, address: CODE_AREA 0000A1CC - 0000A1CF (0x4 bytes), align: 2
  Segment part 521.           Intra module refs:   DrawHeader
    -------------------------------------------------------------------------
CODE
  Relative segment, address: CODE_AREA 0000A1D0 - 0000A1D3 (0x4 bytes), align: 2
  Segment part 522.           Intra module refs:   DrawHeader
                                                   DrawSoftInfo
                                                   DrawSoftKeys
    -------------------------------------------------------------------------
CODE
  Relative segment, address: CODE_AREA 0000A1D4 - 0000A34B (0x178 bytes), align: 2
  Segment part 524.           Intra module refs:   DrawList
           ENTRY                   ADDRESS         REF BY
           =====                   =======         ======
           DrawScrollBar           0000A1D4 
               stack 1 = 00000000 ( 0000003C )
    -------------------------------------------------------------------------
CODE
  Relative segment, address: CODE_AREA 0000A34C - 0000A34F (0x4 bytes), align: 2
  Segment part 525.           Intra module refs:   DrawHeader
                                                   DrawScrollBar
                                                   DrawSoftInfo
    -------------------------------------------------------------------------
CODE
  Relative segment, address: CODE_AREA 0000A350 - 0000A3B3 (0x64 bytes), align: 2
  Segment part 527.           Intra module refs:   DrawContactList
                                                   DrawHeader
                                                   DrawList
                                                   DrawLoadScreen
                                                   DrawSoftInfo
                                                   I_DrawList
                                                   I_OnRedraw
                                                   show_off_contact
                                                   show_on_contact
           ENTRY                   ADDRESS         REF BY
           =====                   =======         ======
           DrwImage                0000A350        DrawIcon (mainmenu)
                                                   MM_OnRedraw (mainmenu)
                                                   SC_DrawList (status_change)
                                                   SC_OnRedraw (status_change)
                                                   XS_DrawList (status_change)
                                                   XS_OnRedraw (status_change)
                                                   method0 (screen_save)
               stack 1 = 00000000 ( 00000038 )
    -------------------------------------------------------------------------
CODE
  Relative segment, address: CODE_AREA 0000A3B4 - 0000A457 (0xa4 bytes), align: 2
  Segment part 531.           Intra module refs:   DrawList
           ENTRY                   ADDRESS         REF BY
           =====                   =======         ======
           DrawJustNow             0000A3B4 
               stack 1 = 00000000 ( 00000034 )
    -------------------------------------------------------------------------
CODE
  Relative segment, address: CODE_AREA 0000A458 - 0000A45B (0x4 bytes), align: 2
  Segment part 532.           Intra module refs:   DrawHeader
                                                   DrawJustNow
                                                   DrawScrollBar
    -------------------------------------------------------------------------
CODE
  Relative segment, address: CODE_AREA 0000A45C - 0000A50F (0xb4 bytes), align: 2
  Segment part 536.           Intra module refs:   DrawList
           ENTRY                   ADDRESS         REF BY
           =====                   =======         ======
           GetAck                  0000A45C 
               stack 1 = 00000000 ( 00000008 )
    -------------------------------------------------------------------------
CODE
  Relative segment, address: CODE_AREA 0000A510 - 0000B04F (0xb40 bytes), align: 2
  Segment part 538.           Intra module refs:   DrawContactList
           ENTRY                   ADDRESS         REF BY
           =====                   =======         ======
           DrawList                0000A510 
               stack 1 = 00000000 ( 000000C4 )
    -------------------------------------------------------------------------
CODE
  Relative segment, address: CODE_AREA 0000B050 - 0000B053 (0x4 bytes), align: 2
  Segment part 539.           Intra module refs:   DrawList
    -------------------------------------------------------------------------
CODE
  Relative segment, address: CODE_AREA 0000B054 - 0000B057 (0x4 bytes), align: 2
  Segment part 540.           Intra module refs:   DrawList
    -------------------------------------------------------------------------
CODE
  Relative segment, address: CODE_AREA 0000B058 - 0000B05B (0x4 bytes), align: 2
  Segment part 541.           Intra module refs:   DrawList
    -------------------------------------------------------------------------
CODE
  Relative segment, address: CODE_AREA 0000B05C - 0000B05F (0x4 bytes), align: 2
  Segment part 542.           Intra module refs:   DrawList
    -------------------------------------------------------------------------
CODE
  Relative segment, address: CODE_AREA 0000B060 - 0000B063 (0x4 bytes), align: 2
  Segment part 543.           Intra module refs:   DrawList
                                                   GetAck
    -------------------------------------------------------------------------
CODE
  Relative segment, address: CODE_AREA 0000B064 - 0000B067 (0x4 bytes), align: 2
  Segment part 544.           Intra module refs:   DrawList
    -------------------------------------------------------------------------
CODE
  Relative segment, address: CODE_AREA 0000B068 - 0000B133 (0xcc bytes), align: 2
  Segment part 546.           Intra module refs:   ClOnKey
           ENTRY                   ADDRESS         REF BY
           =====                   =======         ======
           MoveUp2                 0000B068 
               stack 1 = 00000000 ( 00000010 )
    -------------------------------------------------------------------------
CODE
  Relative segment, address: CODE_AREA 0000B134 - 0000B1B3 (0x80 bytes), align: 2
  Segment part 548.           Intra module refs:   ClOnKey
           ENTRY                   ADDRESS         REF BY
           =====                   =======         ======
           MoveDown2               0000B134 
               stack 1 = 00000000 ( 00000010 )
    -------------------------------------------------------------------------
CODE
  Relative segment, address: CODE_AREA 0000B1B4 - 0000B24F (0x9c bytes), align: 2
  Segment part 550.           Intra module refs:   ClOnKey
           ENTRY                   ADDRESS         REF BY
           =====                   =======         ======
           MoveUp                  0000B1B4 
               stack 1 = 00000000 ( 00000008 )
    -------------------------------------------------------------------------
CODE
  Relative segment, address: CODE_AREA 0000B250 - 0000B2B7 (0x68 bytes), align: 2
  Segment part 552.           Intra module refs:   ClOnKey
           ENTRY                   ADDRESS         REF BY
           =====                   =======         ======
           MoveDown                0000B250 
               stack 1 = 00000000 ( 00000004 )
    -------------------------------------------------------------------------
CODE
  Relative segment, address: CODE_AREA 0000B2B8 - 0000B2BB (0x4 bytes), align: 2
  Segment part 553.           Intra module refs:   DrawList
                                                   MoveDown
                                                   MoveDown2
                                                   MoveUp
                                                   MoveUp2
    -------------------------------------------------------------------------
CODE
  Relative segment, address: CODE_AREA 0000B2BC - 0000B3BF (0x104 bytes), align: 2
  Segment part 555.           Intra module refs:   DrawContactList
           ENTRY                   ADDRESS         REF BY
           =====                   =======         ======
           PrintMessage            0000B2BC 
               stack 1 = 00000000 ( 00000044 )
    -------------------------------------------------------------------------
CODE
  Relative segment, address: CODE_AREA 0000B3C0 - 0000B3C3 (0x4 bytes), align: 2
  Segment part 556.           Intra module refs:   DrawList
                                                   MoveDown
                                                   MoveDown2
                                                   MoveUp
                                                   MoveUp2
                                                   PrintMessage
    -------------------------------------------------------------------------
CODE
  Relative segment, address: CODE_AREA 0000B3C4 - 0000B493 (0xd0 bytes), align: 2
  Segment part 558.           Intra module refs:   method0
           ENTRY                   ADDRESS         REF BY
           =====                   =======         ======
           DrawContactList         0000B3C4 
               stack 1 = 00000000 ( 00000020 )
    -------------------------------------------------------------------------
CODE
  Relative segment, address: CODE_AREA 0000B494 - 0000B497 (0x4 bytes), align: 2
  Segment part 559.           Intra module refs:   DrawContactList
                                                   DrawList
    -------------------------------------------------------------------------
CODE
  Relative segment, address: CODE_AREA 0000B498 - 0000BA5B (0x5c4 bytes), align: 2
  Segment part 561.           Intra module refs:   method5
           ENTRY                   ADDRESS         REF BY
           =====                   =======         ======
           ClOnKey                 0000B498 
               stack 1 = 00000000 ( 00000028 )
    -------------------------------------------------------------------------
CODE
  Relative segment, address: CODE_AREA 0000BA5C - 0000BA5F (0x4 bytes), align: 2
  Segment part 562.           Intra module refs:   ClOnKey
    -------------------------------------------------------------------------
CODE
  Relative segment, address: CODE_AREA 0000BA60 - 0000BA63 (0x4 bytes), align: 2
  Segment part 563.           Intra module refs:   ClOnKey
    -------------------------------------------------------------------------
CODE
  Relative segment, address: CODE_AREA 0000BA64 - 0000BEC7 (0x464 bytes), align: 2
  Segment part 565.           Intra module refs:   method0
           ENTRY                   ADDRESS         REF BY
           =====                   =======         ======
           DrawLoadScreen          0000BA64 
               stack 1 = 00000000 ( 00000058 )
    -------------------------------------------------------------------------
CODE
  Relative segment, address: CODE_AREA 0000BEC8 - 0000BF0F (0x48 bytes), align: 2
  Segment part 567.           Intra module refs:   Segment part 15
           ENTRY                   ADDRESS         REF BY
           =====                   =======         ======
           method0                 0000BEC8 
               stack 1 = 00000000 ( 00000008 )
    -------------------------------------------------------------------------
CODE
  Relative segment, address: CODE_AREA 0000BF10 - 0000BF13 (0x4 bytes), align: 2
  Segment part 568.           Intra module refs:   method0
    -------------------------------------------------------------------------
CODE
  Relative segment, address: CODE_AREA 0000BF14 - 0000BF9F (0x8c bytes), align: 2
  Segment part 570.           Intra module refs:   Segment part 15
           ENTRY                   ADDRESS         REF BY
           =====                   =======         ======
           method1                 0000BF14 
               stack 1 = 00000000 ( 0000000C )
    -------------------------------------------------------------------------
CODE
  Relative segment, address: CODE_AREA 0000BFA0 - 0000BFA3 (0x4 bytes), align: 2
  Segment part 571.           Intra module refs:   method1
    -------------------------------------------------------------------------
CODE
  Relative segment, address: CODE_AREA 0000BFA4 - 0000BFA7 (0x4 bytes), align: 2
  Segment part 572.           Intra module refs:   method1
    -------------------------------------------------------------------------
CODE
  Relative segment, address: CODE_AREA 0000BFA8 - 0000BFDF (0x38 bytes), align: 2
  Segment part 574.           Intra module refs:   Segment part 15
           ENTRY                   ADDRESS         REF BY
           =====                   =======         ======
           method2                 0000BFA8 
               stack 1 = 00000000 ( 0000000C )
    -------------------------------------------------------------------------
CODE
  Relative segment, address: CODE_AREA 0000BFE0 - 0000BFE3 (0x4 bytes), align: 2
  Segment part 575.           Intra module refs:   method2
    -------------------------------------------------------------------------
CODE
  Relative segment, address: CODE_AREA 0000BFE4 - 0000BFFB (0x18 bytes), align: 2
  Segment part 577.           Intra module refs:   Segment part 15
           ENTRY                   ADDRESS         REF BY
           =====                   =======         ======
           method3                 0000BFE4 
               stack 1 = 00000000 ( 00000008 )
    -------------------------------------------------------------------------
CODE
  Relative segment, address: CODE_AREA 0000BFFC - 0000C00F (0x14 bytes), align: 2
  Segment part 579.           Intra module refs:   Segment part 15
           ENTRY                   ADDRESS         REF BY
           =====                   =======         ======
           method4                 0000BFFC 
    -------------------------------------------------------------------------
CODE
  Relative segment, address: CODE_AREA 0000C010 - 0000C1AB (0x19c bytes), align: 2
  Segment part 581.           Intra module refs:   method5
           ENTRY                   ADDRESS         REF BY
           =====                   =======         ======
           LoadOnKey               0000C010 
               stack 1 = 00000000 ( 00000030 )
    -------------------------------------------------------------------------
CODE
  Relative segment, address: CODE_AREA 0000C1AC - 0000C1AF (0x4 bytes), align: 2
  Segment part 582.           Intra module refs:   DrawLoadScreen
                                                   LoadOnKey
    -------------------------------------------------------------------------
CODE
  Relative segment, address: CODE_AREA 0000C1B0 - 0000C1B3 (0x4 bytes), align: 2
  Segment part 583.           Intra module refs:   ClOnKey
                                                   DrawContactList
                                                   DrawLoadScreen
                                                   LoadOnKey
                                                   method1
    -------------------------------------------------------------------------
CODE
  Relative segment, address: CODE_AREA 0000C1B4 - 0000C1B7 (0x4 bytes), align: 2
  Segment part 584.           Intra module refs:   LoadOnKey
    -------------------------------------------------------------------------
CODE
  Relative segment, address: CODE_AREA 0000C1B8 - 0000C1EB (0x34 bytes), align: 2
  Segment part 586.           Intra module refs:   Segment part 15
           ENTRY                   ADDRESS         REF BY
           =====                   =======         ======
           method5                 0000C1B8 
               stack 1 = 00000000 ( 00000008 )
    -------------------------------------------------------------------------
CODE
  Relative segment, address: CODE_AREA 0000C1EC - 0000C1EF (0x4 bytes), align: 2
  Segment part 587.           Intra module refs:   method0
                                                   method5
    -------------------------------------------------------------------------
CODE
  Relative segment, address: CODE_AREA 0000C1F0 - 0000C1F7 (0x8 bytes), align: 2
  Segment part 589.           Intra module refs:   Segment part 15
           ENTRY                   ADDRESS         REF BY
           =====                   =======         ======
           method8                 0000C1F0 
    -------------------------------------------------------------------------
CODE
  Relative segment, address: CODE_AREA 0000C1F8 - 0000C1FF (0x8 bytes), align: 2
  Segment part 591.           Intra module refs:   Segment part 15
           ENTRY                   ADDRESS         REF BY
           =====                   =======         ======
           method9                 0000C1F8 
    -------------------------------------------------------------------------
CODE
  Relative segment, address: CODE_AREA 0000C200 - 0000C2AF (0xb0 bytes), align: 2
  Segment part 593.           Intra module refs:   Segment part 603
                                                   Segment part 658
           ENTRY                   ADDRESS         REF BY
           =====                   =======         ======
           my_keyhook              0000C200 
               stack 1 = 00000000 ( 00000010 )
    -------------------------------------------------------------------------
CODE
  Relative segment, address: CODE_AREA 0000C2B0 - 0000C2B3 (0x4 bytes), align: 2
  Segment part 594.           Intra module refs:   ClOnKey
                                                   DrawLoadScreen
                                                   LoadOnKey
                                                   my_keyhook
    -------------------------------------------------------------------------
DATA_C
  Relative segment, address: CODE_AREA 0001C6E4 - 0001CA9F (0x3bc bytes), align: 2
  Segment part 15.            Intra module refs:   DrawList
                                                   Segment part 318
                                                   Segment part 347
                                                   Segment part 385
                                                   Segment part 452
                                                   Segment part 542
                                                   Segment part 617
                                                   Segment part 643
                                                   get_answer
                                                   maincsm_oncreate
           ENTRY                   ADDRESS         REF BY
           =====                   =======         ======
           Canvas                  0001C6E4 
           _d                      0001C6F2 
           gui_methods             0001CA74 
           ipc_my_name             0001CA3C        CheckComand2 (addon)
                                                   Segment part 31 (smiles_loader)
           ipc_xtask_name          0001CA5C        CheckComand2 (addon)
           percent_d               0001C6EF 
           percent_s               0001C6EC        InitXText (status_change)
           x_status_change         0001CA64 
    -------------------------------------------------------------------------
DATA_C
  Relative segment, address: CODE_AREA 0001CAA0 - 0001CAAB (0xc bytes), align: 2
  Segment part 16.            Intra module refs:   Segment part 122
    -------------------------------------------------------------------------
DATA_C
  Relative segment, address: CODE_AREA 0001CAAC - 0001CAD3 (0x28 bytes), align: 2
  Segment part 18.            Intra module refs:   SendAnswer
    -------------------------------------------------------------------------
DATA_C
  Relative segment, address: CODE_AREA 0001CAD4 - 0001CADB (0x8 bytes), align: 2
  Segment part 21.            Intra module refs:   AddToMain
    -------------------------------------------------------------------------
DATA_C
  Relative segment, address: CODE_AREA 0001CADC - 0001CB1B (0x40 bytes), align: 2
  Segment part 22.            Intra module refs:   AddStringToLog
    -------------------------------------------------------------------------
DATA_C
  Relative segment, address: CODE_AREA 0001CB1C - 0001CB27 (0xc bytes), align: 2
  Segment part 23.            Intra module refs:   LoadCmd
    -------------------------------------------------------------------------
DATA_C
  Relative segment, address: CODE_AREA 0001CB28 - 0001CB73 (0x4c bytes), align: 2
  Segment part 24.            Intra module refs:   DispCmdMenu
    -------------------------------------------------------------------------
DATA_C
  Relative segment, address: CODE_AREA 0001CB74 - 0001CBF7 (0x84 bytes), align: 2
  Segment part 25.            Intra module refs:   GetStatusByIconIndex
    -------------------------------------------------------------------------
DATA_C
  Relative segment, address: CODE_AREA 0001CBF8 - 0001D06B (0x474 bytes), align: 2
  Segment part 27.            Intra module refs:   CheckComand
    -------------------------------------------------------------------------
DATA_C
  Relative segment, address: CODE_AREA 0001D06C - 0001D073 (0x8 bytes), align: 2
  Segment part 29.            Intra module refs:   show_on_contact
    -------------------------------------------------------------------------
DATA_C
  Relative segment, address: CODE_AREA 0001D074 - 0001D07B (0x8 bytes), align: 2
  Segment part 30.            Intra module refs:   show_off_contact
    -------------------------------------------------------------------------
DATA_C
  Relative segment, address: CODE_AREA 0001D07C - 0001D083 (0x8 bytes), align: 2
  Segment part 31.            Intra module refs:   show_pp_sender
    -------------------------------------------------------------------------
DATA_C
  Relative segment, address: CODE_AREA 0001D084 - 0001D08B (0x8 bytes), align: 2
  Segment part 34.            Intra module refs:   I_onCreate
    -------------------------------------------------------------------------
DATA_C
  Relative segment, address: CODE_AREA 0001D08C - 0001D0D3 (0x48 bytes), align: 2
  Segment part 35.            Intra module refs:   DrawHeader
    -------------------------------------------------------------------------
DATA_C
  Relative segment, address: CODE_AREA 0001D0D4 - 0001D0DB (0x8 bytes), align: 2
  Segment part 41.            Intra module refs:   PrintMessage
    -------------------------------------------------------------------------
DATA_C
  Relative segment, address: CODE_AREA 0001D0DC - 0001D0E3 (0x8 bytes), align: 2
  Segment part 42.            Intra module refs:   DrawContactList
                                                   Segment part 162
    -------------------------------------------------------------------------
DATA_C
  Relative segment, address: CODE_AREA 0001D0E4 - 0001D16F (0x8c bytes), align: 2
  Segment part 43.            Intra module refs:   DrawLoadScreen
           ENTRY                   ADDRESS         REF BY
           =====                   =======         ======
           empty_str               0001D0E7 
           percent_t               0001D0E4 
    -------------------------------------------------------------------------
DATA_C
  Relative segment, address: CODE_AREA 0001D170 - 0001D17B (0xc bytes), align: 2
  Segment part 44.            Intra module refs:   Segment part 118
    -------------------------------------------------------------------------
DATA_C
  Relative segment, address: CODE_AREA 0001D17C - 0001D187 (0xc bytes), align: 2
  Segment part 45.            Intra module refs:   UpdateCSMname
    -------------------------------------------------------------------------
DATA_C
  Relative segment, address: CODE_AREA 0001D188 - 0001D1E3 (0x5c bytes), align: 2
  Segment part 46.            Intra module refs:   ed_options_handler
    -------------------------------------------------------------------------
DATA_C
  Relative segment, address: CODE_AREA 0001D1E4 - 0001D287 (0xa4 bytes), align: 2
  Segment part 47.            Intra module refs:   Segment part 678
    -------------------------------------------------------------------------
DATA_C
  Relative segment, address: CODE_AREA 0001D288 - 0001D297 (0x10 bytes), align: 2
  Segment part 48.            Intra module refs:   edchat_onkey
    -------------------------------------------------------------------------
CODE
  Relative segment, address: CODE_AREA 0000C2B4 - 0000C3EB (0x138 bytes), align: 2
  Segment part 596.           Intra module refs:   Segment part 160
           ENTRY                   ADDRESS         REF BY
           =====                   =======         ======
           maincsm_oncreate        0000C2B4 
               stack 1 = 00000000 ( 00000114 )
    -------------------------------------------------------------------------
CODE
  Relative segment, address: CODE_AREA 0000C3EC - 0000C3EF (0x4 bytes), align: 2
  Segment part 597.           Intra module refs:   maincsm_oncreate
    -------------------------------------------------------------------------
CODE
  Relative segment, address: CODE_AREA 0000C3F0 - 0000C3F3 (0x4 bytes), align: 2
  Segment part 598.           Intra module refs:   maincsm_oncreate
    -------------------------------------------------------------------------
CODE
  Relative segment, address: CODE_AREA 0000C3F4 - 0000C3F7 (0x4 bytes), align: 2
  Segment part 599.           Intra module refs:   maincsm_oncreate
    -------------------------------------------------------------------------
CODE
  Relative segment, address: CODE_AREA 0000C3F8 - 0000C3FB (0x4 bytes), align: 2
  Segment part 600.           Intra module refs:   ClOnKey
                                                   maincsm_oncreate
    -------------------------------------------------------------------------
CODE
  Relative segment, address: CODE_AREA 0000C3FC - 0000C54F (0x154 bytes), align: 2
  Segment part 602.           Intra module refs:   Segment part 160
           ENTRY                   ADDRESS         REF BY
           =====                   =======         ======
           maincsm_onclose         0000C3FC 
               stack 1 = 00000000 ( 00000008 )
    -------------------------------------------------------------------------
CODE
  Relative segment, address: CODE_AREA 0000C550 - 0000C553 (0x4 bytes), align: 2
  Segment part 603.           Intra module refs:   maincsm_onclose
    -------------------------------------------------------------------------
CODE
  Relative segment, address: CODE_AREA 0000C554 - 0000C557 (0x4 bytes), align: 2
  Segment part 604.           Intra module refs:   LoadOnKey
                                                   maincsm_onclose
    -------------------------------------------------------------------------
CODE
  Relative segment, address: CODE_AREA 0000C558 - 0000C55B (0x4 bytes), align: 2
  Segment part 605.           Intra module refs:   maincsm_onclose
    -------------------------------------------------------------------------
CODE
  Relative segment, address: CODE_AREA 0000C55C - 0000C583 (0x28 bytes), align: 2
  Segment part 607.           Intra module refs:   Segment part 320
                                                   Segment part 623
           ENTRY                   ADDRESS         REF BY
           =====                   =======         ======
           do_reconnect            0000C55C 
               stack 1 = 00000000 ( 00000004 )
    -------------------------------------------------------------------------
CODE
  Relative segment, address: CODE_AREA 0000C584 - 0000C587 (0x4 bytes), align: 2
  Segment part 608.           Intra module refs:   LoadOnKey
                                                   do_reconnect
    -------------------------------------------------------------------------
CODE
  Relative segment, address: CODE_AREA 0000C588 - 0000C607 (0x80 bytes), align: 2
  Segment part 610.           Intra module refs:   maincsm_onmessage
           ENTRY                   ADDRESS         REF BY
           =====                   =======         ======
           CheckDoubleRun          0000C588 
               stack 1 = 00000000 ( 00000008 )
    -------------------------------------------------------------------------
CODE
  Relative segment, address: CODE_AREA 0000C608 - 0000C60B (0x4 bytes), align: 2
  Segment part 611.           Intra module refs:   CheckDoubleRun
                                                   maincsm_onclose
                                                   maincsm_oncreate
                                                   my_keyhook
    -------------------------------------------------------------------------
CODE
  Relative segment, address: CODE_AREA 0000C60C - 0000C657 (0x4c bytes), align: 2
  Segment part 613.           Intra module refs:   maincsm_onmessage
                                                   my_keyhook
           ENTRY                   ADDRESS         REF BY
           =====                   =======         ======
           checkGui                0000C60C 
               stack 1 = 00000000 ( 00000008 )
    -------------------------------------------------------------------------
CODE
  Relative segment, address: CODE_AREA 0000C658 - 0000D243 (0xbec bytes), align: 2
  Segment part 615.           Intra module refs:   Segment part 160
           ENTRY                   ADDRESS         REF BY
           =====                   =======         ======
           maincsm_onmessage       0000C658 
               stack 1 = 00000000 ( 00000070 )
    -------------------------------------------------------------------------
CODE
  Relative segment, address: CODE_AREA 0000D244 - 0000D247 (0x4 bytes), align: 2
  Segment part 616.           Intra module refs:   do_reconnect
                                                   maincsm_onmessage
    -------------------------------------------------------------------------
CODE
  Relative segment, address: CODE_AREA 0000D248 - 0000D24B (0x4 bytes), align: 2
  Segment part 617.           Intra module refs:   CheckDoubleRun
                                                   maincsm_onmessage
    -------------------------------------------------------------------------
CODE
  Relative segment, address: CODE_AREA 0000D24C - 0000D24F (0x4 bytes), align: 2
  Segment part 618.           Intra module refs:   maincsm_onmessage
    -------------------------------------------------------------------------
CODE
  Relative segment, address: CODE_AREA 0000D250 - 0000D253 (0x4 bytes), align: 2
  Segment part 619.           Intra module refs:   maincsm_onmessage
    -------------------------------------------------------------------------
CODE
  Relative segment, address: CODE_AREA 0000D254 - 0000D257 (0x4 bytes), align: 2
  Segment part 620.           Intra module refs:   maincsm_onmessage
    -------------------------------------------------------------------------
CODE
  Relative segment, address: CODE_AREA 0000D258 - 0000D25B (0x4 bytes), align: 2
  Segment part 621.           Intra module refs:   maincsm_onmessage
    -------------------------------------------------------------------------
CODE
  Relative segment, address: CODE_AREA 0000D25C - 0000D25F (0x4 bytes), align: 2
  Segment part 622.           Intra module refs:   maincsm_onmessage
    -------------------------------------------------------------------------
CODE
  Relative segment, address: CODE_AREA 0000D260 - 0000D263 (0x4 bytes), align: 2
  Segment part 623.           Intra module refs:   maincsm_onmessage
    -------------------------------------------------------------------------
CODE
  Relative segment, address: CODE_AREA 0000D264 - 0000D267 (0x4 bytes), align: 2
  Segment part 624.           Intra module refs:   maincsm_onmessage
    -------------------------------------------------------------------------
CODE
  Relative segment, address: CODE_AREA 0000D268 - 0000D26B (0x4 bytes), align: 2
  Segment part 625.           Intra module refs:   maincsm_onmessage
    -------------------------------------------------------------------------
CODE
  Relative segment, address: CODE_AREA 0000D26C - 0000D26F (0x4 bytes), align: 2
  Segment part 626.           Intra module refs:   maincsm_onmessage
    -------------------------------------------------------------------------
CODE
  Relative segment, address: CODE_AREA 0000D270 - 0000D273 (0x4 bytes), align: 2
  Segment part 627.           Intra module refs:   maincsm_onmessage
    -------------------------------------------------------------------------
CODE
  Relative segment, address: CODE_AREA 0000D274 - 0000D277 (0x4 bytes), align: 2
  Segment part 628.           Intra module refs:   maincsm_onmessage
    -------------------------------------------------------------------------
CODE
  Relative segment, address: CODE_AREA 0000D278 - 0000D27B (0x4 bytes), align: 2
  Segment part 629.           Intra module refs:   maincsm_onclose
                                                   maincsm_onmessage
    -------------------------------------------------------------------------
CODE
  Relative segment, address: CODE_AREA 0000D27C - 0000D27F (0x4 bytes), align: 2
  Segment part 630.           Intra module refs:   maincsm_onmessage
    -------------------------------------------------------------------------
DATA_I
  Relative segment, address: DATA_AREA 0000001C - 00000143 (0x128 bytes), align: 2
  Segment part 106.           Intra module refs:   CheckComand
                                                   DrawContactList
                                                   Segment part 174
                                                   Segment part 200
                                                   Segment part 209
                                                   Segment part 212
                                                   Segment part 331
                                                   Segment part 342
                                                   Segment part 414
                                                   Segment part 436
                                                   Segment part 448
                                                   Segment part 481
                                                   Segment part 509
                                                   Segment part 514
                                                   Segment part 532
                                                   Segment part 556
                                                   Segment part 575
                                                   Segment part 587
                                                   Segment part 594
                                                   Segment part 597
                                                   Segment part 616
                                                   Segment part 633
                                                   Segment part 690
                                                   Segment part 740
           ENTRY                   ADDRESS         REF BY
           =====                   =======         ======
           DNR_ID                  00000060 
           DNR_TRIES               00000064 
           DoRefreshCL             00000040 
           PrintTimer              00000030 
           RXstate                 0000004C        ab (auth)
           ShowLoadScreen          0000006C        ProcessNextSmile (smiles_loader)
           _to_develop             00000088 
           align                   0000002C 
           amr                     000000B8 
           blue                    0000013C 
           clrBlack                0000012C 
           clrRed                  00000134        DrawAbout (mainmenu)
           clrWhite                00000130        DrawCheckBox (mainmenu)
                                                   DrawList (history)
                                                   Segment part 106 (mainmenu)
                                                   Segment part 121 (status_change)
                                                   Segment part 48 (status_change)
           clstartItem             00000084 
           collum                  00000078 
           connect_state           00000050        ab (auth)
                                                   reftes (screen_save)
           curpage                 00000074 
           curping                 00000034 
           host_counter            00000068 
           i_curpos                00000070 
           iconmsg                 0000008C 
           ifJustNowRefresh        00000044 
           is_gprs_online          00000058 
           menuproc                00000090 
           mp3                     000000B0 
           msg_away_timer          00000048        AutoAwayMSG (mainmenu)
                                                   SC_OnKey (status_change)
                                                   reftes (screen_save)
           on_off_timer            0000005C 
           requests1               000000BC 
           requests2               000000D4 
           requests3               000000E8 
           requests4               00000100 
           requests6               00000114 
           screen3                 0000001C 
           screen4                 00000024 
           sds                     000000A8 
           sendq_l                 00000038        reftes (screen_save)
           sendq_p                 0000003C 
           shot_header             00000080 
           shot_soft               0000007C        Segment part 117 (mainmenu)
           sock                    00000054 
           transparent             00000138        DrawCheckBox (mainmenu)
                                                   DrawList (history)
                                                   Segment part 105 (mainmenu)
                                                   Segment part 120 (status_change)
                                                   Segment part 47 (status_change)
           wav                     000000B4 
    -------------------------------------------------------------------------
DATA_I
  Relative segment, address: DATA_AREA 00000144 - 0000014B (0x8 bytes), align: 2
  Segment part 121.           Intra module refs:   input_awaymsg_ghook
    -------------------------------------------------------------------------
DATA_I
  Relative segment, address: DATA_AREA 0000014C - 00000163 (0x18 bytes), align: 2
  Segment part 123.           Intra module refs:   Segment part 126
           ENTRY                   ADDRESS         REF BY
           =====                   =======         ======
           input_awaymsg_sk        0000014C 
    -------------------------------------------------------------------------
DATA_I
  Relative segment, address: DATA_AREA 00000164 - 0000016B (0x8 bytes), align: 2
  Segment part 125.           Intra module refs:   Segment part 9
           ENTRY                   ADDRESS         REF BY
           =====                   =======         ======
           input_awaymsg_skt       00000164 
    -------------------------------------------------------------------------
DATA_I
  Relative segment, address: DATA_AREA 0000016C - 00000183 (0x18 bytes), align: 2
  Segment part 136.           Intra module refs:   CmdMenuKeyHook
                                                   DispCmdMenu
           ENTRY                   ADDRESS         REF BY
           =====                   =======         ======
           CmdMenuHeader           0000016C 
           NumOfItems              00000180 
    -------------------------------------------------------------------------
CODE
  Relative segment, address: CODE_AREA 0000D280 - 0000D567 (0x2e8 bytes), align: 2
  Segment part 632.           Intra module refs:   Segment part 655
           ENTRY                   ADDRESS         REF BY
           =====                   =======         ======
           addIconBar              0000D280 
               stack 1 = 00000000 ( 00000018 )
    -------------------------------------------------------------------------
CODE
  Relative segment, address: CODE_AREA 0000D568 - 0000D56B (0x4 bytes), align: 2
  Segment part 633.           Intra module refs:   addIconBar
    -------------------------------------------------------------------------
CODE
  Relative segment, address: CODE_AREA 0000D56C - 0000D56F (0x4 bytes), align: 2
  Segment part 634.           Intra module refs:   addIconBar
                                                   maincsm_onmessage
    -------------------------------------------------------------------------
CODE
  Relative segment, address: CODE_AREA 0000D570 - 0000D573 (0x4 bytes), align: 2
  Segment part 635.           Intra module refs:   addIconBar
                                                   maincsm_onmessage
    -------------------------------------------------------------------------
CODE
  Relative segment, address: CODE_AREA 0000D574 - 0000D577 (0x4 bytes), align: 2
  Segment part 636.           Intra module refs:   addIconBar
    -------------------------------------------------------------------------
DATA_I
  Relative segment, address: DATA_AREA 00000184 - 000001CB (0x48 bytes), align: 2
  Segment part 159.           Intra module refs:   SetIconBarHandler
                                                   UpdateCSMname
                                                   main
           ENTRY                   ADDRESS         REF BY
           =====                   =======         ======
           MAINCSM                 00000184 
    -------------------------------------------------------------------------
CODE
  Relative segment, address: CODE_AREA 0000D578 - 0000D59B (0x24 bytes), align: 2
  Segment part 638.           Intra module refs:   main
           ENTRY                   ADDRESS         REF BY
           =====                   =======         ======
           UpdateCSMname           0000D578 
               stack 1 = 00000000 ( 00000004 )
    -------------------------------------------------------------------------
CODE
  Relative segment, address: CODE_AREA 0000D59C - 0000D5AF (0x14 bytes), align: 2
  Segment part 640.
           ENTRY                   ADDRESS         REF BY
           =====                   =======         ======
           SetIconBarHandler       0000D59C        SC_OnKey (status_change)
                                                   XS_OnKey (status_change)
    -------------------------------------------------------------------------
CODE
  Relative segment, address: CODE_AREA 0000D5B0 - 0000D7FB (0x24c bytes), align: 2
  Segment part 642.
           ENTRY                   ADDRESS         REF BY
           =====                   =======         ======
           main                    0000D5B0        Absolute parts (?ABS_ENTRY_MOD)
               stack 1 = 00000000 ( 00000050 )
    -------------------------------------------------------------------------
CODE
  Relative segment, address: CODE_AREA 0000D7FC - 0000D7FF (0x4 bytes), align: 2
  Segment part 643.           Intra module refs:   main
    -------------------------------------------------------------------------
CODE
  Relative segment, address: CODE_AREA 0000D800 - 0000D803 (0x4 bytes), align: 2
  Segment part 644.           Intra module refs:   UpdateCSMname
                                                   main
                                                   maincsm_onmessage
    -------------------------------------------------------------------------
CODE
  Relative segment, address: CODE_AREA 0000D804 - 0000D807 (0x4 bytes), align: 2
  Segment part 645.           Intra module refs:   main
                                                   maincsm_onmessage
    -------------------------------------------------------------------------
CODE
  Relative segment, address: CODE_AREA 0000D808 - 0000D80B (0x4 bytes), align: 2
  Segment part 646.           Intra module refs:   main
    -------------------------------------------------------------------------
CODE
  Relative segment, address: CODE_AREA 0000D80C - 0000D80F (0x4 bytes), align: 2
  Segment part 647.           Intra module refs:   main
                                                   maincsm_onmessage
    -------------------------------------------------------------------------
CODE
  Relative segment, address: CODE_AREA 0000D810 - 0000D813 (0x4 bytes), align: 2
  Segment part 648.           Intra module refs:   main
                                                   maincsm_onmessage
    -------------------------------------------------------------------------
CODE
  Relative segment, address: CODE_AREA 0000D814 - 0000D817 (0x4 bytes), align: 2
  Segment part 649.           Intra module refs:   main
                                                   maincsm_onmessage
    -------------------------------------------------------------------------
CODE
  Relative segment, address: CODE_AREA 0000D818 - 0000D81B (0x4 bytes), align: 2
  Segment part 650.           Intra module refs:   main
                                                   maincsm_onmessage
    -------------------------------------------------------------------------
CODE
  Relative segment, address: CODE_AREA 0000D81C - 0000D81F (0x4 bytes), align: 2
  Segment part 651.           Intra module refs:   main
    -------------------------------------------------------------------------
CODE
  Relative segment, address: CODE_AREA 0000D820 - 0000D823 (0x4 bytes), align: 2
  Segment part 652.           Intra module refs:   main
    -------------------------------------------------------------------------
CODE
  Relative segment, address: CODE_AREA 0000D824 - 0000D827 (0x4 bytes), align: 2
  Segment part 653.           Intra module refs:   main
                                                   maincsm_onmessage
    -------------------------------------------------------------------------
CODE
  Relative segment, address: CODE_AREA 0000D828 - 0000D82B (0x4 bytes), align: 2
  Segment part 654.           Intra module refs:   main
                                                   maincsm_onmessage
    -------------------------------------------------------------------------
CODE
  Relative segment, address: CODE_AREA 0000D82C - 0000D82F (0x4 bytes), align: 2
  Segment part 655.           Intra module refs:   SetIconBarHandler
                                                   main
    -------------------------------------------------------------------------
CODE
  Relative segment, address: CODE_AREA 0000D830 - 0000D833 (0x4 bytes), align: 2
  Segment part 656.           Intra module refs:   main
                                                   maincsm_onmessage
    -------------------------------------------------------------------------
CODE
  Relative segment, address: CODE_AREA 0000D834 - 0000D837 (0x4 bytes), align: 2
  Segment part 657.           Intra module refs:   main
    -------------------------------------------------------------------------
CODE
  Relative segment, address: CODE_AREA 0000D838 - 0000D83B (0x4 bytes), align: 2
  Segment part 658.           Intra module refs:   main
    -------------------------------------------------------------------------
CODE
  Relative segment, address: CODE_AREA 0000D83C - 0000D83F (0x4 bytes), align: 2
  Segment part 660.           Intra module refs:   Segment part 49
           ENTRY                   ADDRESS         REF BY
           =====                   =======         ======
           edchat_locret           0000D83C 
    -------------------------------------------------------------------------
CODE
  Relative segment, address: CODE_AREA 0000D840 - 0000D957 (0x118 bytes), align: 2
  Segment part 662.           Intra module refs:   SaveAnswer
           ENTRY                   ADDRESS         REF BY
           =====                   =======         ======
           ExtractAnswer           0000D840 
               stack 1 = 00000000 ( 00000024 )
    -------------------------------------------------------------------------
CODE
  Relative segment, address: CODE_AREA 0000D958 - 0000D997 (0x40 bytes), align: 2
  Segment part 664.           Intra module refs:   ed_options_handler
                                                   edchat_onkey
           ENTRY                   ADDRESS         REF BY
           =====                   =======         ======
           FindNextActiveContact   0000D958 
    -------------------------------------------------------------------------
CODE
  Relative segment, address: CODE_AREA 0000D998 - 0000D9EF (0x58 bytes), align: 2
  Segment part 666.           Intra module refs:   ed_options_handler
                                                   edchat_onkey
           ENTRY                   ADDRESS         REF BY
           =====                   =======         ======
           FindPrevActiveContact   0000D998 
    -------------------------------------------------------------------------
CODE
  Relative segment, address: CODE_AREA 0000D9F0 - 0000D9F3 (0x4 bytes), align: 2
  Segment part 667.           Intra module refs:   FindNextActiveContact
                                                   FindPrevActiveContact
    -------------------------------------------------------------------------
CODE
  Relative segment, address: CODE_AREA 0000D9F4 - 0000DEAB (0x4b8 bytes), align: 2
  Segment part 669.           Intra module refs:   edchat_onkey
           ENTRY                   ADDRESS         REF BY
           =====                   =======         ======
           ed_options_handler      0000D9F4 
               stack 1 = 00000000 ( 00000070 )
    -------------------------------------------------------------------------
CODE
  Relative segment, address: CODE_AREA 0000DEAC - 0000DEAF (0x4 bytes), align: 2
  Segment part 670.           Intra module refs:   ed_options_handler
                                                   main
    -------------------------------------------------------------------------
CODE
  Relative segment, address: CODE_AREA 0000DEB0 - 0000DEB3 (0x4 bytes), align: 2
  Segment part 671.           Intra module refs:   ed_options_handler
    -------------------------------------------------------------------------
CODE
  Relative segment, address: CODE_AREA 0000DEB4 - 0000DF2F (0x7c bytes), align: 2
  Segment part 673.           Intra module refs:   IsUrl
           ENTRY                   ADDRESS         REF BY
           =====                   =======         ======
           wstrstr                 0000DEB4 
               stack 1 = 00000000 ( 00000020 )
    -------------------------------------------------------------------------
CODE
  Relative segment, address: CODE_AREA 0000DF30 - 0000E0D7 (0x1a8 bytes), align: 2
  Segment part 675.           Intra module refs:   edchat_onkey
           ENTRY                   ADDRESS         REF BY
           =====                   =======         ======
           IsUrl                   0000DF30 
               stack 1 = 00000000 ( 0000002C )
    -------------------------------------------------------------------------
CODE
  Relative segment, address: CODE_AREA 0000E0D8 - 0000E2FB (0x224 bytes), align: 2
  Segment part 677.           Intra module refs:   AddMsgToChat
                                                   CreateEditChat
           ENTRY                   ADDRESS         REF BY
           =====                   =======         ======
           ParseAnswer             0000E0D8 
               stack 1 = 00000000 ( 00000024 )
    -------------------------------------------------------------------------
CODE
  Relative segment, address: CODE_AREA 0000E2FC - 0000E2FF (0x4 bytes), align: 2
  Segment part 678.           Intra module refs:   IsUrl
                                                   ParseAnswer
    -------------------------------------------------------------------------
CODE
  Relative segment, address: CODE_AREA 0000E300 - 0000E323 (0x24 bytes), align: 2
  Segment part 680.           Intra module refs:   edchat_ghook
                                                   edchat_onkey
           ENTRY                   ADDRESS         REF BY
           =====                   =======         ======
           SaveAnswer              0000E300 
               stack 1 = 00000000 ( 0000000C )
    -------------------------------------------------------------------------
CODE
  Relative segment, address: CODE_AREA 0000E324 - 0000E3CF (0xac bytes), align: 2
  Segment part 682.           Intra module refs:   edchat_onkey
           ENTRY                   ADDRESS         REF BY
           =====                   =======         ======
           GetTempName             0000E324 
               stack 1 = 00000000 ( 00000014 )
    -------------------------------------------------------------------------
CODE
  Relative segment, address: CODE_AREA 0000E3D0 - 0000E9BB (0x5ec bytes), align: 2
  Segment part 689.           Intra module refs:   Segment part 49
           ENTRY                   ADDRESS         REF BY
           =====                   =======         ======
           edchat_onkey            0000E3D0 
               stack 1 = 00000000 ( 0000015C )
    -------------------------------------------------------------------------
CODE
  Relative segment, address: CODE_AREA 0000E9BC - 0000E9BF (0x4 bytes), align: 2
  Segment part 690.           Intra module refs:   edchat_onkey
    -------------------------------------------------------------------------
CODE
  Relative segment, address: CODE_AREA 0000E9C0 - 0000E9C3 (0x4 bytes), align: 2
  Segment part 691.           Intra module refs:   edchat_onkey
    -------------------------------------------------------------------------
CODE
  Relative segment, address: CODE_AREA 0000E9C4 - 0000E9C7 (0x4 bytes), align: 2
  Segment part 692.           Intra module refs:   edchat_onkey
    -------------------------------------------------------------------------
CODE
  Relative segment, address: CODE_AREA 0000E9C8 - 0000E9CB (0x4 bytes), align: 2
  Segment part 693.           Intra module refs:   edchat_onkey
    -------------------------------------------------------------------------
CODE
  Relative segment, address: CODE_AREA 0000E9CC - 0000EA3B (0x70 bytes), align: 2
  Segment part 695.           Intra module refs:   edchat_ghook
           ENTRY                   ADDRESS         REF BY
           =====                   =======         ======
           my_ed_redraw            0000E9CC 
               stack 1 = 00000000 ( 0000000C )
    -------------------------------------------------------------------------
CODE
  Relative segment, address: CODE_AREA 0000EA3C - 0000EC5B (0x220 bytes), align: 2
  Segment part 697.           Intra module refs:   Segment part 49
           ENTRY                   ADDRESS         REF BY
           =====                   =======         ======
           edchat_ghook            0000EA3C 
               stack 1 = 00000000 ( 00000048 )
    -------------------------------------------------------------------------
DATA_Z
  Relative segment, address: CODE_AREA 0001E9D8 - 00020C43 (0x226c bytes), align: 2
  Segment part 105.           Intra module refs:   DrawAck
                                                   DrawJustNow
                                                   DrawPing
                                                   IlluminationOn
                                                   InputAwayMsg
                                                   Play
                                                   PrintMessage
                                                   Reminder_timer
                                                   Segment part 178
                                                   Segment part 227
                                                   Segment part 267
                                                   Segment part 307
                                                   Segment part 328
                                                   Segment part 358
                                                   Segment part 409
                                                   Segment part 421
                                                   Segment part 433
                                                   Segment part 455
                                                   Segment part 480
                                                   Segment part 496
                                                   Segment part 508
                                                   Segment part 525
                                                   Segment part 553
                                                   Segment part 568
                                                   Segment part 583
                                                   Segment part 611
                                                   Segment part 634
                                                   Segment part 667
                                                   Segment part 670
                                                   Segment part 700
                                                   begin_to_develop
                                                   checkGui
                                                   init_time_zone
                                                   set_my_status
                                                   start_vibra2
           ENTRY                   ADDRESS         REF BY
           =====                   =======         ======
           ALLTOTALRECEIVED        0001EDBC        reftes (screen_save)
           ALLTOTALSENDED          0001EDC0        reftes (screen_save)
           ContactT9Key            0001EF68        FindContactByNS (cl_work)
           CurrentPrivateStatus    0001EDA4        Segment part 48 (manage_cl)
                                                   reftes (screen_save)
           CurrentStatus           0001ECD4        Segment part 76 (status_change)
                                                   Segment part 80 (mainmenu)
           CurrentXStatus          0001ECD8        DrawIcon (mainmenu)
                                                   GetTags (player_tags)
                                                   Segment part 151 (status_change)
           GROUP_CACHE             0001EDCC 
           INC_show                0001EDF4 
           INC_show2               0001EDF8 
           INC_show3               0001EE04 
           I_UIN                   00020960 
           Is_Double_Vibra_On      0001EC2C        Segment part 85 (mainmenu)
                                                   XS_OnKey (status_change)
                                                   reftes (screen_save)
           Is_ILU_On               0001EC28        Segment part 86 (mainmenu)
                                                   XS_OnKey (status_change)
           Is_INC_On               0001EC24        Segment part 84 (mainmenu)
                                                   XS_OnKey (status_change)
           Is_Id3tag_Enabled       0001EC48        GetTags (player_tags)
                                                   Segment part 91 (mainmenu)
                                                   XS_OnKey (status_change)
           Is_PING_On              0001EC20        Segment part 87 (mainmenu)
                                                   XS_OnKey (status_change)
           Is_Show_Groups          0001EDA0        Segment part 37 (cl_work)
                                                   Segment part 89 (mainmenu)
                                                   XS_OnKey (status_change)
           Is_Show_Offline         0001ED9C        FindContactByNS (cl_work)
                                                   Segment part 88 (mainmenu)
                                                   XS_OnKey (status_change)
           Is_Sounds_Enabled       0001ED98        Segment part 83 (mainmenu)
                                                   XS_OnKey (status_change)
                                                   reftes (screen_save)
           Is_Vibra_Enabled        0001EC44        Segment part 82 (mainmenu)
                                                   XS_OnKey (status_change)
                                                   reftes (screen_save)
           NEW_MSG                 0001EDE8 
           OffContact              00020BE4 
           PINGO                   00020258        reftes (screen_save)
           SENDMSGCOUNT            0001EC40        CheckComand2 (addon)
           S_ICONS                 0001EC4C        Segment part 29 (manage_cl)
           Show_XTX                0001ECEC        XS_OnKey (status_change)
           TOTALRECEIVED           0001EDB4 
           TOTALSENDED             0001EDB8 
           XStatusImg              0001ED04        DrawIcon (mainmenu)
                                                   XS_DrawList (status_change)
           a_txt                   0002096C 
           autoChangeStatus        000204D0 
           away_m                  0001ECE0        SC_OnKey (status_change)
                                                   Segment part 81 (mainmenu)
                                                   reftes (screen_save)
           away_msg                00020358 
           away_msg_time           00020460 
           away_msg_time_dace      000204A0        reftes (screen_save)
           away_tmr                000204C0        AutoAwayMSG (mainmenu)
           canvasdata              0001EC04        Segment part 65 (print)
           change_back_status      0001ECE8        AutoAwayMSG (mainmenu)
           clfont                  0001EE14        MM_onCreate (mainmenu)
                                                   Segment part 137 (status_change)
                                                   Segment part 65 (status_change)
           clmenu_sk_r             000207D0 
           cltop                   0001EDC8        CreateAddContactGrpDialog (manage_cl)
                                                   Segment part 38 (cl_work)
           comanda                 0001EDF0        CheckComand2 (addon)
           contactlist_menu_id     0001EC3C 
           curpos                  0001EE08 
           d_txt                   000209CC 
           def_set                 0001EA7C        XS_OnKey (status_change)
           develop                 00020A5C 
           disautorecconect        0001ED94        CheckComand2 (addon)
                                                   Disconnect (mainmenu)
           edchat_id               0001EDD0 
           elf_path                0001EE68 
           errornumber             0001EE20 
           ews                     0001ECDC 
           f_txt                   000209FC 
           g_txt                   00020A2C 
           gipc                    0001EA64        CheckComand2 (addon)
           hostbuf2                00020860        reftes (screen_save)
           hostname                000208E0 
           hy                      0001EE10        MM_OnRedraw (mainmenu)
                                                   Segment part 131 (status_change)
                                                   Segment part 20 (select_smile)
                                                   Segment part 31 (addon)
                                                   Segment part 57 (status_change)
                                                   method0 (screen_save)
           i_rc                    0001E9D8 
           icons                   0001E9E0        SC_DrawList (status_change)
                                                   Segment part 96 (mainmenu)
           incs2                   00020BD4 
           incs3                   00020C24 
           input_awaymsg_id        0001ED00 
           itemFromDisp            0001EE18 
           ixtext                  0001EF88 
           kopa_kontaktu           0001EDDC        reftes (screen_save)
           kopa_online             0001EDD8        reftes (screen_save)
           last_msg_buffer         0001F148 
           logmsg                  00020590 
           logmsg2                 00020690        ProcessNextSmile (smiles_loader)
           main2_count             0001EC1C        reftes (screen_save)
           main_count              0001EC18        reftes (screen_save)
           main_d                  0001EC00        AutoAwayMSG (mainmenu)
           main_msg_timer2         0001EDE4 
           maincsm_id              0001EC34        UpdateConfig (configs)
           maingui_id              0001EC38 
           mod_info                00020A6C 
           old_ed_redraw           0001EE24 
           onContact               00020B94 
           on_off_buf              000207E0 
           onlineTime              00020510 
           paused_height           0001EC08 
           ping_time               0001EDE0 
           ping_tmr                00020248 
           pp_icon                 0001EDFC 
           pp_xicon                0001EE00 
           prmsg                   00020148 
           reconnect_tmr           000207B0 
           remind_tmr              000204E0 
           s_txt                   0002099C 
           saver_on                0001EC14        Segment part 46 (screen_save)
           show_nick               00020B74 
           silenthide              0001ED90        CheckComand2 (addon)
           status_rem              0001ECE4        AutoAwayMSG (mainmenu)
           talk_sound              0001F088 
           templates_chars         0001EDAC 
           templates_lines         0001EDB0 
           tenseconds_to_ping      0001EDD4 
           tim_zone                000204B0 
           time_to_stop_t9         0001EDEC 
           tm22                    00020C34 
           tmr_active              000207C0 
           tmr_gipc                0001EA70 
           tmr_illumination        00020790 
           tmr_vibra               000207A0 
           totalItems              0001EE1C 
           total_unread            0001EDC4 
           total_unread2           0001EC30 
           tracktimer              0001ECFC 
           tracktmr                00020500 
           uinContact              0001EE0C 
           uins                    0001EC10 
           unread_msg_info         0001F108 
           uptimeHour              0001ECF0        reftes (screen_save)
           uptimeMin               0001ECF4        reftes (screen_save)
           uptimeSec               0001ECF8        reftes (screen_save)
           uptime_tmr              000204F0 
           vibra_count             0001EDA8        CheckComand2 (addon)
           wsBuffer                0001EC0C 
    -------------------------------------------------------------------------
DATA_Z
  Relative segment, address: CODE_AREA 00020C44 - 00020C47 (0x4 bytes), align: 2
  Segment part 117.           Intra module refs:   Segment part 245
           ENTRY                   ADDRESS         REF BY
           =====                   =======         ======
           IsActiveUp              00020C44        Segment part 22 (cl_work)
                                                   Segment part 90 (mainmenu)
    -------------------------------------------------------------------------
DATA_Z
  Relative segment, address: CODE_AREA 00020C48 - 00024C4F (0x4008 bytes), align: 2
  Segment part 128.           Intra module refs:   get_answer
           ENTRY                   ADDRESS         REF BY
           =====                   =======         ======
           RXbuf                   00020C48 
    -------------------------------------------------------------------------
DATA_Z
  Relative segment, address: CODE_AREA 00024C50 - 00024C57 (0x8 bytes), align: 2
  Segment part 135.           Intra module refs:   Segment part 395
                                                   Segment part 402
           ENTRY                   ADDRESS         REF BY
           =====                   =======         ======
           cmd_chars               00024C50 
           cmd_lines               00024C54 
    -------------------------------------------------------------------------
DATA_Z
  Relative segment, address: CODE_AREA 00024C58 - 00024C67 (0x10 bytes), align: 2
  Segment part 150.           Intra module refs:   I_onClose
           ENTRY                   ADDRESS         REF BY
           =====                   =======         ======
           i_tmr                   00024C58 
    -------------------------------------------------------------------------
DATA_Z
  Relative segment, address: CODE_AREA 00024C68 - 00024D7F (0x118 bytes), align: 2
  Segment part 158.           Intra module refs:   Segment part 160
           ENTRY                   ADDRESS         REF BY
           =====                   =======         ======
           maincsm_name_body       00024C68 
    -------------------------------------------------------------------------
DATA_C
  Relative segment, address: CODE_AREA 0001D298 - 0001D2EB (0x54 bytes), align: 2
  Segment part 49.            Intra module refs:   CreateEditChat
    -------------------------------------------------------------------------
DATA_C
  Relative segment, address: CODE_AREA 0001D2EC - 0001D2FB (0x10 bytes), align: 2
  Segment part 50.            Intra module refs:   GetShortInfo
    -------------------------------------------------------------------------
DATA_C
  Relative segment, address: CODE_AREA 0001D2FC - 0001D30F (0x14 bytes), align: 2
  Segment part 51.            Intra module refs:   SendAuthReq
    -------------------------------------------------------------------------
DATA_C
  Relative segment, address: CODE_AREA 0001D310 - 0001D31F (0x10 bytes), align: 2
  Segment part 52.            Intra module refs:   SendAuthGrant
    -------------------------------------------------------------------------
DATA_C
  Relative segment, address: CODE_AREA 0001D320 - 0001D35F (0x40 bytes), align: 2
  Segment part 53.            Intra module refs:   OpenLogfile
    -------------------------------------------------------------------------
DATA_C
  Relative segment, address: CODE_AREA 0001D360 - 0001D36B (0xc bytes), align: 2
  Segment part 55.            Intra module refs:   Segment part 118
    -------------------------------------------------------------------------
DATA_C
  Relative segment, address: CODE_AREA 0001D36C - 0001D37B (0x10 bytes), align: 2
  Segment part 56.            Intra module refs:   Segment part 118
    -------------------------------------------------------------------------
DATA_C
  Relative segment, address: CODE_AREA 0001D37C - 0001D387 (0xc bytes), align: 2
  Segment part 57.            Intra module refs:   Segment part 118
    -------------------------------------------------------------------------
DATA_C
  Relative segment, address: CODE_AREA 0001D388 - 0001D38F (0x8 bytes), align: 2
  Segment part 58.            Intra module refs:   Segment part 118
    -------------------------------------------------------------------------
DATA_C
  Relative segment, address: CODE_AREA 0001D390 - 0001D39F (0x10 bytes), align: 2
  Segment part 59.            Intra module refs:   Segment part 118
    -------------------------------------------------------------------------
DATA_C
  Relative segment, address: CODE_AREA 0001D3A0 - 0001D3A7 (0x8 bytes), align: 2
  Segment part 60.            Intra module refs:   Segment part 118
    -------------------------------------------------------------------------
DATA_C
  Relative segment, address: CODE_AREA 0001D3A8 - 0001D3B7 (0x10 bytes), align: 2
  Segment part 61.            Intra module refs:   Segment part 118
    -------------------------------------------------------------------------
DATA_C
  Relative segment, address: CODE_AREA 0001D3B8 - 0001D3C3 (0xc bytes), align: 2
  Segment part 62.            Intra module refs:   Segment part 118
    -------------------------------------------------------------------------
DATA_C
  Relative segment, address: CODE_AREA 0001D3C4 - 0001D3CF (0xc bytes), align: 2
  Segment part 63.            Intra module refs:   Segment part 118
    -------------------------------------------------------------------------
DATA_C
  Relative segment, address: CODE_AREA 0001D3D0 - 0001D3DB (0xc bytes), align: 2
  Segment part 64.            Intra module refs:   Segment part 118
    -------------------------------------------------------------------------
DATA_C
  Relative segment, address: CODE_AREA 0001D3DC - 0001D3E7 (0xc bytes), align: 2
  Segment part 65.            Intra module refs:   Segment part 118
    -------------------------------------------------------------------------
DATA_C
  Relative segment, address: CODE_AREA 0001D3E8 - 0001D3F3 (0xc bytes), align: 2
  Segment part 66.            Intra module refs:   Segment part 118
    -------------------------------------------------------------------------
DATA_C
  Relative segment, address: CODE_AREA 0001D3F4 - 0001D3FB (0x8 bytes), align: 2
  Segment part 67.            Intra module refs:   Segment part 118
    -------------------------------------------------------------------------
DATA_C
  Relative segment, address: CODE_AREA 0001D3FC - 0001D407 (0xc bytes), align: 2
  Segment part 68.            Intra module refs:   Segment part 118
    -------------------------------------------------------------------------
DATA_C
  Relative segment, address: CODE_AREA 0001D408 - 0001D413 (0xc bytes), align: 2
  Segment part 69.            Intra module refs:   Segment part 118
    -------------------------------------------------------------------------
DATA_C
  Relative segment, address: CODE_AREA 0001D414 - 0001D41F (0xc bytes), align: 2
  Segment part 70.            Intra module refs:   Segment part 118
    -------------------------------------------------------------------------
DATA_C
  Relative segment, address: CODE_AREA 0001D420 - 0001D42F (0x10 bytes), align: 2
  Segment part 71.            Intra module refs:   Segment part 118
    -------------------------------------------------------------------------
DATA_C
  Relative segment, address: CODE_AREA 0001D430 - 0001D43B (0xc bytes), align: 2
  Segment part 72.            Intra module refs:   Segment part 118
    -------------------------------------------------------------------------
DATA_C
  Relative segment, address: CODE_AREA 0001D43C - 0001D447 (0xc bytes), align: 2
  Segment part 73.            Intra module refs:   Segment part 118
    -------------------------------------------------------------------------
DATA_C
  Relative segment, address: CODE_AREA 0001D448 - 0001D453 (0xc bytes), align: 2
  Segment part 74.            Intra module refs:   Segment part 118
    -------------------------------------------------------------------------
DATA_C
  Relative segment, address: CODE_AREA 0001D454 - 0001D45F (0xc bytes), align: 2
  Segment part 75.            Intra module refs:   Segment part 118
    -------------------------------------------------------------------------
DATA_C
  Relative segment, address: CODE_AREA 0001D460 - 0001D46B (0xc bytes), align: 2
  Segment part 76.            Intra module refs:   Segment part 118
    -------------------------------------------------------------------------
DATA_C
  Relative segment, address: CODE_AREA 0001D46C - 0001D47B (0x10 bytes), align: 2
  Segment part 77.            Intra module refs:   Segment part 118
    -------------------------------------------------------------------------
DATA_C
  Relative segment, address: CODE_AREA 0001D47C - 0001D487 (0xc bytes), align: 2
  Segment part 78.            Intra module refs:   Segment part 118
    -------------------------------------------------------------------------
DATA_C
  Relative segment, address: CODE_AREA 0001D488 - 0001D493 (0xc bytes), align: 2
  Segment part 79.            Intra module refs:   Segment part 118
    -------------------------------------------------------------------------
DATA_C
  Relative segment, address: CODE_AREA 0001D494 - 0001D49F (0xc bytes), align: 2
  Segment part 80.            Intra module refs:   Segment part 118
    -------------------------------------------------------------------------
DATA_C
  Relative segment, address: CODE_AREA 0001D4A0 - 0001D4AB (0xc bytes), align: 2
  Segment part 81.            Intra module refs:   Segment part 118
    -------------------------------------------------------------------------
DATA_C
  Relative segment, address: CODE_AREA 0001D4AC - 0001D4B7 (0xc bytes), align: 2
  Segment part 82.            Intra module refs:   Segment part 118
    -------------------------------------------------------------------------
DATA_C
  Relative segment, address: CODE_AREA 0001D4B8 - 0001D4C3 (0xc bytes), align: 2
  Segment part 83.            Intra module refs:   Segment part 118
    -------------------------------------------------------------------------
DATA_C
  Relative segment, address: CODE_AREA 0001D4C4 - 0001D4CF (0xc bytes), align: 2
  Segment part 84.            Intra module refs:   Segment part 118
    -------------------------------------------------------------------------
DATA_C
  Relative segment, address: CODE_AREA 0001D4D0 - 0001D4DB (0xc bytes), align: 2
  Segment part 85.            Intra module refs:   Segment part 118
    -------------------------------------------------------------------------
DATA_C
  Relative segment, address: CODE_AREA 0001D4DC - 0001D4E3 (0x8 bytes), align: 2
  Segment part 86.            Intra module refs:   Segment part 118
    -------------------------------------------------------------------------
DATA_C
  Relative segment, address: CODE_AREA 0001D4E4 - 0001D4F7 (0x14 bytes), align: 2
  Segment part 87.            Intra module refs:   Segment part 9
    -------------------------------------------------------------------------
DATA_C
  Relative segment, address: CODE_AREA 0001D4F8 - 0001D4FB (0x4 bytes), align: 2
  Segment part 88.            Intra module refs:   Segment part 124
    -------------------------------------------------------------------------
DATA_C
  Relative segment, address: CODE_AREA 0001D4FC - 0001D503 (0x8 bytes), align: 2
  Segment part 89.            Intra module refs:   Segment part 124
    -------------------------------------------------------------------------
DATA_C
  Relative segment, address: CODE_AREA 0001D504 - 0001D50B (0x8 bytes), align: 2
  Segment part 90.            Intra module refs:   Segment part 132
    -------------------------------------------------------------------------
DATA_C
  Relative segment, address: CODE_AREA 0001D50C - 0001D513 (0x8 bytes), align: 2
  Segment part 91.            Intra module refs:   Segment part 132
                                                   Segment part 162
                                                   cmd_sk
    -------------------------------------------------------------------------
DATA_C
  Relative segment, address: CODE_AREA 0001E4C6 - 0001E4C6 (0x1 bytes), align: 0
  Segment part 92.            Intra module refs:   Segment part 107
                                                   cmd_sk
    -------------------------------------------------------------------------
DATA_C
  Relative segment, address: CODE_AREA 0001D514 - 0001D523 (0x10 bytes), align: 2
  Segment part 93.            Intra module refs:   menutext
    -------------------------------------------------------------------------
DATA_C
  Relative segment, address: CODE_AREA 0001D524 - 0001D52B (0x8 bytes), align: 2
  Segment part 94.            Intra module refs:   menutext
    -------------------------------------------------------------------------
DATA_C
  Relative segment, address: CODE_AREA 0001D52C - 0001D533 (0x8 bytes), align: 2
  Segment part 95.            Intra module refs:   menutext
    -------------------------------------------------------------------------
DATA_C
  Relative segment, address: CODE_AREA 0001D534 - 0001D543 (0x10 bytes), align: 2
  Segment part 96.            Intra module refs:   menutext
    -------------------------------------------------------------------------
DATA_C
  Relative segment, address: CODE_AREA 0001D544 - 0001D553 (0x10 bytes), align: 2
  Segment part 97.            Intra module refs:   menutext
    -------------------------------------------------------------------------
DATA_C
  Relative segment, address: CODE_AREA 0001D554 - 0001D55F (0xc bytes), align: 2
  Segment part 98.            Intra module refs:   Segment part 163
    -------------------------------------------------------------------------
DATA_C
  Relative segment, address: CODE_AREA 0001D560 - 0001D57B (0x1c bytes), align: 2
  Segment part 99.            Intra module refs:   Segment part 163
    -------------------------------------------------------------------------
DATA_C
  Relative segment, address: CODE_AREA 0001D57C - 0001D58B (0x10 bytes), align: 2
  Segment part 100.           Intra module refs:   Segment part 163
    -------------------------------------------------------------------------
DATA_C
  Relative segment, address: CODE_AREA 0001D58C - 0001D59B (0x10 bytes), align: 2
  Segment part 101.           Intra module refs:   Segment part 163
    -------------------------------------------------------------------------
DATA_C
  Relative segment, address: CODE_AREA 0001D59C - 0001D5A7 (0xc bytes), align: 2
  Segment part 102.           Intra module refs:   Segment part 163
    -------------------------------------------------------------------------
DATA_C
  Relative segment, address: CODE_AREA 0001D5A8 - 0001D5B7 (0x10 bytes), align: 2
  Segment part 103.           Intra module refs:   Segment part 163
    -------------------------------------------------------------------------
DATA_C
  Relative segment, address: CODE_AREA 0001D5B8 - 0001D5C7 (0x10 bytes), align: 2
  Segment part 104.           Intra module refs:   Segment part 163
    -------------------------------------------------------------------------
DATA_C
  Relative segment, address: CODE_AREA 0001D5C8 - 0001D64B (0x84 bytes), align: 2
  Segment part 118.           Intra module refs:   Segment part 231
    -------------------------------------------------------------------------
DATA_C
  Relative segment, address: CODE_AREA 0001D64C - 0001D67B (0x30 bytes), align: 2
  Segment part 127.           Intra module refs:   Segment part 244
           ENTRY                   ADDRESS         REF BY
           =====                   =======         ======
           def_sett                0001D664 
           def_setting             0001D64C 
    -------------------------------------------------------------------------
DATA_C
  Relative segment, address: CODE_AREA 0001D67C - 0001D687 (0xc bytes), align: 2
  Segment part 131.           Intra module refs:   Segment part 166
    -------------------------------------------------------------------------
DATA_C
  Relative segment, address: CODE_AREA 0001D688 - 0001D69F (0x18 bytes), align: 2
  Segment part 132.           Intra module refs:   menu_skt
    -------------------------------------------------------------------------
DATA_C
  Relative segment, address: CODE_AREA 0001D6A0 - 0001D6A7 (0x8 bytes), align: 2
  Segment part 133.           Intra module refs:   Segment part 166
                                                   Segment part 49
           ENTRY                   ADDRESS         REF BY
           =====                   =======         ======
           menu_skt                0001D6A0 
    -------------------------------------------------------------------------
DATA_C
  Relative segment, address: CODE_AREA 0001D6A8 - 0001D6B3 (0xc bytes), align: 2
  Segment part 138.           Intra module refs:   Segment part 24
           ENTRY                   ADDRESS         REF BY
           =====                   =======         ======
           CmdSoftkeys             0001D6A8 
    -------------------------------------------------------------------------
DATA_C
  Relative segment, address: CODE_AREA 0001D6B4 - 0001D6CB (0x18 bytes), align: 2
  Segment part 139.           Intra module refs:   cmd_Back_skt
           ENTRY                   ADDRESS         REF BY
           =====                   =======         ======
           cmd_sk                  0001D6B4 
    -------------------------------------------------------------------------
DATA_C
  Relative segment, address: CODE_AREA 0001D6CC - 0001D6D3 (0x8 bytes), align: 2
  Segment part 140.           Intra module refs:   Segment part 24
           ENTRY                   ADDRESS         REF BY
           =====                   =======         ======
           cmd_Back_skt            0001D6CC 
    -------------------------------------------------------------------------
DATA_C
  Relative segment, address: CODE_AREA 0001D6D4 - 0001D6FF (0x2c bytes), align: 2
  Segment part 151.           Intra module refs:   CreateContactMenu
           ENTRY                   ADDRESS         REF BY
           =====                   =======         ======
           I_gui_methods           0001D6D4 
    -------------------------------------------------------------------------
DATA_C
  Relative segment, address: CODE_AREA 0001D700 - 0001D703 (0x4 bytes), align: 2
  Segment part 157.           Intra module refs:   Segment part 160
           ENTRY                   ADDRESS         REF BY
           =====                   =======         ======
           minus11                 0001D700 
    -------------------------------------------------------------------------
DATA_C
  Relative segment, address: CODE_AREA 0001D704 - 0001D737 (0x34 bytes), align: 2
  Segment part 161.           Intra module refs:   GetTempName
    -------------------------------------------------------------------------
DATA_C
  Relative segment, address: CODE_AREA 0001D738 - 0001D747 (0x10 bytes), align: 2
  Segment part 162.           Intra module refs:   edchat_ghook
    -------------------------------------------------------------------------
CODE
  Relative segment, address: CODE_AREA 0000EC5C - 0000F0DB (0x480 bytes), align: 2
  Segment part 699.           Intra module refs:   ClOnKey
                                                   ed_options_handler
                                                   edchat_onkey
           ENTRY                   ADDRESS         REF BY
           =====                   =======         ======
           CreateEditChat          0000EC5C 
               stack 1 = 00000000 ( 00000064 )
    -------------------------------------------------------------------------
CODE
  Relative segment, address: CODE_AREA 0000F0DC - 0000F0DF (0x4 bytes), align: 2
  Segment part 700.           Intra module refs:   CreateEditChat
                                                   edchat_ghook
                                                   edchat_onkey
                                                   my_ed_redraw
    -------------------------------------------------------------------------
CODE
  Relative segment, address: CODE_AREA 0000F0E0 - 0000F0E3 (0x4 bytes), align: 2
  Segment part 701.           Intra module refs:   CreateEditChat
    -------------------------------------------------------------------------
CODE
  Relative segment, address: CODE_AREA 0000F0E4 - 0000F0E7 (0x4 bytes), align: 2
  Segment part 702.           Intra module refs:   CreateEditChat
    -------------------------------------------------------------------------
CODE
  Relative segment, address: CODE_AREA 0000F0E8 - 0000F0EB (0x4 bytes), align: 2
  Segment part 703.           Intra module refs:   CreateEditChat
    -------------------------------------------------------------------------
CODE
  Relative segment, address: CODE_AREA 0000F0EC - 0000F0EF (0x4 bytes), align: 2
  Segment part 704.           Intra module refs:   CreateEditChat
    -------------------------------------------------------------------------
CODE
  Relative segment, address: CODE_AREA 0000F0F0 - 0000F0F3 (0x4 bytes), align: 2
  Segment part 705.           Intra module refs:   CreateEditChat
    -------------------------------------------------------------------------
CODE
  Relative segment, address: CODE_AREA 0000F0F4 - 0000F0F7 (0x4 bytes), align: 2
  Segment part 706.           Intra module refs:   CreateEditChat
    -------------------------------------------------------------------------
CODE
  Relative segment, address: CODE_AREA 0000F0F8 - 0000F0FB (0x4 bytes), align: 2
  Segment part 707.           Intra module refs:   CreateEditChat
    -------------------------------------------------------------------------
CODE
  Relative segment, address: CODE_AREA 0000F0FC - 0000F0FF (0x4 bytes), align: 2
  Segment part 708.           Intra module refs:   CreateEditChat
    -------------------------------------------------------------------------
CODE
  Relative segment, address: CODE_AREA 0000F100 - 0000F103 (0x4 bytes), align: 2
  Segment part 709.           Intra module refs:   CreateEditChat
    -------------------------------------------------------------------------
CODE
  Relative segment, address: CODE_AREA 0000F104 - 0000F107 (0x4 bytes), align: 2
  Segment part 710.           Intra module refs:   CreateEditChat
    -------------------------------------------------------------------------
CODE
  Relative segment, address: CODE_AREA 0000F108 - 0000F10B (0x4 bytes), align: 2
  Segment part 711.           Intra module refs:   CreateEditChat
    -------------------------------------------------------------------------
CODE
  Relative segment, address: CODE_AREA 0000F10C - 0000F10F (0x4 bytes), align: 2
  Segment part 712.           Intra module refs:   CreateEditChat
    -------------------------------------------------------------------------
CODE
  Relative segment, address: CODE_AREA 0000F110 - 0000F113 (0x4 bytes), align: 2
  Segment part 713.           Intra module refs:   CreateEditChat
    -------------------------------------------------------------------------
CODE
  Relative segment, address: CODE_AREA 0000F114 - 0000F117 (0x4 bytes), align: 2
  Segment part 714.           Intra module refs:   CreateEditChat
    -------------------------------------------------------------------------
CODE
  Relative segment, address: CODE_AREA 0000F118 - 0000F2B7 (0x1a0 bytes), align: 2
  Segment part 716.           Intra module refs:   Segment part 164
           ENTRY                   ADDRESS         REF BY
           =====                   =======         ======
           Quote                   0000F118 
               stack 1 = 00000000 ( 00000098 )
    -------------------------------------------------------------------------
CODE
  Relative segment, address: CODE_AREA 0000F2B8 - 0000F46F (0x1b8 bytes), align: 2
  Segment part 718.           Intra module refs:   Segment part 164
           ENTRY                   ADDRESS         REF BY
           =====                   =======         ======
           Quote2                  0000F2B8 
               stack 1 = 00000000 ( 00000098 )
    -------------------------------------------------------------------------
CODE
  Relative segment, address: CODE_AREA 0000F470 - 0000F517 (0xa8 bytes), align: 2
  Segment part 720.           Intra module refs:   Segment part 164
           ENTRY                   ADDRESS         REF BY
           =====                   =======         ======
           GetShortInfo            0000F470 
               stack 1 = 00000000 ( 00000018 )
    -------------------------------------------------------------------------
CODE
  Relative segment, address: CODE_AREA 0000F518 - 0000F54B (0x34 bytes), align: 2
  Segment part 722.           Intra module refs:   Segment part 164
           ENTRY                   ADDRESS         REF BY
           =====                   =======         ======
           AddCurContact           0000F518 
               stack 1 = 00000000 ( 00000004 )
    -------------------------------------------------------------------------
CODE
  Relative segment, address: CODE_AREA 0000F54C - 0000F61F (0xd4 bytes), align: 2
  Segment part 724.           Intra module refs:   Segment part 164
           ENTRY                   ADDRESS         REF BY
           =====                   =======         ======
           SendAuthReq             0000F54C 
               stack 1 = 00000000 ( 00000030 )
    -------------------------------------------------------------------------
CODE
  Relative segment, address: CODE_AREA 0000F620 - 0000F623 (0x4 bytes), align: 2
  Segment part 725.           Intra module refs:   GetShortInfo
                                                   SendAuthReq
                                                   edchat_onkey
    -------------------------------------------------------------------------
CODE
  Relative segment, address: CODE_AREA 0000F624 - 0000F627 (0x4 bytes), align: 2
  Segment part 726.           Intra module refs:   GetShortInfo
                                                   SendAuthReq
                                                   edchat_onkey
    -------------------------------------------------------------------------
CODE
  Relative segment, address: CODE_AREA 0000F628 - 0000F6F7 (0xd0 bytes), align: 2
  Segment part 728.           Intra module refs:   Segment part 164
           ENTRY                   ADDRESS         REF BY
           =====                   =======         ======
           SendAuthGrant           0000F628 
               stack 1 = 00000000 ( 0000002C )
    -------------------------------------------------------------------------
CODE
  Relative segment, address: CODE_AREA 0000F6F8 - 0000F6FB (0x4 bytes), align: 2
  Segment part 729.           Intra module refs:   SendAuthGrant
    -------------------------------------------------------------------------
CODE
  Relative segment, address: CODE_AREA 0000F6FC - 0000F6FF (0x4 bytes), align: 2
  Segment part 730.           Intra module refs:   SendAuthGrant
    -------------------------------------------------------------------------
CODE
  Relative segment, address: CODE_AREA 0000F700 - 0000F7E3 (0xe4 bytes), align: 2
  Segment part 732.           Intra module refs:   Segment part 164
           ENTRY                   ADDRESS         REF BY
           =====                   =======         ======
           OpenLogfile             0000F700 
               stack 1 = 00000000 ( 00000014 )
    -------------------------------------------------------------------------
CODE
  Relative segment, address: CODE_AREA 0000F7E4 - 0000F7E7 (0x4 bytes), align: 2
  Segment part 733.           Intra module refs:   OpenLogfile
    -------------------------------------------------------------------------
CODE
  Relative segment, address: CODE_AREA 0000F7E8 - 0000F8D7 (0xf0 bytes), align: 2
  Segment part 735.           Intra module refs:   Segment part 164
           ENTRY                   ADDRESS         REF BY
           =====                   =======         ======
           ClearLog                0000F7E8 
               stack 1 = 00000000 ( 0000003C )
    -------------------------------------------------------------------------
CODE
  Relative segment, address: CODE_AREA 0000F8D8 - 0000F8EB (0x14 bytes), align: 2
  Segment part 737.           Intra module refs:   Segment part 166
           ENTRY                   ADDRESS         REF BY
           =====                   =======         ======
           ecmenu_ghook            0000F8D8 
               stack 1 = 00000000 ( 00000004 )
    -------------------------------------------------------------------------
DATA_C
  Relative segment, address: CODE_AREA 0001D748 - 0001D843 (0xfc bytes), align: 2
  Segment part 163.           Intra module refs:   Segment part 166
    -------------------------------------------------------------------------
DATA_C
  Relative segment, address: CODE_AREA 0001D844 - 0001D867 (0x24 bytes), align: 2
  Segment part 164.           Intra module refs:   Segment part 166
    -------------------------------------------------------------------------
DATA_Z
  Relative segment, address: CODE_AREA 00024D80 - 00024DBF (0x40 bytes), align: 2
  Segment part 165.           Intra module refs:   Segment part 166
                                                   ec_menu
           ENTRY                   ADDRESS         REF BY
           =====                   =======         ======
           ecm_contactname         00024D80 
    -------------------------------------------------------------------------
DATA_C
  Relative segment, address: CODE_AREA 0001D868 - 0001D8A7 (0x40 bytes), align: 2
  Segment part 166.           Intra module refs:   ec_menu
    -------------------------------------------------------------------------
CODE
  Relative segment, address: CODE_AREA 0000F8EC - 0000FA47 (0x15c bytes), align: 2
  Segment part 739.           Intra module refs:   edchat_onkey
           ENTRY                   ADDRESS         REF BY
           =====                   =======         ======
           ec_menu                 0000F8EC 
               stack 1 = 00000000 ( 00000048 )
    -------------------------------------------------------------------------
CODE
  Relative segment, address: CODE_AREA 0000FA48 - 0000FA4B (0x4 bytes), align: 2
  Segment part 740.           Intra module refs:   AddCurContact
                                                   GetShortInfo
                                                   SendAuthGrant
                                                   SendAuthReq
                                                   ec_menu
    -------------------------------------------------------------------------
CODE
  Relative segment, address: CODE_AREA 0000FA4C - 0000FA63 (0x18 bytes), align: 2
  Segment part 744.           Intra module refs:   Segment part 164
           ENTRY                   ADDRESS         REF BY
           =====                   =======         ======
           AddSmile                0000FA4C 
               stack 1 = 00000000 ( 00000004 )
    -------------------------------------------------------------------------
CODE
  Relative segment, address: CODE_AREA 0000FA64 - 0000FA67 (0x4 bytes), align: 2
  Segment part 760.
    -------------------------------------------------------------------------
DATA_ID
  Relative segment, address: CODE_AREA 0000001C - 00000143 (0x128 bytes), align: 2
  Segment part 107.           Intra module refs:   Segment part 106
    -------------------------------------------------------------------------
DATA_ID
  Relative segment, address: CODE_AREA 00000144 - 0000014B (0x8 bytes), align: 2
  Segment part 122.           Intra module refs:   Segment part 121
    -------------------------------------------------------------------------
DATA_ID
  Relative segment, address: CODE_AREA 0000014C - 00000163 (0x18 bytes), align: 2
  Segment part 124.           Intra module refs:   input_awaymsg_sk
    -------------------------------------------------------------------------
DATA_ID
  Relative segment, address: CODE_AREA 00000164 - 0000016B (0x8 bytes), align: 2
  Segment part 126.           Intra module refs:   input_awaymsg_skt
    -------------------------------------------------------------------------
DATA_ID
  Relative segment, address: CODE_AREA 0000016C - 00000183 (0x18 bytes), align: 2
  Segment part 137.           Intra module refs:   Segment part 136
    -------------------------------------------------------------------------
DATA_ID
  Relative segment, address: CODE_AREA 00000184 - 000001CB (0x48 bytes), align: 2
  Segment part 160.           Intra module refs:   MAINCSM

    *************************************************************************

  FILE NAME : D:\pasha\elf\_MY_PROJECT_\naticq_mod2\Release\Obj\mainmenu.r79
  PROGRAM MODULE, NAME : mainmenu

  SEGMENTS IN THE MODULE
  ======================
DATA_Z
  Relative segment, address: CODE_AREA 00024DC0 - 00024DC3 (0x4 bytes), align: 2
  Segment part 28.            Intra module refs:   CreateMainMenu
           ENTRY                   ADDRESS         REF BY
           =====                   =======         ======
           MainMenu_ID             00024DC0 
    -------------------------------------------------------------------------
DATA_Z
  Relative segment, address: CODE_AREA 00024DC4 - 00024DC7 (0x4 bytes), align: 2
  Segment part 29.            Intra module refs:   PingToServer
           ENTRY                   ADDRESS         REF BY
           =====                   =======         ======
           janis                   00024DC4        Segment part 302 (main)
                                                   Segment part 348 (main)
    -------------------------------------------------------------------------
CODE
  Relative segment, address: CODE_AREA 0000FA68 - 0000FA93 (0x2c bytes), align: 2
  Segment part 38.            Intra module refs:   Segment part 31
           ENTRY                   ADDRESS         REF BY
           =====                   =======         ======
           ChangeActiveUp          0000FA68 
               stack 1 = 00000000 ( 00000004 )
    -------------------------------------------------------------------------
CODE
  Relative segment, address: CODE_AREA 0000FA94 - 0000FABF (0x2c bytes), align: 2
  Segment part 40.            Intra module refs:   Segment part 31
           ENTRY                   ADDRESS         REF BY
           =====                   =======         ======
           ChangeVibraMode         0000FA94 
               stack 1 = 00000000 ( 00000004 )
    -------------------------------------------------------------------------
CODE
  Relative segment, address: CODE_AREA 0000FAC0 - 0000FAEF (0x30 bytes), align: 2
  Segment part 42.            Intra module refs:   Segment part 31
           ENTRY                   ADDRESS         REF BY
           =====                   =======         ======
           ChangeId3tagMode        0000FAC0 
               stack 1 = 00000000 ( 00000004 )
    -------------------------------------------------------------------------
CODE
  Relative segment, address: CODE_AREA 0000FAF0 - 0000FB93 (0xa4 bytes), align: 2
  Segment part 44.            Intra module refs:   Segment part 31
           ENTRY                   ADDRESS         REF BY
           =====                   =======         ======
           AutoAwayMSG             0000FAF0 
               stack 1 = 00000000 ( 0000000C )
    -------------------------------------------------------------------------
CODE
  Relative segment, address: CODE_AREA 0000FB94 - 0000FBBF (0x2c bytes), align: 2
  Segment part 46.            Intra module refs:   Segment part 31
           ENTRY                   ADDRESS         REF BY
           =====                   =======         ======
           ChangeSoundMode         0000FB94 
               stack 1 = 00000000 ( 00000004 )
    -------------------------------------------------------------------------
CODE
  Relative segment, address: CODE_AREA 0000FBC0 - 0000FBF7 (0x38 bytes), align: 2
  Segment part 48.            Intra module refs:   Segment part 31
           ENTRY                   ADDRESS         REF BY
           =====                   =======         ======
           ChangeShowOfflineMode   0000FBC0 
               stack 1 = 00000000 ( 00000004 )
    -------------------------------------------------------------------------
CODE
  Relative segment, address: CODE_AREA 0000FBF8 - 0000FC33 (0x3c bytes), align: 2
  Segment part 50.            Intra module refs:   Segment part 31
           ENTRY                   ADDRESS         REF BY
           =====                   =======         ======
           ChangeShowGroupsMode    0000FBF8 
               stack 1 = 00000000 ( 00000004 )
    -------------------------------------------------------------------------
CODE
  Relative segment, address: CODE_AREA 0000FC34 - 0000FC77 (0x44 bytes), align: 2
  Segment part 52.            Intra module refs:   Segment part 31
           ENTRY                   ADDRESS         REF BY
           =====                   =======         ======
           EditConfig              0000FC34 
               stack 1 = 00000000 ( 00000008 )
    -------------------------------------------------------------------------
CODE
  Relative segment, address: CODE_AREA 0000FC78 - 0000FCC3 (0x4c bytes), align: 2
  Segment part 54.            Intra module refs:   Segment part 31
           ENTRY                   ADDRESS         REF BY
           =====                   =======         ======
           EditConfigMod           0000FC78 
               stack 1 = 00000000 ( 00000008 )
    -------------------------------------------------------------------------
CODE
  Relative segment, address: CODE_AREA 0000FCC4 - 0000FCEF (0x2c bytes), align: 2
  Segment part 56.            Intra module refs:   Segment part 31
           ENTRY                   ADDRESS         REF BY
           =====                   =======         ======
           Disconnect              0000FCC4 
               stack 1 = 00000000 ( 00000004 )
    -------------------------------------------------------------------------
CODE
  Relative segment, address: CODE_AREA 0000FCF0 - 0000FD4B (0x5c bytes), align: 2
  Segment part 58.            Intra module refs:   Segment part 31
           ENTRY                   ADDRESS         REF BY
           =====                   =======         ======
           PingToServer            0000FCF0 
               stack 1 = 00000000 ( 00000008 )
    -------------------------------------------------------------------------
CODE
  Relative segment, address: CODE_AREA 0000FD4C - 0000FD5B (0x10 bytes), align: 2
  Segment part 60.            Intra module refs:   Segment part 31
           ENTRY                   ADDRESS         REF BY
           =====                   =======         ======
           AboutDlg                0000FD4C 
    -------------------------------------------------------------------------
CODE
  Relative segment, address: CODE_AREA 0000FD5C - 0000FD5F (0x4 bytes), align: 2
  Segment part 62.            Intra module refs:   Segment part 31
           ENTRY                   ADDRESS         REF BY
           =====                   =======         ======
           SaveCL                  0000FD5C 
               stack 1 = 00000000 ( 00000004 )
    -------------------------------------------------------------------------
CODE
  Relative segment, address: CODE_AREA 0000FD60 - 0000FD8B (0x2c bytes), align: 2
  Segment part 64.            Intra module refs:   Segment part 31
           ENTRY                   ADDRESS         REF BY
           =====                   =======         ======
           ChangeINCMode           0000FD60 
               stack 1 = 00000000 ( 00000004 )
    -------------------------------------------------------------------------
CODE
  Relative segment, address: CODE_AREA 0000FD8C - 0000FDB7 (0x2c bytes), align: 2
  Segment part 66.            Intra module refs:   Segment part 31
           ENTRY                   ADDRESS         REF BY
           =====                   =======         ======
           ChangeILUMode           0000FD8C 
               stack 1 = 00000000 ( 00000004 )
    -------------------------------------------------------------------------
CODE
  Relative segment, address: CODE_AREA 0000FDB8 - 0000FDE3 (0x2c bytes), align: 2
  Segment part 68.            Intra module refs:   MM_OnKey
                                                   Segment part 31
           ENTRY                   ADDRESS         REF BY
           =====                   =======         ======
           ChangePINGMode          0000FDB8 
               stack 1 = 00000000 ( 00000004 )
    -------------------------------------------------------------------------
CODE
  Relative segment, address: CODE_AREA 0000FDE4 - 0000FE0F (0x2c bytes), align: 2
  Segment part 70.            Intra module refs:   Segment part 31
           ENTRY                   ADDRESS         REF BY
           =====                   =======         ======
           ChangeDoubleVibra       0000FDE4 
               stack 1 = 00000000 ( 00000004 )
    -------------------------------------------------------------------------
CODE
  Relative segment, address: CODE_AREA 0000FE10 - 0000FE13 (0x4 bytes), align: 2
  Segment part 71.            Intra module refs:   ChangeActiveUp
                                                   ChangeDoubleVibra
                                                   ChangeILUMode
                                                   ChangeINCMode
                                                   ChangeId3tagMode
                                                   ChangePINGMode
                                                   ChangeShowGroupsMode
                                                   ChangeShowOfflineMode
                                                   ChangeSoundMode
                                                   ChangeVibraMode
    -------------------------------------------------------------------------
CODE
  Relative segment, address: CODE_AREA 0000FE14 - 0000FE17 (0x4 bytes), align: 2
  Segment part 73.            Intra module refs:   Segment part 31
           ENTRY                   ADDRESS         REF BY
           =====                   =======         ======
           CreateLogs              0000FE14 
               stack 1 = 00000000 ( 00000004 )
    -------------------------------------------------------------------------
CODE
  Relative segment, address: CODE_AREA 0000FE18 - 0000FE4F (0x38 bytes), align: 2
  Segment part 75.            Intra module refs:   LoadMenuLang
                                                   MM_onClose
           ENTRY                   ADDRESS         REF BY
           =====                   =======         ======
           FreeMenu                0000FE18 
               stack 1 = 00000000 ( 00000008 )
    -------------------------------------------------------------------------
CODE
  Relative segment, address: CODE_AREA 0000FE50 - 0000FF7F (0x130 bytes), align: 2
  Segment part 77.            Intra module refs:   MM_onCreate
           ENTRY                   ADDRESS         REF BY
           =====                   =======         ======
           LoadMenuLang            0000FE50 
               stack 1 = 00000000 ( 0000014C )
    -------------------------------------------------------------------------
DATA_Z
  Relative segment, address: CODE_AREA 00024DC8 - 00024DDF (0x18 bytes), align: 2
  Segment part 33.            Intra module refs:   Segment part 101
                                                   Segment part 104
                                                   Segment part 113
           ENTRY                   ADDRESS         REF BY
           =====                   =======         ======
           mm_font                 00024DDC 
           mm_itemFromDisp         00024DD8 
           mm_rc                   00024DC8 
    -------------------------------------------------------------------------
CODE
  Relative segment, address: CODE_AREA 0000FF80 - 000100AB (0x12c bytes), align: 2
  Segment part 79.            Intra module refs:   MM_DrawList
           ENTRY                   ADDRESS         REF BY
           =====                   =======         ======
           DrawIcon                0000FF80 
               stack 1 = 00000000 ( 00000008 )
    -------------------------------------------------------------------------
CODE
  Relative segment, address: CODE_AREA 000100AC - 000100AF (0x4 bytes), align: 2
  Segment part 80.            Intra module refs:   AutoAwayMSG
                                                   DrawIcon
    -------------------------------------------------------------------------
CODE
  Relative segment, address: CODE_AREA 000100B0 - 000100B3 (0x4 bytes), align: 2
  Segment part 81.            Intra module refs:   AutoAwayMSG
                                                   DrawIcon
    -------------------------------------------------------------------------
CODE
  Relative segment, address: CODE_AREA 000100B4 - 000100B7 (0x4 bytes), align: 2
  Segment part 82.            Intra module refs:   ChangeVibraMode
                                                   DrawIcon
    -------------------------------------------------------------------------
CODE
  Relative segment, address: CODE_AREA 000100B8 - 000100BB (0x4 bytes), align: 2
  Segment part 83.            Intra module refs:   ChangeSoundMode
                                                   DrawIcon
    -------------------------------------------------------------------------
CODE
  Relative segment, address: CODE_AREA 000100BC - 000100BF (0x4 bytes), align: 2
  Segment part 84.            Intra module refs:   ChangeINCMode
                                                   DrawIcon
    -------------------------------------------------------------------------
CODE
  Relative segment, address: CODE_AREA 000100C0 - 000100C3 (0x4 bytes), align: 2
  Segment part 85.            Intra module refs:   ChangeDoubleVibra
                                                   DrawIcon
    -------------------------------------------------------------------------
CODE
  Relative segment, address: CODE_AREA 000100C4 - 000100C7 (0x4 bytes), align: 2
  Segment part 86.            Intra module refs:   ChangeILUMode
                                                   DrawIcon
    -------------------------------------------------------------------------
CODE
  Relative segment, address: CODE_AREA 000100C8 - 000100CB (0x4 bytes), align: 2
  Segment part 87.            Intra module refs:   ChangePINGMode
                                                   DrawIcon
    -------------------------------------------------------------------------
CODE
  Relative segment, address: CODE_AREA 000100CC - 000100CF (0x4 bytes), align: 2
  Segment part 88.            Intra module refs:   ChangeShowOfflineMode
                                                   DrawIcon
    -------------------------------------------------------------------------
CODE
  Relative segment, address: CODE_AREA 000100D0 - 000100D3 (0x4 bytes), align: 2
  Segment part 89.            Intra module refs:   ChangeShowGroupsMode
                                                   DrawIcon
    -------------------------------------------------------------------------
CODE
  Relative segment, address: CODE_AREA 000100D4 - 000100D7 (0x4 bytes), align: 2
  Segment part 90.            Intra module refs:   ChangeActiveUp
                                                   DrawIcon
    -------------------------------------------------------------------------
CODE
  Relative segment, address: CODE_AREA 000100D8 - 000100DB (0x4 bytes), align: 2
  Segment part 91.            Intra module refs:   ChangeId3tagMode
                                                   DrawIcon
    -------------------------------------------------------------------------
CODE
  Relative segment, address: CODE_AREA 000100DC - 0001018B (0xb0 bytes), align: 2
  Segment part 93.            Intra module refs:   MM_DrawList
           ENTRY                   ADDRESS         REF BY
           =====                   =======         ======
           DrawMMScrollBar         000100DC 
               stack 1 = 00000000 ( 00000038 )
    -------------------------------------------------------------------------
DATA_I
  Relative segment, address: DATA_AREA 000001CC - 00000287 (0xbc bytes), align: 2
  Segment part 30.            Intra module refs:   DrawCheckBox
                                                   MM_OnKey
                                                   Segment part 109
                                                   Segment part 112
           ENTRY                   ADDRESS         REF BY
           =====                   =======         ======
           isAbout                 00000220 
           isLoadLangMenu          00000284 
           mm_curpos               00000280 
           startItem               00000278 
           x2_cb                   0000027C 
    -------------------------------------------------------------------------
CODE
  Relative segment, address: CODE_AREA 0001018C - 00010517 (0x38c bytes), align: 2
  Segment part 95.            Intra module refs:   MM_OnRedraw
           ENTRY                   ADDRESS         REF BY
           =====                   =======         ======
           MM_DrawList             0001018C 
               stack 1 = 00000000 ( 0000004C )
    -------------------------------------------------------------------------
CODE
  Relative segment, address: CODE_AREA 00010518 - 0001051B (0x4 bytes), align: 2
  Segment part 96.            Intra module refs:   DrawIcon
                                                   MM_DrawList
    -------------------------------------------------------------------------
CODE
  Relative segment, address: CODE_AREA 0001051C - 0001056F (0x54 bytes), align: 2
  Segment part 98.            Intra module refs:   MM_OnKey
           ENTRY                   ADDRESS         REF BY
           =====                   =======         ======
           MM_MoveUp               0001051C 
    -------------------------------------------------------------------------
CODE
  Relative segment, address: CODE_AREA 00010570 - 000105C7 (0x58 bytes), align: 2
  Segment part 100.           Intra module refs:   MM_OnKey
           ENTRY                   ADDRESS         REF BY
           =====                   =======         ======
           MM_MoveDown             00010570 
    -------------------------------------------------------------------------
CODE
  Relative segment, address: CODE_AREA 000105C8 - 000105CB (0x4 bytes), align: 2
  Segment part 101.           Intra module refs:   MM_MoveDown
                                                   MM_MoveUp
    -------------------------------------------------------------------------
CODE
  Relative segment, address: CODE_AREA 000105CC - 0001080F (0x244 bytes), align: 2
  Segment part 103.           Intra module refs:   MM_OnRedraw
           ENTRY                   ADDRESS         REF BY
           =====                   =======         ======
           DrawAbout               000105CC 
               stack 1 = 00000000 ( 00000054 )
    -------------------------------------------------------------------------
CODE
  Relative segment, address: CODE_AREA 00010810 - 00010813 (0x4 bytes), align: 2
  Segment part 104.           Intra module refs:   DrawAbout
                                                   DrawMMScrollBar
                                                   FreeMenu
                                                   LoadMenuLang
    -------------------------------------------------------------------------
CODE
  Relative segment, address: CODE_AREA 00010814 - 00010817 (0x4 bytes), align: 2
  Segment part 105.           Intra module refs:   DrawAbout
                                                   MM_DrawList
    -------------------------------------------------------------------------
CODE
  Relative segment, address: CODE_AREA 00010818 - 0001081B (0x4 bytes), align: 2
  Segment part 106.           Intra module refs:   DrawAbout
                                                   DrawMMScrollBar
                                                   MM_DrawList
    -------------------------------------------------------------------------
CODE
  Relative segment, address: CODE_AREA 0001081C - 000108C7 (0xac bytes), align: 2
  Segment part 108.           Intra module refs:   MM_Canvas
           ENTRY                   ADDRESS         REF BY
           =====                   =======         ======
           MM_OnRedraw             0001081C 
               stack 1 = 00000000 ( 00000018 )
    -------------------------------------------------------------------------
CODE
  Relative segment, address: CODE_AREA 000108C8 - 000108CB (0x4 bytes), align: 2
  Segment part 109.           Intra module refs:   AboutDlg
                                                   MM_OnRedraw
    -------------------------------------------------------------------------
CODE
  Relative segment, address: CODE_AREA 000108CC - 00010987 (0xbc bytes), align: 2
  Segment part 111.           Intra module refs:   MM_Canvas
           ENTRY                   ADDRESS         REF BY
           =====                   =======         ======
           MM_onCreate             000108CC 
               stack 1 = 00000000 ( 0000001C )
    -------------------------------------------------------------------------
CODE
  Relative segment, address: CODE_AREA 00010988 - 0001098B (0x4 bytes), align: 2
  Segment part 112.           Intra module refs:   MM_DrawList
                                                   MM_MoveDown
                                                   MM_MoveUp
                                                   MM_onCreate
    -------------------------------------------------------------------------
CODE
  Relative segment, address: CODE_AREA 0001098C - 0001098F (0x4 bytes), align: 2
  Segment part 113.           Intra module refs:   MM_DrawList
                                                   MM_OnRedraw
                                                   MM_onCreate
    -------------------------------------------------------------------------
CODE
  Relative segment, address: CODE_AREA 00010990 - 000109CB (0x3c bytes), align: 2
  Segment part 115.           Intra module refs:   MM_Canvas
           ENTRY                   ADDRESS         REF BY
           =====                   =======         ======
           MM_onClose              00010990 
               stack 1 = 00000000 ( 0000000C )
    -------------------------------------------------------------------------
CODE
  Relative segment, address: CODE_AREA 000109CC - 000109CF (0x4 bytes), align: 2
  Segment part 116.           Intra module refs:   MM_onClose
                                                   MM_onCreate
    -------------------------------------------------------------------------
CODE
  Relative segment, address: CODE_AREA 000109D0 - 000109D3 (0x4 bytes), align: 2
  Segment part 117.           Intra module refs:   MM_onClose
                                                   MM_onCreate
    -------------------------------------------------------------------------
CODE
  Relative segment, address: CODE_AREA 000109D4 - 000109F7 (0x24 bytes), align: 2
  Segment part 119.           Intra module refs:   MM_Canvas
           ENTRY                   ADDRESS         REF BY
           =====                   =======         ======
           MM_onFocus              000109D4 
               stack 1 = 00000000 ( 00000008 )
    -------------------------------------------------------------------------
CODE
  Relative segment, address: CODE_AREA 000109F8 - 00010A0B (0x14 bytes), align: 2
  Segment part 121.           Intra module refs:   MM_Canvas
           ENTRY                   ADDRESS         REF BY
           =====                   =======         ======
           MM_onUnfocus            000109F8 
    -------------------------------------------------------------------------
CODE
  Relative segment, address: CODE_AREA 00010A0C - 00010B1F (0x114 bytes), align: 2
  Segment part 123.           Intra module refs:   MM_Canvas
           ENTRY                   ADDRESS         REF BY
           =====                   =======         ======
           MM_OnKey                00010A0C 
               stack 1 = 00000000 ( 00000018 )
    -------------------------------------------------------------------------
CODE
  Relative segment, address: CODE_AREA 00010B20 - 00010B27 (0x8 bytes), align: 2
  Segment part 125.           Intra module refs:   MM_Canvas
           ENTRY                   ADDRESS         REF BY
           =====                   =======         ======
           MM_method8              00010B20 
    -------------------------------------------------------------------------
CODE
  Relative segment, address: CODE_AREA 00010B28 - 00010B2F (0x8 bytes), align: 2
  Segment part 127.           Intra module refs:   MM_Canvas
           ENTRY                   ADDRESS         REF BY
           =====                   =======         ======
           MM_method9              00010B28 
    -------------------------------------------------------------------------
DATA_C
  Relative segment, address: CODE_AREA 0001D8A8 - 0001D8B7 (0x10 bytes), align: 2
  Segment part 2.             Intra module refs:   Segment part 31
    -------------------------------------------------------------------------
DATA_C
  Relative segment, address: CODE_AREA 0001D8B8 - 0001D8C7 (0x10 bytes), align: 2
  Segment part 3.             Intra module refs:   Segment part 31
    -------------------------------------------------------------------------
DATA_C
  Relative segment, address: CODE_AREA 0001D8C8 - 0001D8CF (0x8 bytes), align: 2
  Segment part 4.             Intra module refs:   Segment part 31
    -------------------------------------------------------------------------
DATA_C
  Relative segment, address: CODE_AREA 0001D8D0 - 0001D8DB (0xc bytes), align: 2
  Segment part 5.             Intra module refs:   Segment part 31
    -------------------------------------------------------------------------
DATA_C
  Relative segment, address: CODE_AREA 0001D8DC - 0001D8EB (0x10 bytes), align: 2
  Segment part 6.             Intra module refs:   Segment part 31
    -------------------------------------------------------------------------
DATA_C
  Relative segment, address: CODE_AREA 0001D8EC - 0001D8F7 (0xc bytes), align: 2
  Segment part 7.             Intra module refs:   Segment part 31
    -------------------------------------------------------------------------
DATA_C
  Relative segment, address: CODE_AREA 0001D8F8 - 0001D90B (0x14 bytes), align: 2
  Segment part 8.             Intra module refs:   Segment part 31
    -------------------------------------------------------------------------
DATA_C
  Relative segment, address: CODE_AREA 0001D90C - 0001D91B (0x10 bytes), align: 2
  Segment part 9.             Intra module refs:   Segment part 31
    -------------------------------------------------------------------------
DATA_C
  Relative segment, address: CODE_AREA 0001D91C - 0001D92B (0x10 bytes), align: 2
  Segment part 10.            Intra module refs:   LoadMenuLang
    -------------------------------------------------------------------------
DATA_C
  Relative segment, address: CODE_AREA 0001D92C - 0001D933 (0x8 bytes), align: 2
  Segment part 12.            Intra module refs:   MM_DrawList
    -------------------------------------------------------------------------
DATA_C
  Relative segment, address: CODE_AREA 0001D934 - 0001D9D7 (0xa4 bytes), align: 2
  Segment part 13.            Intra module refs:   DrawAbout
    -------------------------------------------------------------------------
DATA_C
  Relative segment, address: CODE_AREA 0001D9D8 - 0001D9E7 (0x10 bytes), align: 2
  Segment part 14.            Intra module refs:   MM_OnRedraw
    -------------------------------------------------------------------------
DATA_C
  Relative segment, address: CODE_AREA 0001D9E8 - 0001D9EF (0x8 bytes), align: 2
  Segment part 15.            Intra module refs:   Segment part 31
    -------------------------------------------------------------------------
DATA_C
  Relative segment, address: CODE_AREA 0001D9F0 - 0001D9FB (0xc bytes), align: 2
  Segment part 16.            Intra module refs:   Segment part 31
    -------------------------------------------------------------------------
DATA_C
  Relative segment, address: CODE_AREA 0001D9FC - 0001DA0F (0x14 bytes), align: 2
  Segment part 17.            Intra module refs:   Segment part 31
    -------------------------------------------------------------------------
DATA_C
  Relative segment, address: CODE_AREA 0001DA10 - 0001DA1F (0x10 bytes), align: 2
  Segment part 18.            Intra module refs:   Segment part 31
    -------------------------------------------------------------------------
DATA_C
  Relative segment, address: CODE_AREA 0001DA20 - 0001DA2B (0xc bytes), align: 2
  Segment part 19.            Intra module refs:   Segment part 31
    -------------------------------------------------------------------------
DATA_C
  Relative segment, address: CODE_AREA 0001DA2C - 0001DA37 (0xc bytes), align: 2
  Segment part 20.            Intra module refs:   Segment part 31
    -------------------------------------------------------------------------
DATA_C
  Relative segment, address: CODE_AREA 0001DA38 - 0001DA4F (0x18 bytes), align: 2
  Segment part 21.            Intra module refs:   Segment part 31
    -------------------------------------------------------------------------
DATA_C
  Relative segment, address: CODE_AREA 0001DA50 - 0001DA5F (0x10 bytes), align: 2
  Segment part 22.            Intra module refs:   Segment part 31
    -------------------------------------------------------------------------
DATA_C
  Relative segment, address: CODE_AREA 0001DA60 - 0001DA73 (0x14 bytes), align: 2
  Segment part 23.            Intra module refs:   Segment part 31
    -------------------------------------------------------------------------
DATA_C
  Relative segment, address: CODE_AREA 0001DA74 - 0001DA83 (0x10 bytes), align: 2
  Segment part 24.            Intra module refs:   Segment part 31
    -------------------------------------------------------------------------
DATA_C
  Relative segment, address: CODE_AREA 0001DA84 - 0001DA8B (0x8 bytes), align: 2
  Segment part 25.            Intra module refs:   Segment part 31
    -------------------------------------------------------------------------
DATA_C
  Relative segment, address: CODE_AREA 0001DA8C - 0001DA97 (0xc bytes), align: 2
  Segment part 26.            Intra module refs:   Segment part 31
    -------------------------------------------------------------------------
DATA_C
  Relative segment, address: CODE_AREA 0001DA98 - 0001DAA7 (0x10 bytes), align: 2
  Segment part 27.            Intra module refs:   Segment part 31
    -------------------------------------------------------------------------
DATA_C
  Relative segment, address: CODE_AREA 0001DAA8 - 0001DADB (0x34 bytes), align: 2
  Segment part 36.            Intra module refs:   CreateMainMenu
           ENTRY                   ADDRESS         REF BY
           =====                   =======         ======
           MM_Canvas               0001DAD4 
    -------------------------------------------------------------------------
CODE
  Relative segment, address: CODE_AREA 00010B30 - 00010B7B (0x4c bytes), align: 2
  Segment part 129.
           ENTRY                   ADDRESS         REF BY
           =====                   =======         ======
           CreateMainMenu          00010B30        ClOnKey (main)
               stack 1 = 00000000 ( 00000008 )
    -------------------------------------------------------------------------
CODE
  Relative segment, address: CODE_AREA 00010B7C - 00010CAF (0x134 bytes), align: 2
  Segment part 150.           Intra module refs:   DrawIcon
           ENTRY                   ADDRESS         REF BY
           =====                   =======         ======
           DrawCheckBox            00010B7C        DrawIconInfo (main)
               stack 1 = 00000000 ( 0000002C )
    -------------------------------------------------------------------------
DATA_ID
  Relative segment, address: CODE_AREA 000001CC - 00000287 (0xbc bytes), align: 2
  Segment part 31.            Intra module refs:   Segment part 30

    *************************************************************************

  FILE NAME : D:\pasha\elf\_MY_PROJECT_\naticq_mod2\Release\Obj\manage_cl.r79
  PROGRAM MODULE, NAME : manage_cl

  SEGMENTS IN THE MODULE
  ======================
DATA_C
  Relative segment, address: CODE_AREA 0001DADC - 0001DB07 (0x2c bytes), align: 2
  Segment part 2.             Intra module refs:   CreateAddContactGrpDialog
    -------------------------------------------------------------------------
DATA_C
  Relative segment, address: CODE_AREA 0001DB08 - 0001DB0F (0x8 bytes), align: 2
  Segment part 3.             Intra module refs:   Segment part 17
                                                   Segment part 19
                                                   Segment part 22
    -------------------------------------------------------------------------
DATA_C
  Relative segment, address: CODE_AREA 0001E4C7 - 0001E4C7 (0x1 bytes), align: 0
  Segment part 4.             Intra module refs:   Segment part 17
                                                   Segment part 19
                                                   Segment part 22
    -------------------------------------------------------------------------
DATA_C
  Relative segment, address: CODE_AREA 0001DB10 - 0001DB1B (0xc bytes), align: 2
  Segment part 6.             Intra module refs:   Segment part 25
    -------------------------------------------------------------------------
DATA_C
  Relative segment, address: CODE_AREA 0001DB1C - 0001DB2F (0x14 bytes), align: 2
  Segment part 7.             Intra module refs:   Segment part 34
    -------------------------------------------------------------------------
DATA_C
  Relative segment, address: CODE_AREA 0001DB30 - 0001DB43 (0x14 bytes), align: 2
  Segment part 8.             Intra module refs:   Segment part 32
    -------------------------------------------------------------------------
DATA_C
  Relative segment, address: CODE_AREA 0001DB44 - 0001DB57 (0x14 bytes), align: 2
  Segment part 9.             Intra module refs:   Segment part 31
                                                   Segment part 32
    -------------------------------------------------------------------------
DATA_C
  Relative segment, address: CODE_AREA 0001DB58 - 0001DB6B (0x14 bytes), align: 2
  Segment part 10.            Intra module refs:   Segment part 29
    -------------------------------------------------------------------------
DATA_C
  Relative segment, address: CODE_AREA 0001DB6C - 0001DB8F (0x24 bytes), align: 2
  Segment part 11.            Intra module refs:   Segment part 29
    -------------------------------------------------------------------------
DATA_C
  Relative segment, address: CODE_AREA 0001DB90 - 0001DBBB (0x2c bytes), align: 2
  Segment part 12.            Intra module refs:   Segment part 29
    -------------------------------------------------------------------------
DATA_C
  Relative segment, address: CODE_AREA 0001DBBC - 0001DBDF (0x24 bytes), align: 2
  Segment part 13.            Intra module refs:   Segment part 29
    -------------------------------------------------------------------------
DATA_C
  Relative segment, address: CODE_AREA 0001DBE0 - 0001DBF3 (0x14 bytes), align: 2
  Segment part 14.            Intra module refs:   Segment part 29
    -------------------------------------------------------------------------
DATA_C
  Relative segment, address: CODE_AREA 0001DBF4 - 0001DC07 (0x14 bytes), align: 2
  Segment part 15.            Intra module refs:   Segment part 27
    -------------------------------------------------------------------------
DATA_C
  Relative segment, address: CODE_AREA 0001DC08 - 0001DC13 (0xc bytes), align: 2
  Segment part 16.            Intra module refs:   Segment part 34
    -------------------------------------------------------------------------
DATA_C
  Relative segment, address: CODE_AREA 0001DC14 - 0001DC2B (0x18 bytes), align: 2
  Segment part 17.            Intra module refs:   mmanage_cl_skt
    -------------------------------------------------------------------------
DATA_C
  Relative segment, address: CODE_AREA 0001DC2C - 0001DC33 (0x8 bytes), align: 2
  Segment part 18.            Intra module refs:   Segment part 34
           ENTRY                   ADDRESS         REF BY
           =====                   =======         ======
           mmanage_cl_skt          0001DC2C 
    -------------------------------------------------------------------------
DATA_C
  Relative segment, address: CODE_AREA 0001DC34 - 0001DC4B (0x18 bytes), align: 2
  Segment part 19.            Intra module refs:   acgd_skt
    -------------------------------------------------------------------------
DATA_C
  Relative segment, address: CODE_AREA 0001DC4C - 0001DC53 (0x8 bytes), align: 2
  Segment part 20.            Intra module refs:   Segment part 27
           ENTRY                   ADDRESS         REF BY
           =====                   =======         ======
           acgd_skt                0001DC4C 
    -------------------------------------------------------------------------
DATA_C
  Relative segment, address: CODE_AREA 0001DC54 - 0001DC5F (0xc bytes), align: 2
  Segment part 21.            Intra module refs:   Segment part 31
    -------------------------------------------------------------------------
DATA_C
  Relative segment, address: CODE_AREA 0001DC60 - 0001DC77 (0x18 bytes), align: 2
  Segment part 22.            Intra module refs:   pl_skt
    -------------------------------------------------------------------------
DATA_C
  Relative segment, address: CODE_AREA 0001DC78 - 0001DC7F (0x8 bytes), align: 2
  Segment part 23.            Intra module refs:   Segment part 31
           ENTRY                   ADDRESS         REF BY
           =====                   =======         ======
           pl_skt                  0001DC78 
    -------------------------------------------------------------------------
CODE
  Relative segment, address: CODE_AREA 00010CB0 - 00010E0B (0x15c bytes), align: 2
  Segment part 36.            Intra module refs:   Segment part 27
           ENTRY                   ADDRESS         REF BY
           =====                   =======         ======
           acgd_onkey              00010CB0 
               stack 1 = 00000000 ( 00000090 )
    -------------------------------------------------------------------------
CODE
  Relative segment, address: CODE_AREA 00010E0C - 00010EFB (0xf0 bytes), align: 2
  Segment part 38.            Intra module refs:   Segment part 27
           ENTRY                   ADDRESS         REF BY
           =====                   =======         ======
           acgd_ghook              00010E0C 
               stack 1 = 00000000 ( 0000003C )
    -------------------------------------------------------------------------
DATA_I
  Relative segment, address: DATA_AREA 00000288 - 0000028F (0x8 bytes), align: 2
  Segment part 24.            Intra module refs:   acgd_ghook
    -------------------------------------------------------------------------
CODE
  Relative segment, address: CODE_AREA 00010EFC - 00010EFF (0x4 bytes), align: 2
  Segment part 40.            Intra module refs:   Segment part 27
           ENTRY                   ADDRESS         REF BY
           =====                   =======         ======
           acgd_locret             00010EFC 
    -------------------------------------------------------------------------
DATA_I
  Relative segment, address: DATA_AREA 00000290 - 000002DB (0x4c bytes), align: 2
  Segment part 26.            Intra module refs:   CreateAddContactGrpDialog
           ENTRY                   ADDRESS         REF BY
           =====                   =======         ======
           acgd_desc               00000290 
           acgd_hdr                000002C8 
    -------------------------------------------------------------------------
CODE
  Relative segment, address: CODE_AREA 00010F00 - 0001127F (0x380 bytes), align: 2
  Segment part 42.            Intra module refs:   AddContactGrp
           ENTRY                   ADDRESS         REF BY
           =====                   =======         ======
           CreateAddContactGrpDialog
                                   00010F00        AddCurContact (main)
               stack 1 = 00000000 ( 00000068 )
    -------------------------------------------------------------------------
DATA_C
  Relative segment, address: CODE_AREA 0001DC80 - 0001DC93 (0x14 bytes), align: 2
  Segment part 28.            Intra module refs:   GetPrivatePosInMenu
           ENTRY                   ADDRESS         REF BY
           =====                   =======         ======
           PR_LIST_ID              0001DC80 
    -------------------------------------------------------------------------
CODE
  Relative segment, address: CODE_AREA 00011280 - 000112C7 (0x48 bytes), align: 2
  Segment part 44.            Intra module refs:   PL_InvisibleForAll
                                                   PL_VisibleForAll
                                                   PL_VisibleForAllExceptInvisList
                                                   PL_VisibleOnlyForContactList
                                                   PL_VisibleOnlyForVisList
           ENTRY                   ADDRESS         REF BY
           =====                   =======         ======
           SetPrivateStatus        00011280        LoadOnKey (main)
                                                   LongPressActionOnChat (main)
               stack 1 = 00000000 ( 00000008 )
    -------------------------------------------------------------------------
CODE
  Relative segment, address: CODE_AREA 000112C8 - 000112CB (0x4 bytes), align: 2
  Segment part 45.            Intra module refs:   SetPrivateStatus
                                                   acgd_onkey
    -------------------------------------------------------------------------
CODE
  Relative segment, address: CODE_AREA 000112CC - 000112FB (0x30 bytes), align: 2
  Segment part 47.            Intra module refs:   CreatePrivateStatusMenu
           ENTRY                   ADDRESS         REF BY
           =====                   =======         ======
           GetPrivatePosInMenu     000112CC 
    -------------------------------------------------------------------------
CODE
  Relative segment, address: CODE_AREA 000112FC - 000112FF (0x4 bytes), align: 2
  Segment part 48.            Intra module refs:   GetPrivatePosInMenu
                                                   SetPrivateStatus
    -------------------------------------------------------------------------
CODE
  Relative segment, address: CODE_AREA 00011300 - 00011317 (0x18 bytes), align: 2
  Segment part 50.            Intra module refs:   Segment part 30
           LOCAL                   ADDRESS         
           =====                   =======         
           PL_VisibleForAll        00011300 
               stack 1 = 00000000 ( 00000004 )
    -------------------------------------------------------------------------
CODE
  Relative segment, address: CODE_AREA 00011318 - 0001132F (0x18 bytes), align: 2
  Segment part 52.            Intra module refs:   Segment part 30
           LOCAL                   ADDRESS         
           =====                   =======         
           PL_VisibleOnlyForVisList
                                   00011318 
               stack 1 = 00000000 ( 00000004 )
    -------------------------------------------------------------------------
CODE
  Relative segment, address: CODE_AREA 00011330 - 00011347 (0x18 bytes), align: 2
  Segment part 54.            Intra module refs:   Segment part 30
           LOCAL                   ADDRESS         
           =====                   =======         
           PL_VisibleForAllExceptInvisList
                                   00011330 
               stack 1 = 00000000 ( 00000004 )
    -------------------------------------------------------------------------
CODE
  Relative segment, address: CODE_AREA 00011348 - 0001135F (0x18 bytes), align: 2
  Segment part 56.            Intra module refs:   Segment part 30
           LOCAL                   ADDRESS         
           =====                   =======         
           PL_VisibleOnlyForContactList
                                   00011348 
               stack 1 = 00000000 ( 00000004 )
    -------------------------------------------------------------------------
CODE
  Relative segment, address: CODE_AREA 00011360 - 00011377 (0x18 bytes), align: 2
  Segment part 58.            Intra module refs:   Segment part 30
           LOCAL                   ADDRESS         
           =====                   =======         
           PL_InvisibleForAll      00011360 
               stack 1 = 00000000 ( 00000004 )
    -------------------------------------------------------------------------
CODE
  Relative segment, address: CODE_AREA 00011378 - 0001138B (0x14 bytes), align: 2
  Segment part 60.            Intra module refs:   Segment part 31
           LOCAL                   ADDRESS         
           =====                   =======         
           private_list_ghook      00011378 
               stack 1 = 00000000 ( 00000004 )
    -------------------------------------------------------------------------
DATA_C
  Relative segment, address: CODE_AREA 0001DC94 - 0001DD1F (0x8c bytes), align: 2
  Segment part 29.            Intra module refs:   Segment part 31
    -------------------------------------------------------------------------
DATA_C
  Relative segment, address: CODE_AREA 0001DD20 - 0001DD33 (0x14 bytes), align: 2
  Segment part 30.            Intra module refs:   Segment part 31
    -------------------------------------------------------------------------
DATA_C
  Relative segment, address: CODE_AREA 0001DD34 - 0001DD73 (0x40 bytes), align: 2
  Segment part 31.            Intra module refs:   CreatePrivateStatusMenu
    -------------------------------------------------------------------------
CODE
  Relative segment, address: CODE_AREA 0001138C - 000113EF (0x64 bytes), align: 2
  Segment part 62.            Intra module refs:   PrivateStatus
           ENTRY                   ADDRESS         REF BY
           =====                   =======         ======
           CreatePrivateStatusMenu
                                   0001138C 
               stack 1 = 00000000 ( 00000018 )
    -------------------------------------------------------------------------
CODE
  Relative segment, address: CODE_AREA 000113F0 - 000113F7 (0x8 bytes), align: 2
  Segment part 64.            Intra module refs:   Segment part 33
           LOCAL                   ADDRESS         
           =====                   =======         
           AddContactGrp           000113F0 
               stack 1 = 00000000 ( 00000004 )
    -------------------------------------------------------------------------
CODE
  Relative segment, address: CODE_AREA 000113F8 - 000113FB (0x4 bytes), align: 2
  Segment part 66.            Intra module refs:   Segment part 33
           LOCAL                   ADDRESS         
           =====                   =======         
           PrivateStatus           000113F8 
               stack 1 = 00000000 ( 00000004 )
    -------------------------------------------------------------------------
CODE
  Relative segment, address: CODE_AREA 000113FC - 0001140F (0x14 bytes), align: 2
  Segment part 68.            Intra module refs:   Segment part 34
           LOCAL                   ADDRESS         
           =====                   =======         
           mmanage_cl_ghook        000113FC 
               stack 1 = 00000000 ( 00000004 )
    -------------------------------------------------------------------------
DATA_C
  Relative segment, address: CODE_AREA 0001DD74 - 0001DDAB (0x38 bytes), align: 2
  Segment part 32.            Intra module refs:   Segment part 34
    -------------------------------------------------------------------------
DATA_C
  Relative segment, address: CODE_AREA 0001DDAC - 0001DDB3 (0x8 bytes), align: 2
  Segment part 33.            Intra module refs:   Segment part 34
    -------------------------------------------------------------------------
DATA_C
  Relative segment, address: CODE_AREA 0001DDB4 - 0001DDF3 (0x40 bytes), align: 2
  Segment part 34.            Intra module refs:   CreateManageCLMenu
    -------------------------------------------------------------------------
CODE
  Relative segment, address: CODE_AREA 00011410 - 0001146F (0x60 bytes), align: 2
  Segment part 70.
           ENTRY                   ADDRESS         REF BY
           =====                   =======         ======
           CreateManageCLMenu      00011410        Segment part 31 (mainmenu)
               stack 1 = 00000000 ( 00000018 )
    -------------------------------------------------------------------------
DATA_ID
  Relative segment, address: CODE_AREA 00000288 - 0000028F (0x8 bytes), align: 2
  Segment part 25.            Intra module refs:   Segment part 24
    -------------------------------------------------------------------------
DATA_ID
  Relative segment, address: CODE_AREA 00000290 - 000002DB (0x4c bytes), align: 2
  Segment part 27.            Intra module refs:   Segment part 26

    *************************************************************************

  FILE NAME : D:\pasha\elf\_MY_PROJECT_\naticq_mod2\Release\Obj\player_tags.r79
  PROGRAM MODULE, NAME : player_tags

  SEGMENTS IN THE MODULE
  ======================
DATA_Z
  Relative segment, address: CODE_AREA 00024DE0 - 00024FDF (0x200 bytes), align: 2
  Segment part 8.             Intra module refs:   GetTags
           ENTRY                   ADDRESS         REF BY
           =====                   =======         ======
           teast2                  00024EE0        set_my_xstatus2 (main)
           teast3                  00024DE0 
    -------------------------------------------------------------------------
DATA_I
  Relative segment, address: DATA_AREA 000002DC - 000002EF (0x14 bytes), align: 2
  Segment part 6.             Intra module refs:   GetTags
                                                   initTags
           ENTRY                   ADDRESS         REF BY
           =====                   =======         ======
           cfnt                    000002E4 
           pcsmadr                 000002E8 
           pcsmid                  000002E0 
           tagw                    000002DC 
           wstag                   000002EC 
    -------------------------------------------------------------------------
CODE
  Relative segment, address: CODE_AREA 00011470 - 000114AF (0x40 bytes), align: 2
  Segment part 10.
           ENTRY                   ADDRESS         REF BY
           =====                   =======         ======
           initTags                00011470        main (main)
                                                   maincsm_onmessage (main)
               stack 1 = 00000000 ( 00000008 )
    -------------------------------------------------------------------------
CODE
  Relative segment, address: CODE_AREA 000114B0 - 0001177B (0x2cc bytes), align: 2
  Segment part 12.
           ENTRY                   ADDRESS         REF BY
           =====                   =======         ======
           GetTags                 000114B0        Segment part 201 (main)
                                                   Segment part 760 (main)
                                                   set_my_xstatus (main)
               stack 1 = 00000000 ( 00000030 )
    -------------------------------------------------------------------------
DATA_ID
  Relative segment, address: CODE_AREA 000002DC - 000002EF (0x14 bytes), align: 2
  Segment part 7.             Intra module refs:   Segment part 6
    -------------------------------------------------------------------------
DATA_C
  Relative segment, address: CODE_AREA 0001DDF4 - 0001DE17 (0x24 bytes), align: 2
  Segment part 2.             Intra module refs:   GetTags
    -------------------------------------------------------------------------
DATA_C
  Relative segment, address: CODE_AREA 0001DE18 - 0001DE1F (0x8 bytes), align: 2
  Segment part 3.             Intra module refs:   GetTags

    *************************************************************************

  FILE NAME : D:\pasha\elf\_MY_PROJECT_\naticq_mod2\Release\Obj\screen_save.r79
  PROGRAM MODULE, NAME : screen_save

  SEGMENTS IN THE MODULE
  ======================
DATA_Z
  Relative segment, address: CODE_AREA 00024FE0 - 00024FF3 (0x14 bytes), align: 2
  Segment part 11.            Intra module refs:   Segment part 26
           ENTRY                   ADDRESS         REF BY
           =====                   =======         ======
           battery                 00024FE0 
           igrek                   00024FE8 
           iks                     00024FE4 
           time                    00024FEC 
    -------------------------------------------------------------------------
DATA_Z
  Relative segment, address: CODE_AREA 00024FF4 - 00024FF7 (0x4 bytes), align: 2
  Segment part 13.            Intra module refs:   method1
           ENTRY                   ADDRESS         REF BY
           =====                   =======         ======
           color_SS                00024FF4 
    -------------------------------------------------------------------------
DATA_Z
  Relative segment, address: CODE_AREA 00024FF8 - 00024FFB (0x4 bytes), align: 2
  Segment part 14.            Intra module refs:   method5
           ENTRY                   ADDRESS         REF BY
           =====                   =======         ======
           menu                    00024FF8 
    -------------------------------------------------------------------------
CODE
  Relative segment, address: CODE_AREA 0001177C - 00011813 (0x98 bytes), align: 2
  Segment part 23.            Intra module refs:   reftes
           ENTRY                   ADDRESS         REF BY
           =====                   =======         ======
           Draw5                   0001177C 
               stack 1 = 00000000 ( 00000028 )
    -------------------------------------------------------------------------
CODE
  Relative segment, address: CODE_AREA 00011814 - 00011C93 (0x480 bytes), align: 2
  Segment part 25.            Intra module refs:   method0
                                                   method1
                                                   method3
           ENTRY                   ADDRESS         REF BY
           =====                   =======         ======
           reftes                  00011814 
               stack 1 = 00000000 ( 0000008C )
    -------------------------------------------------------------------------
CODE
  Relative segment, address: CODE_AREA 00011C94 - 00011C97 (0x4 bytes), align: 2
  Segment part 26.            Intra module refs:   reftes
    -------------------------------------------------------------------------
CODE
  Relative segment, address: CODE_AREA 00011C98 - 00011C9B (0x4 bytes), align: 2
  Segment part 27.            Intra module refs:   reftes
    -------------------------------------------------------------------------
CODE
  Relative segment, address: CODE_AREA 00011C9C - 00011CC7 (0x2c bytes), align: 2
  Segment part 29.            Intra module refs:   Segment part 15
           LOCAL                   ADDRESS         
           =====                   =======         
           method0                 00011C9C 
               stack 1 = 00000000 ( 00000004 )
    -------------------------------------------------------------------------
CODE
  Relative segment, address: CODE_AREA 00011CC8 - 00011CFF (0x38 bytes), align: 2
  Segment part 31.            Intra module refs:   Segment part 15
           LOCAL                   ADDRESS         
           =====                   =======         
           method1                 00011CC8 
               stack 1 = 00000000 ( 00000008 )
    -------------------------------------------------------------------------
CODE
  Relative segment, address: CODE_AREA 00011D00 - 00011D2B (0x2c bytes), align: 2
  Segment part 33.            Intra module refs:   Segment part 15
           LOCAL                   ADDRESS         
           =====                   =======         
           method2                 00011D00 
               stack 1 = 00000000 ( 00000008 )
    -------------------------------------------------------------------------
CODE
  Relative segment, address: CODE_AREA 00011D2C - 00011D53 (0x28 bytes), align: 2
  Segment part 35.            Intra module refs:   Segment part 15
           LOCAL                   ADDRESS         
           =====                   =======         
           method3                 00011D2C 
               stack 1 = 00000000 ( 00000008 )
    -------------------------------------------------------------------------
CODE
  Relative segment, address: CODE_AREA 00011D54 - 00011D73 (0x20 bytes), align: 2
  Segment part 37.            Intra module refs:   Segment part 15
           LOCAL                   ADDRESS         
           =====                   =======         
           method4                 00011D54 
    -------------------------------------------------------------------------
CODE
  Relative segment, address: CODE_AREA 00011D74 - 00011DC3 (0x50 bytes), align: 2
  Segment part 39.            Intra module refs:   Segment part 15
           LOCAL                   ADDRESS         
           =====                   =======         
           method5                 00011D74 
               stack 1 = 00000000 ( 0000000C )
    -------------------------------------------------------------------------
CODE
  Relative segment, address: CODE_AREA 00011DC4 - 00011DCB (0x8 bytes), align: 2
  Segment part 41.            Intra module refs:   Segment part 15
           LOCAL                   ADDRESS         
           =====                   =======         
           method8                 00011DC4 
    -------------------------------------------------------------------------
CODE
  Relative segment, address: CODE_AREA 00011DCC - 00011DD3 (0x8 bytes), align: 2
  Segment part 43.            Intra module refs:   Segment part 15
           LOCAL                   ADDRESS         
           =====                   =======         
           method9                 00011DCC 
    -------------------------------------------------------------------------
CODE
  Relative segment, address: CODE_AREA 00011DD4 - 00011E43 (0x70 bytes), align: 2
  Segment part 45.
           ENTRY                   ADDRESS         REF BY
           =====                   =======         ======
           CreateScreenSelectGUI   00011DD4        ClOnKey (main)
               stack 1 = 00000000 ( 0000000C )
    -------------------------------------------------------------------------
CODE
  Relative segment, address: CODE_AREA 00011E44 - 00011E47 (0x4 bytes), align: 2
  Segment part 46.            Intra module refs:   CreateScreenSelectGUI
                                                   method3
                                                   method4
    -------------------------------------------------------------------------
DATA_C
  Relative segment, address: CODE_AREA 0001DE20 - 0001DE2B (0xc bytes), align: 2
  Segment part 5.             Intra module refs:   Draw5
    -------------------------------------------------------------------------
DATA_C
  Relative segment, address: CODE_AREA 0001DE2C - 0001DEF3 (0xc8 bytes), align: 2
  Segment part 6.             Intra module refs:   reftes
    -------------------------------------------------------------------------
DATA_C
  Relative segment, address: CODE_AREA 0001DEF4 - 0001DF27 (0x34 bytes), align: 2
  Segment part 15.            Intra module refs:   CreateScreenSelectGUI

    *************************************************************************

  FILE NAME : D:\pasha\elf\_MY_PROJECT_\naticq_mod2\Release\Obj\select_smile.r79
  PROGRAM MODULE, NAME : select_smile

  SEGMENTS IN THE MODULE
  ======================
CODE
  Relative segment, address: CODE_AREA 00011E48 - 00011E7B (0x34 bytes), align: 2
  Segment part 4.             Intra module refs:   method1
           ENTRY                   ADDRESS         REF BY
           =====                   =======         ======
           FindSmileIMGHDR         00011E48 
    -------------------------------------------------------------------------
CODE
  Relative segment, address: CODE_AREA 00011E7C - 00011EE3 (0x68 bytes), align: 2
  Segment part 6.             Intra module refs:   RenderPage
           ENTRY                   ADDRESS         REF BY
           =====                   =======         ======
           DrwImg                  00011E7C 
               stack 1 = 00000000 ( 00000038 )
    -------------------------------------------------------------------------
CODE
  Relative segment, address: CODE_AREA 00011EE4 - 00011F6B (0x88 bytes), align: 2
  Segment part 8.             Intra module refs:   method5
           ENTRY                   ADDRESS         REF BY
           =====                   =======         ======
           PasteCharEditControl    00011EE4 
               stack 1 = 00000000 ( 00000040 )
    -------------------------------------------------------------------------
CODE
  Relative segment, address: CODE_AREA 00011F6C - 00011F6F (0x4 bytes), align: 2
  Segment part 15.            Intra module refs:   FindSmileIMGHDR
    -------------------------------------------------------------------------
CODE
  Relative segment, address: CODE_AREA 00011F70 - 00012163 (0x1f4 bytes), align: 2
  Segment part 17.            Intra module refs:   method0
                                                   method5
           ENTRY                   ADDRESS         REF BY
           =====                   =======         ======
           RenderPage              00011F70 
               stack 1 = 00000000 ( 00000058 )
    -------------------------------------------------------------------------
CODE
  Relative segment, address: CODE_AREA 00012164 - 000121BF (0x5c bytes), align: 2
  Segment part 19.            Intra module refs:   Segment part 2
           LOCAL                   ADDRESS         
           =====                   =======         
           method0                 00012164 
               stack 1 = 00000000 ( 00000018 )
    -------------------------------------------------------------------------
CODE
  Relative segment, address: CODE_AREA 000121C0 - 000121C3 (0x4 bytes), align: 2
  Segment part 20.            Intra module refs:   RenderPage
                                                   method0
    -------------------------------------------------------------------------
CODE
  Relative segment, address: CODE_AREA 000121C4 - 000122AB (0xe8 bytes), align: 2
  Segment part 22.            Intra module refs:   Segment part 2
           LOCAL                   ADDRESS         
           =====                   =======         
           method1                 000121C4 
               stack 1 = 00000000 ( 00000018 )
    -------------------------------------------------------------------------
CODE
  Relative segment, address: CODE_AREA 000122AC - 000122AF (0x4 bytes), align: 2
  Segment part 23.            Intra module refs:   method1
    -------------------------------------------------------------------------
CODE
  Relative segment, address: CODE_AREA 000122B0 - 000122D3 (0x24 bytes), align: 2
  Segment part 25.            Intra module refs:   Segment part 2
           LOCAL                   ADDRESS         
           =====                   =======         
           method2                 000122B0 
               stack 1 = 00000000 ( 00000008 )
    -------------------------------------------------------------------------
CODE
  Relative segment, address: CODE_AREA 000122D4 - 000122EB (0x18 bytes), align: 2
  Segment part 27.            Intra module refs:   Segment part 2
           LOCAL                   ADDRESS         
           =====                   =======         
           method3                 000122D4 
               stack 1 = 00000000 ( 00000008 )
    -------------------------------------------------------------------------
CODE
  Relative segment, address: CODE_AREA 000122EC - 000122FF (0x14 bytes), align: 2
  Segment part 29.            Intra module refs:   Segment part 2
           LOCAL                   ADDRESS         
           =====                   =======         
           method4                 000122EC 
    -------------------------------------------------------------------------
CODE
  Relative segment, address: CODE_AREA 00012300 - 00012597 (0x298 bytes), align: 2
  Segment part 31.            Intra module refs:   Segment part 2
           LOCAL                   ADDRESS         
           =====                   =======         
           method5                 00012300 
               stack 1 = 00000000 ( 00000010 )
    -------------------------------------------------------------------------
CODE
  Relative segment, address: CODE_AREA 00012598 - 0001259F (0x8 bytes), align: 2
  Segment part 33.            Intra module refs:   Segment part 2
           LOCAL                   ADDRESS         
           =====                   =======         
           method8                 00012598 
    -------------------------------------------------------------------------
CODE
  Relative segment, address: CODE_AREA 000125A0 - 000125A7 (0x8 bytes), align: 2
  Segment part 35.            Intra module refs:   Segment part 2
           LOCAL                   ADDRESS         
           =====                   =======         
           method9                 000125A0 
    -------------------------------------------------------------------------
CODE
  Relative segment, address: CODE_AREA 000125A8 - 00012613 (0x6c bytes), align: 2
  Segment part 37.
           ENTRY                   ADDRESS         REF BY
           =====                   =======         ======
           CreateSmileSelectGUI    000125A8        AddSmile (main)
                                                   ed_options_handler (main)
                                                   edchat_onkey (main)
               stack 1 = 00000000 ( 00000010 )
    -------------------------------------------------------------------------
DATA_C
  Relative segment, address: CODE_AREA 0001DF28 - 0001DF5B (0x34 bytes), align: 2
  Segment part 2.             Intra module refs:   CreateSmileSelectGUI

    *************************************************************************

  FILE NAME : D:\pasha\elf\_MY_PROJECT_\naticq_mod2\Release\Obj\smiles_loader.r79
  PROGRAM MODULE, NAME : smiles_loader

  SEGMENTS IN THE MODULE
  ======================
DATA_Z
  Relative segment, address: CODE_AREA 00024FFC - 00024FFF (0x4 bytes), align: 2
  Segment part 5.             Intra module refs:   Segment part 20
           ENTRY                   ADDRESS         REF BY
           =====                   =======         ======
           s_top                   00024FFC        ParseAnswer (main)
                                                   Segment part 23 (select_smile)
    -------------------------------------------------------------------------
DATA_Z
  Relative segment, address: CODE_AREA 00025000 - 00025037 (0x38 bytes), align: 2
  Segment part 6.             Intra module refs:   Segment part 23
                                                   Segment part 29
           ENTRY                   ADDRESS         REF BY
           =====                   =======         ======
           SmilesImgList           0002500C        Segment part 15 (select_smile)
                                                   edchat_ghook (main)
           XStatusesImgList        00025010 
           pictures_loaded         00025024        DrawLoadScreen (main)
           pictures_max            00025020        DrawLoadScreen (main)
           total_smiles            00025014        DrawLoadScreen (main)
           total_xstatuses         00025018        DrawLoadScreen (main)
                                                   Segment part 140 (status_change)
           xstatuses_load          0002501C        DrawLoadScreen (main)
    -------------------------------------------------------------------------
CODE
  Relative segment, address: CODE_AREA 00012614 - 0001263F (0x2c bytes), align: 2
  Segment part 10.
           ENTRY                   ADDRESS         REF BY
           =====                   =======         ======
           FindSmileByUni          00012614        ExtractAnswer (main)
                                                   RenderPage (select_smile)
    -------------------------------------------------------------------------
CODE
  Relative segment, address: CODE_AREA 00012640 - 00012717 (0xd8 bytes), align: 2
  Segment part 12.            Intra module refs:   InitSmiles
           ENTRY                   ADDRESS         REF BY
           =====                   =======         ======
           FreeSmiles              00012640        maincsm_onclose (main)
               stack 1 = 00000000 ( 0000001C )
    -------------------------------------------------------------------------
CODE
  Relative segment, address: CODE_AREA 00012718 - 000127EF (0xd8 bytes), align: 2
  Segment part 14.            Intra module refs:   ProcessNextXStatImg
           ENTRY                   ADDRESS         REF BY
           =====                   =======         ======
           InitSmiles              00012718 
               stack 1 = 00000000 ( 00000044 )
    -------------------------------------------------------------------------
CODE
  Relative segment, address: CODE_AREA 000127F0 - 000128D3 (0xe4 bytes), align: 2
  Segment part 16.            Intra module refs:   InitXStatusesImg
           ENTRY                   ADDRESS         REF BY
           =====                   =======         ======
           CheckSmiles             000127F0 
               stack 1 = 00000000 ( 00000040 )
    -------------------------------------------------------------------------
CODE
  Relative segment, address: CODE_AREA 000128D4 - 000128D7 (0x4 bytes), align: 2
  Segment part 17.            Intra module refs:   CheckSmiles
                                                   InitSmiles
    -------------------------------------------------------------------------
CODE
  Relative segment, address: CODE_AREA 000128D8 - 00012C47 (0x370 bytes), align: 2
  Segment part 19.
           ENTRY                   ADDRESS         REF BY
           =====                   =======         ======
           ProcessNextSmile        000128D8        maincsm_onmessage (main)
               stack 1 = 00000000 ( 000000A0 )
    -------------------------------------------------------------------------
CODE
  Relative segment, address: CODE_AREA 00012C48 - 00012C4B (0x4 bytes), align: 2
  Segment part 20.            Intra module refs:   FindSmileByUni
                                                   FreeSmiles
                                                   ProcessNextSmile
    -------------------------------------------------------------------------
CODE
  Relative segment, address: CODE_AREA 00012C4C - 00012C97 (0x4c bytes), align: 2
  Segment part 22.            Intra module refs:   InitXStatusesImg
           ENTRY                   ADDRESS         REF BY
           =====                   =======         ======
           FreeXStatusesImg        00012C4C        maincsm_onclose (main)
               stack 1 = 00000000 ( 00000008 )
    -------------------------------------------------------------------------
CODE
  Relative segment, address: CODE_AREA 00012C98 - 00012C9B (0x4 bytes), align: 2
  Segment part 23.            Intra module refs:   CheckSmiles
                                                   FreeSmiles
                                                   FreeXStatusesImg
    -------------------------------------------------------------------------
CODE
  Relative segment, address: CODE_AREA 00012C9C - 00012D6F (0xd4 bytes), align: 2
  Segment part 25.
           ENTRY                   ADDRESS         REF BY
           =====                   =======         ======
           InitXStatusesImg        00012C9C        CheckDoubleRun (main)
               stack 1 = 00000000 ( 000000C4 )
    -------------------------------------------------------------------------
CODE
  Relative segment, address: CODE_AREA 00012D70 - 00012E3B (0xcc bytes), align: 2
  Segment part 27.
           ENTRY                   ADDRESS         REF BY
           =====                   =======         ======
           ProcessNextXStatImg     00012D70        maincsm_onmessage (main)
               stack 1 = 00000000 ( 000000B8 )
    -------------------------------------------------------------------------
CODE
  Relative segment, address: CODE_AREA 00012E3C - 00012E3F (0x4 bytes), align: 2
  Segment part 28.            Intra module refs:   InitXStatusesImg
                                                   ProcessNextXStatImg
    -------------------------------------------------------------------------
CODE
  Relative segment, address: CODE_AREA 00012E40 - 00012E43 (0x4 bytes), align: 2
  Segment part 29.            Intra module refs:   InitSmiles
                                                   InitXStatusesImg
                                                   ProcessNextSmile
                                                   ProcessNextXStatImg
    -------------------------------------------------------------------------
CODE
  Relative segment, address: CODE_AREA 00012E44 - 00012E47 (0x4 bytes), align: 2
  Segment part 30.            Intra module refs:   InitXStatusesImg
                                                   ProcessNextXStatImg
    -------------------------------------------------------------------------
CODE
  Relative segment, address: CODE_AREA 00012E48 - 00012E4B (0x4 bytes), align: 2
  Segment part 31.            Intra module refs:   InitSmiles
                                                   InitXStatusesImg
                                                   ProcessNextSmile
                                                   ProcessNextXStatImg
    -------------------------------------------------------------------------
DATA_C
  Relative segment, address: CODE_AREA 0001DF5C - 0001DF63 (0x8 bytes), align: 2
  Segment part 3.             Intra module refs:   ProcessNextSmile
    -------------------------------------------------------------------------
DATA_C
  Relative segment, address: CODE_AREA 0001DF64 - 0001DF6B (0x8 bytes), align: 2
  Segment part 4.             Intra module refs:   Segment part 30

    *************************************************************************

  FILE NAME : D:\pasha\elf\_MY_PROJECT_\naticq_mod2\Release\Obj\status_change.r79
  PROGRAM MODULE, NAME : status_change

  SEGMENTS IN THE MODULE
  ======================
DATA_C
  Relative segment, address: CODE_AREA 0001DF6C - 0001DF93 (0x28 bytes), align: 2
  Segment part 2.             Intra module refs:   InitXText
    -------------------------------------------------------------------------
DATA_C
  Relative segment, address: CODE_AREA 0001DF94 - 0001DF9B (0x8 bytes), align: 2
  Segment part 3.             Intra module refs:   Segment part 25
    -------------------------------------------------------------------------
DATA_C
  Relative segment, address: CODE_AREA 0001DF9C - 0001DFA7 (0xc bytes), align: 2
  Segment part 4.             Intra module refs:   Segment part 25
    -------------------------------------------------------------------------
DATA_C
  Relative segment, address: CODE_AREA 0001DFA8 - 0001DFB7 (0x10 bytes), align: 2
  Segment part 5.             Intra module refs:   Segment part 25
    -------------------------------------------------------------------------
DATA_C
  Relative segment, address: CODE_AREA 0001DFB8 - 0001DFBF (0x8 bytes), align: 2
  Segment part 6.             Intra module refs:   Segment part 25
    -------------------------------------------------------------------------
DATA_C
  Relative segment, address: CODE_AREA 0001DFC0 - 0001DFCF (0x10 bytes), align: 2
  Segment part 7.             Intra module refs:   Segment part 25
    -------------------------------------------------------------------------
DATA_C
  Relative segment, address: CODE_AREA 0001DFD0 - 0001DFDB (0xc bytes), align: 2
  Segment part 8.             Intra module refs:   Segment part 25
    -------------------------------------------------------------------------
DATA_C
  Relative segment, address: CODE_AREA 0001DFDC - 0001DFE7 (0xc bytes), align: 2
  Segment part 9.             Intra module refs:   Segment part 25
    -------------------------------------------------------------------------
DATA_C
  Relative segment, address: CODE_AREA 0001DFE8 - 0001DFEF (0x8 bytes), align: 2
  Segment part 10.            Intra module refs:   Segment part 25
    -------------------------------------------------------------------------
DATA_C
  Relative segment, address: CODE_AREA 0001DFF0 - 0001DFF7 (0x8 bytes), align: 2
  Segment part 11.            Intra module refs:   Segment part 25
    -------------------------------------------------------------------------
DATA_C
  Relative segment, address: CODE_AREA 0001DFF8 - 0001DFFB (0x4 bytes), align: 2
  Segment part 12.            Intra module refs:   Segment part 25
    -------------------------------------------------------------------------
DATA_C
  Relative segment, address: CODE_AREA 0001DFFC - 0001E007 (0xc bytes), align: 2
  Segment part 13.            Intra module refs:   Segment part 25
    -------------------------------------------------------------------------
DATA_C
  Relative segment, address: CODE_AREA 0001E008 - 0001E00F (0x8 bytes), align: 2
  Segment part 14.            Intra module refs:   Segment part 31
                                                   Segment part 35
    -------------------------------------------------------------------------
DATA_C
  Relative segment, address: CODE_AREA 0001E4C8 - 0001E4C8 (0x1 bytes), align: 0
  Segment part 15.            Intra module refs:   Segment part 31
    -------------------------------------------------------------------------
DATA_C
  Relative segment, address: CODE_AREA 0001E010 - 0001E01B (0xc bytes), align: 2
  Segment part 16.            Intra module refs:   Segment part 37
    -------------------------------------------------------------------------
DATA_C
  Relative segment, address: CODE_AREA 0001E01C - 0001E02B (0x10 bytes), align: 2
  Segment part 19.            Intra module refs:   Segment part 139
                                                   Segment part 61
    -------------------------------------------------------------------------
DATA_C
  Relative segment, address: CODE_AREA 0001E02C - 0001E033 (0x8 bytes), align: 2
  Segment part 20.            Intra module refs:   Segment part 25
    -------------------------------------------------------------------------
DATA_C
  Relative segment, address: CODE_AREA 0001E034 - 0001E05B (0x28 bytes), align: 2
  Segment part 21.            Intra module refs:   EditXStatus
    -------------------------------------------------------------------------
DATA_C
  Relative segment, address: CODE_AREA 0001E05C - 0001E06B (0x10 bytes), align: 2
  Segment part 22.            Intra module refs:   Segment part 99
    -------------------------------------------------------------------------
DATA_Z
  Relative segment, address: CODE_AREA 00025038 - 0002503B (0x4 bytes), align: 2
  Segment part 23.            Intra module refs:   Segment part 104
           ENTRY                   ADDRESS         REF BY
           =====                   =======         ======
           XStatusText             00025038 
    -------------------------------------------------------------------------
DATA_I
  Relative segment, address: DATA_AREA 000002F0 - 00000323 (0x34 bytes), align: 2
  Segment part 24.            Intra module refs:   SC_DrawList
                                                   SC_onCreate
                                                   Segment part 77
           ENTRY                   ADDRESS         REF BY
           =====                   =======         ======
           _curpos                 00000320 
           menutexts2              000002F0 
    -------------------------------------------------------------------------
DATA_Z
  Relative segment, address: CODE_AREA 0002503C - 00025047 (0xc bytes), align: 2
  Segment part 28.            Intra module refs:   SC_DrawList
                                                   Segment part 64
           ENTRY                   ADDRESS         REF BY
           =====                   =======         ======
           _font                   00025044 
           _rc                     0002503C 
    -------------------------------------------------------------------------
CODE
  Relative segment, address: CODE_AREA 00012E4C - 00013143 (0x2f8 bytes), align: 2
  Segment part 46.            Intra module refs:   SC_OnRedraw
           LOCAL                   ADDRESS         
           =====                   =======         
           SC_DrawList             00012E4C 
               stack 1 = 00000000 ( 0000004C )
    -------------------------------------------------------------------------
CODE
  Relative segment, address: CODE_AREA 00013144 - 00013147 (0x4 bytes), align: 2
  Segment part 47.            Intra module refs:   SC_DrawList
    -------------------------------------------------------------------------
CODE
  Relative segment, address: CODE_AREA 00013148 - 0001314B (0x4 bytes), align: 2
  Segment part 48.            Intra module refs:   SC_DrawList
    -------------------------------------------------------------------------
CODE
  Relative segment, address: CODE_AREA 0001314C - 0001314F (0x4 bytes), align: 2
  Segment part 49.            Intra module refs:   SC_DrawList
    -------------------------------------------------------------------------
CODE
  Relative segment, address: CODE_AREA 00013150 - 00013153 (0x4 bytes), align: 2
  Segment part 50.            Intra module refs:   SC_DrawList
    -------------------------------------------------------------------------
CODE
  Relative segment, address: CODE_AREA 00013154 - 0001316F (0x1c bytes), align: 2
  Segment part 52.            Intra module refs:   SC_OnKey
           ENTRY                   ADDRESS         REF BY
           =====                   =======         ======
           SC_MoveUp               00013154 
    -------------------------------------------------------------------------
CODE
  Relative segment, address: CODE_AREA 00013170 - 0001318B (0x1c bytes), align: 2
  Segment part 54.            Intra module refs:   SC_OnKey
           ENTRY                   ADDRESS         REF BY
           =====                   =======         ======
           SC_MoveDown             00013170 
    -------------------------------------------------------------------------
CODE
  Relative segment, address: CODE_AREA 0001318C - 00013203 (0x78 bytes), align: 2
  Segment part 56.            Intra module refs:   Segment part 29
           LOCAL                   ADDRESS         
           =====                   =======         
           SC_OnRedraw             0001318C 
               stack 1 = 00000000 ( 00000018 )
    -------------------------------------------------------------------------
CODE
  Relative segment, address: CODE_AREA 00013204 - 00013207 (0x4 bytes), align: 2
  Segment part 57.            Intra module refs:   SC_OnRedraw
    -------------------------------------------------------------------------
CODE
  Relative segment, address: CODE_AREA 00013208 - 0001320B (0x4 bytes), align: 2
  Segment part 58.            Intra module refs:   SC_OnRedraw
    -------------------------------------------------------------------------
CODE
  Relative segment, address: CODE_AREA 0001320C - 0001320F (0x4 bytes), align: 2
  Segment part 59.            Intra module refs:   SC_OnRedraw
    -------------------------------------------------------------------------
CODE
  Relative segment, address: CODE_AREA 00013210 - 00013213 (0x4 bytes), align: 2
  Segment part 60.            Intra module refs:   SC_OnRedraw
    -------------------------------------------------------------------------
CODE
  Relative segment, address: CODE_AREA 00013214 - 00013217 (0x4 bytes), align: 2
  Segment part 61.            Intra module refs:   SC_OnRedraw
    -------------------------------------------------------------------------
CODE
  Relative segment, address: CODE_AREA 00013218 - 0001331F (0x108 bytes), align: 2
  Segment part 63.            Intra module refs:   Segment part 29
           LOCAL                   ADDRESS         
           =====                   =======         
           SC_onCreate             00013218 
               stack 1 = 00000000 ( 0000000C )
    -------------------------------------------------------------------------
CODE
  Relative segment, address: CODE_AREA 00013320 - 00013323 (0x4 bytes), align: 2
  Segment part 64.            Intra module refs:   SC_OnRedraw
                                                   SC_onCreate
    -------------------------------------------------------------------------
CODE
  Relative segment, address: CODE_AREA 00013324 - 00013327 (0x4 bytes), align: 2
  Segment part 65.            Intra module refs:   SC_onCreate
    -------------------------------------------------------------------------
CODE
  Relative segment, address: CODE_AREA 00013328 - 00013347 (0x20 bytes), align: 2
  Segment part 67.            Intra module refs:   Segment part 29
           LOCAL                   ADDRESS         
           =====                   =======         
           SC_onClose              00013328 
               stack 1 = 00000000 ( 00000008 )
    -------------------------------------------------------------------------
CODE
  Relative segment, address: CODE_AREA 00013348 - 0001334B (0x4 bytes), align: 2
  Segment part 68.            Intra module refs:   SC_onClose
    -------------------------------------------------------------------------
CODE
  Relative segment, address: CODE_AREA 0001334C - 0001335F (0x14 bytes), align: 2
  Segment part 70.            Intra module refs:   Segment part 29
           LOCAL                   ADDRESS         
           =====                   =======         
           SC_onFocus              0001334C 
               stack 1 = 00000000 ( 00000004 )
    -------------------------------------------------------------------------
CODE
  Relative segment, address: CODE_AREA 00013360 - 00013373 (0x14 bytes), align: 2
  Segment part 72.            Intra module refs:   Segment part 29
           LOCAL                   ADDRESS         
           =====                   =======         
           SC_onUnfocus            00013360 
    -------------------------------------------------------------------------
CODE
  Relative segment, address: CODE_AREA 00013374 - 00013633 (0x2c0 bytes), align: 2
  Segment part 74.            Intra module refs:   Segment part 29
           LOCAL                   ADDRESS         
           =====                   =======         
           SC_OnKey                00013374 
               stack 1 = 00000000 ( 00000020 )
    -------------------------------------------------------------------------
CODE
  Relative segment, address: CODE_AREA 00013634 - 00013637 (0x4 bytes), align: 2
  Segment part 75.            Intra module refs:   SC_OnKey
    -------------------------------------------------------------------------
CODE
  Relative segment, address: CODE_AREA 00013638 - 0001363B (0x4 bytes), align: 2
  Segment part 76.            Intra module refs:   SC_OnKey
                                                   SC_onCreate
    -------------------------------------------------------------------------
CODE
  Relative segment, address: CODE_AREA 0001363C - 0001363F (0x4 bytes), align: 2
  Segment part 77.            Intra module refs:   SC_MoveDown
                                                   SC_MoveUp
                                                   SC_OnKey
    -------------------------------------------------------------------------
CODE
  Relative segment, address: CODE_AREA 00013640 - 00013647 (0x8 bytes), align: 2
  Segment part 79.            Intra module refs:   Segment part 29
           ENTRY                   ADDRESS         REF BY
           =====                   =======         ======
           SC_method8              00013640 
    -------------------------------------------------------------------------
CODE
  Relative segment, address: CODE_AREA 00013648 - 0001364F (0x8 bytes), align: 2
  Segment part 81.            Intra module refs:   Segment part 29
           ENTRY                   ADDRESS         REF BY
           =====                   =======         ======
           SC_method9              00013648 
    -------------------------------------------------------------------------
DATA_C
  Relative segment, address: CODE_AREA 0001E06C - 0001E09F (0x34 bytes), align: 2
  Segment part 29.            Intra module refs:   CreateSCMenu
           ENTRY                   ADDRESS         REF BY
           =====                   =======         ======
           SC_Canvas               0001E098 
           gui_methods_SC          0001E06C 
    -------------------------------------------------------------------------
CODE
  Relative segment, address: CODE_AREA 00013650 - 0001368F (0x40 bytes), align: 2
  Segment part 83.
           ENTRY                   ADDRESS         REF BY
           =====                   =======         ======
           CreateSCMenu            00013650        Segment part 31 (mainmenu)
               stack 1 = 00000000 ( 00000008 )
    -------------------------------------------------------------------------
DATA_I
  Relative segment, address: DATA_AREA 00000324 - 0000033B (0x18 bytes), align: 2
  Segment part 30.            Intra module refs:   Segment part 33
           ENTRY                   ADDRESS         REF BY
           =====                   =======         ======
           edit_x_sk               00000324 
    -------------------------------------------------------------------------
DATA_I
  Relative segment, address: DATA_AREA 0000033C - 00000343 (0x8 bytes), align: 2
  Segment part 32.            Intra module refs:   Segment part 37
           ENTRY                   ADDRESS         REF BY
           =====                   =======         ======
           edit_x_skt              0000033C 
    -------------------------------------------------------------------------
CODE
  Relative segment, address: CODE_AREA 00013690 - 00013693 (0x4 bytes), align: 2
  Segment part 85.            Intra module refs:   Segment part 37
           ENTRY                   ADDRESS         REF BY
           =====                   =======         ======
           edit_xstatus_locret     00013690 
    -------------------------------------------------------------------------
CODE
  Relative segment, address: CODE_AREA 00013694 - 0001372B (0x98 bytes), align: 2
  Segment part 87.            Intra module refs:   edit_xstatus_onkey
           ENTRY                   ADDRESS         REF BY
           =====                   =======         ======
           ReplaceStr              00013694 
               stack 1 = 00000000 ( 00000024 )
    -------------------------------------------------------------------------
CODE
  Relative segment, address: CODE_AREA 0001372C - 000139B3 (0x288 bytes), align: 2
  Segment part 89.            Intra module refs:   Segment part 37
           ENTRY                   ADDRESS         REF BY
           =====                   =======         ======
           edit_xstatus_onkey      0001372C 
               stack 1 = 00000000 ( 000000E0 )
    -------------------------------------------------------------------------
CODE
  Relative segment, address: CODE_AREA 000139B4 - 000139E3 (0x30 bytes), align: 2
  Segment part 91.            Intra module refs:   Segment part 37
           ENTRY                   ADDRESS         REF BY
           =====                   =======         ======
           edit_xstatus_ghook      000139B4 
               stack 1 = 00000000 ( 00000004 )
    -------------------------------------------------------------------------
DATA_I
  Relative segment, address: DATA_AREA 00000344 - 0000034B (0x8 bytes), align: 2
  Segment part 34.            Intra module refs:   edit_xstatus_ghook
    -------------------------------------------------------------------------
DATA_I
  Relative segment, address: DATA_AREA 0000034C - 00000397 (0x4c bytes), align: 2
  Segment part 36.            Intra module refs:   EditXStatus
           ENTRY                   ADDRESS         REF BY
           =====                   =======         ======
           edit_xstatus_desc       0000034C 
           edit_xstatus_hdr        00000384 
    -------------------------------------------------------------------------
CODE
  Relative segment, address: CODE_AREA 000139E4 - 00013D13 (0x330 bytes), align: 2
  Segment part 93.            Intra module refs:   XS_OnKey
           LOCAL                   ADDRESS         
           =====                   =======         
           EditXStatus             000139E4 
               stack 1 = 00000000 ( 00000058 )
    -------------------------------------------------------------------------
CODE
  Relative segment, address: CODE_AREA 00013D14 - 00013E07 (0xf4 bytes), align: 2
  Segment part 95.
           ENTRY                   ADDRESS         REF BY
           =====                   =======         ======
           LoadXStatusText         00013D14        main (main)
               stack 1 = 00000000 ( 00000144 )
    -------------------------------------------------------------------------
CODE
  Relative segment, address: CODE_AREA 00013E08 - 00013E8B (0x84 bytes), align: 2
  Segment part 97.            Intra module refs:   edit_xstatus_onkey
           ENTRY                   ADDRESS         REF BY
           =====                   =======         ======
           SaveXStatusText         00013E08 
               stack 1 = 00000000 ( 00000110 )
    -------------------------------------------------------------------------
CODE
  Relative segment, address: CODE_AREA 00013E8C - 00013E8F (0x4 bytes), align: 2
  Segment part 98.            Intra module refs:   LoadXStatusText
                                                   SaveXStatusText
    -------------------------------------------------------------------------
CODE
  Relative segment, address: CODE_AREA 00013E90 - 00013E93 (0x4 bytes), align: 2
  Segment part 99.            Intra module refs:   LoadXStatusText
                                                   SaveXStatusText
    -------------------------------------------------------------------------
CODE
  Relative segment, address: CODE_AREA 00013E94 - 00013EAF (0x1c bytes), align: 2
  Segment part 101.           Intra module refs:   LoadXStatusText
           ENTRY                   ADDRESS         REF BY
           =====                   =======         ======
           FreeXStatusText         00013E94        maincsm_onclose (main)
               stack 1 = 00000000 ( 00000008 )
    -------------------------------------------------------------------------
CODE
  Relative segment, address: CODE_AREA 00013EB0 - 00013F1F (0x70 bytes), align: 2
  Segment part 103.           Intra module refs:   EditXStatus
                                                   InitXText
                                                   edit_xstatus_onkey
           ENTRY                   ADDRESS         REF BY
           =====                   =======         ======
           GetXStatusStr           00013EB0        set_my_xstatus (main)
    -------------------------------------------------------------------------
CODE
  Relative segment, address: CODE_AREA 00013F20 - 00013F23 (0x4 bytes), align: 2
  Segment part 104.           Intra module refs:   FreeXStatusText
                                                   GetXStatusStr
                                                   LoadXStatusText
                                                   SaveXStatusText
                                                   edit_xstatus_onkey
    -------------------------------------------------------------------------
DATA_Z
  Relative segment, address: CODE_AREA 00025048 - 0002504F (0x8 bytes), align: 2
  Segment part 38.            Intra module refs:   Segment part 141
                                                   XS_OnKey
           ENTRY                   ADDRESS         REF BY
           =====                   =======         ======
           xs_curpos               0002504C 
           xstartItem              00025048 
    -------------------------------------------------------------------------
DATA_Z
  Relative segment, address: CODE_AREA 00025050 - 0002505F (0x10 bytes), align: 2
  Segment part 39.            Intra module refs:   DrawXScrollBar
                                                   Segment part 128
                                                   Segment part 138
           ENTRY                   ADDRESS         REF BY
           =====                   =======         ======
           xs_font                 0002505C 
           xs_itemFromDisp         00025058 
           xs_rc                   00025050 
    -------------------------------------------------------------------------
CODE
  Relative segment, address: CODE_AREA 00013F24 - 00013FD3 (0xb0 bytes), align: 2
  Segment part 106.           Intra module refs:   XS_DrawList
           ENTRY                   ADDRESS         REF BY
           =====                   =======         ======
           DrawXScrollBar          00013F24 
               stack 1 = 00000000 ( 00000038 )
    -------------------------------------------------------------------------
DATA_Z
  Relative segment, address: CODE_AREA 00025060 - 00025063 (0x4 bytes), align: 2
  Segment part 40.            Intra module refs:   Segment part 115
           ENTRY                   ADDRESS         REF BY
           =====                   =======         ======
           xtexttop                00025060 
    -------------------------------------------------------------------------
CODE
  Relative segment, address: CODE_AREA 00013FD4 - 0001400F (0x3c bytes), align: 2
  Segment part 110.           Intra module refs:   InitXText
                                                   XS_onClose
           ENTRY                   ADDRESS         REF BY
           =====                   =======         ======
           FreeXSTList             00013FD4 
               stack 1 = 00000000 ( 00000008 )
    -------------------------------------------------------------------------
CODE
  Relative segment, address: CODE_AREA 00014010 - 00014137 (0x128 bytes), align: 2
  Segment part 112.           Intra module refs:   XS_onCreate
                                                   edit_xstatus_onkey
           ENTRY                   ADDRESS         REF BY
           =====                   =======         ======
           InitXText               00014010 
               stack 1 = 00000000 ( 00000020 )
    -------------------------------------------------------------------------
CODE
  Relative segment, address: CODE_AREA 00014138 - 0001416F (0x38 bytes), align: 2
  Segment part 114.           Intra module refs:   XS_DrawList
           ENTRY                   ADDRESS         REF BY
           =====                   =======         ======
           GetXSTByItem            00014138 
    -------------------------------------------------------------------------
CODE
  Relative segment, address: CODE_AREA 00014170 - 00014173 (0x4 bytes), align: 2
  Segment part 115.           Intra module refs:   FreeXSTList
                                                   GetXSTByItem
                                                   InitXText
    -------------------------------------------------------------------------
DATA_Z
  Relative segment, address: CODE_AREA 00025064 - 00025073 (0x10 bytes), align: 2
  Segment part 41.            Intra module refs:   XS_onClose
           ENTRY                   ADDRESS         REF BY
           =====                   =======         ======
           xstmr                   00025064 
    -------------------------------------------------------------------------
DATA_Z
  Relative segment, address: CODE_AREA 00025074 - 00025077 (0x4 bytes), align: 2
  Segment part 43.            Intra module refs:   Segment part 159
           ENTRY                   ADDRESS         REF BY
           =====                   =======         ======
           XSC_ID                  00025074 
    -------------------------------------------------------------------------
CODE
  Relative segment, address: CODE_AREA 00014174 - 00014423 (0x2b0 bytes), align: 2
  Segment part 119.           Intra module refs:   XS_OnRedraw
           LOCAL                   ADDRESS         
           =====                   =======         
           XS_DrawList             00014174 
               stack 1 = 00000000 ( 00000048 )
    -------------------------------------------------------------------------
CODE
  Relative segment, address: CODE_AREA 00014424 - 00014427 (0x4 bytes), align: 2
  Segment part 120.           Intra module refs:   XS_DrawList
    -------------------------------------------------------------------------
CODE
  Relative segment, address: CODE_AREA 00014428 - 0001442B (0x4 bytes), align: 2
  Segment part 121.           Intra module refs:   DrawXScrollBar
                                                   XS_DrawList
    -------------------------------------------------------------------------
CODE
  Relative segment, address: CODE_AREA 0001442C - 0001442F (0x4 bytes), align: 2
  Segment part 122.           Intra module refs:   XS_DrawList
    -------------------------------------------------------------------------
CODE
  Relative segment, address: CODE_AREA 00014430 - 00014433 (0x4 bytes), align: 2
  Segment part 123.           Intra module refs:   XS_DrawList
    -------------------------------------------------------------------------
CODE
  Relative segment, address: CODE_AREA 00014434 - 000144CB (0x98 bytes), align: 2
  Segment part 125.           Intra module refs:   XS_OnKey
           ENTRY                   ADDRESS         REF BY
           =====                   =======         ======
           XS_MoveUp               00014434 
               stack 1 = 00000000 ( 00000004 )
    -------------------------------------------------------------------------
CODE
  Relative segment, address: CODE_AREA 000144CC - 0001453B (0x70 bytes), align: 2
  Segment part 127.           Intra module refs:   XS_OnKey
           ENTRY                   ADDRESS         REF BY
           =====                   =======         ======
           XS_MoveDown             000144CC 
               stack 1 = 00000000 ( 00000004 )
    -------------------------------------------------------------------------
CODE
  Relative segment, address: CODE_AREA 0001453C - 0001453F (0x4 bytes), align: 2
  Segment part 128.           Intra module refs:   XS_MoveDown
                                                   XS_MoveUp
    -------------------------------------------------------------------------
CODE
  Relative segment, address: CODE_AREA 00014540 - 000145A7 (0x68 bytes), align: 2
  Segment part 130.           Intra module refs:   Segment part 44
           LOCAL                   ADDRESS         
           =====                   =======         
           XS_OnRedraw             00014540 
               stack 1 = 00000000 ( 00000018 )
    -------------------------------------------------------------------------
CODE
  Relative segment, address: CODE_AREA 000145A8 - 000145AB (0x4 bytes), align: 2
  Segment part 131.           Intra module refs:   XS_OnRedraw
    -------------------------------------------------------------------------
CODE
  Relative segment, address: CODE_AREA 000145AC - 000145AF (0x4 bytes), align: 2
  Segment part 132.           Intra module refs:   XS_OnRedraw
    -------------------------------------------------------------------------
CODE
  Relative segment, address: CODE_AREA 000145B0 - 000145B3 (0x4 bytes), align: 2
  Segment part 133.           Intra module refs:   XS_OnRedraw
    -------------------------------------------------------------------------
CODE
  Relative segment, address: CODE_AREA 000145B4 - 000145B7 (0x4 bytes), align: 2
  Segment part 134.           Intra module refs:   XS_OnRedraw
    -------------------------------------------------------------------------
CODE
  Relative segment, address: CODE_AREA 000145B8 - 000146EF (0x138 bytes), align: 2
  Segment part 136.           Intra module refs:   Segment part 44
           LOCAL                   ADDRESS         
           =====                   =======         
           XS_onCreate             000145B8 
               stack 1 = 00000000 ( 00000014 )
    -------------------------------------------------------------------------
CODE
  Relative segment, address: CODE_AREA 000146F0 - 000146F3 (0x4 bytes), align: 2
  Segment part 137.           Intra module refs:   XS_onCreate
    -------------------------------------------------------------------------
CODE
  Relative segment, address: CODE_AREA 000146F4 - 000146F7 (0x4 bytes), align: 2
  Segment part 138.           Intra module refs:   XS_DrawList
                                                   XS_OnRedraw
                                                   XS_onCreate
    -------------------------------------------------------------------------
CODE
  Relative segment, address: CODE_AREA 000146F8 - 000146FB (0x4 bytes), align: 2
  Segment part 139.           Intra module refs:   XS_onCreate
    -------------------------------------------------------------------------
CODE
  Relative segment, address: CODE_AREA 000146FC - 000146FF (0x4 bytes), align: 2
  Segment part 140.           Intra module refs:   InitXText
                                                   XS_DrawList
                                                   XS_MoveDown
                                                   XS_MoveUp
                                                   XS_onCreate
    -------------------------------------------------------------------------
CODE
  Relative segment, address: CODE_AREA 00014700 - 00014703 (0x4 bytes), align: 2
  Segment part 141.           Intra module refs:   XS_DrawList
                                                   XS_MoveDown
                                                   XS_MoveUp
                                                   XS_onCreate
    -------------------------------------------------------------------------
CODE
  Relative segment, address: CODE_AREA 00014704 - 00014733 (0x30 bytes), align: 2
  Segment part 143.           Intra module refs:   Segment part 44
           LOCAL                   ADDRESS         
           =====                   =======         
           XS_onClose              00014704 
               stack 1 = 00000000 ( 00000008 )
    -------------------------------------------------------------------------
CODE
  Relative segment, address: CODE_AREA 00014734 - 00014737 (0x4 bytes), align: 2
  Segment part 144.           Intra module refs:   XS_onClose
    -------------------------------------------------------------------------
CODE
  Relative segment, address: CODE_AREA 00014738 - 0001474B (0x14 bytes), align: 2
  Segment part 146.           Intra module refs:   Segment part 44
           LOCAL                   ADDRESS         
           =====                   =======         
           XS_onFocus              00014738 
               stack 1 = 00000000 ( 00000004 )
    -------------------------------------------------------------------------
CODE
  Relative segment, address: CODE_AREA 0001474C - 0001475F (0x14 bytes), align: 2
  Segment part 148.           Intra module refs:   Segment part 44
           LOCAL                   ADDRESS         
           =====                   =======         
           XS_onUnfocus            0001474C 
    -------------------------------------------------------------------------
CODE
  Relative segment, address: CODE_AREA 00014760 - 00014913 (0x1b4 bytes), align: 2
  Segment part 150.           Intra module refs:   Segment part 44
           LOCAL                   ADDRESS         
           =====                   =======         
           XS_OnKey                00014760 
               stack 1 = 00000000 ( 00000010 )
    -------------------------------------------------------------------------
CODE
  Relative segment, address: CODE_AREA 00014914 - 00014917 (0x4 bytes), align: 2
  Segment part 151.           Intra module refs:   XS_OnKey
                                                   XS_onCreate
    -------------------------------------------------------------------------
CODE
  Relative segment, address: CODE_AREA 00014918 - 0001491B (0x4 bytes), align: 2
  Segment part 152.           Intra module refs:   XS_OnKey
    -------------------------------------------------------------------------
CODE
  Relative segment, address: CODE_AREA 0001491C - 00014923 (0x8 bytes), align: 2
  Segment part 154.           Intra module refs:   Segment part 44
           ENTRY                   ADDRESS         REF BY
           =====                   =======         ======
           XS_method8              0001491C 
    -------------------------------------------------------------------------
CODE
  Relative segment, address: CODE_AREA 00014924 - 0001492B (0x8 bytes), align: 2
  Segment part 156.           Intra module refs:   Segment part 44
           ENTRY                   ADDRESS         REF BY
           =====                   =======         ======
           XS_method9              00014924 
    -------------------------------------------------------------------------
DATA_C
  Relative segment, address: CODE_AREA 0001E0A0 - 0001E0D3 (0x34 bytes), align: 2
  Segment part 44.            Intra module refs:   CreateXSMenu
           ENTRY                   ADDRESS         REF BY
           =====                   =======         ======
           XS_Canvas               0001E0CC 
           gui_methods_XS          0001E0A0 
    -------------------------------------------------------------------------
CODE
  Relative segment, address: CODE_AREA 0001492C - 00014973 (0x48 bytes), align: 2
  Segment part 158.
           ENTRY                   ADDRESS         REF BY
           =====                   =======         ======
           CreateXSMenu            0001492C        Segment part 31 (mainmenu)
               stack 1 = 00000000 ( 00000008 )
    -------------------------------------------------------------------------
CODE
  Relative segment, address: CODE_AREA 00014974 - 00014977 (0x4 bytes), align: 2
  Segment part 159.           Intra module refs:   CreateXSMenu
    -------------------------------------------------------------------------
DATA_ID
  Relative segment, address: CODE_AREA 000002F0 - 00000323 (0x34 bytes), align: 2
  Segment part 25.            Intra module refs:   Segment part 24
    -------------------------------------------------------------------------
DATA_ID
  Relative segment, address: CODE_AREA 00000324 - 0000033B (0x18 bytes), align: 2
  Segment part 31.            Intra module refs:   edit_x_sk
    -------------------------------------------------------------------------
DATA_ID
  Relative segment, address: CODE_AREA 0000033C - 00000343 (0x8 bytes), align: 2
  Segment part 33.            Intra module refs:   edit_x_skt
    -------------------------------------------------------------------------
DATA_ID
  Relative segment, address: CODE_AREA 00000344 - 0000034B (0x8 bytes), align: 2
  Segment part 35.            Intra module refs:   Segment part 34
    -------------------------------------------------------------------------
DATA_ID
  Relative segment, address: CODE_AREA 0000034C - 00000397 (0x4c bytes), align: 2
  Segment part 37.            Intra module refs:   Segment part 36

    *************************************************************************

  FILE NAME : D:\pasha\elf\_MY_PROJECT_\naticq_mod2\ScreenShot.r79
  PROGRAM MODULE, NAME : ScreenShot

  SEGMENTS IN THE MODULE
  ======================
CODE
  Relative segment, address: CODE_AREA 00014978 - 000149D3 (0x5c bytes), align: 2
  Segment part 4.             Intra module refs:   DrawScreenShot
           ENTRY                   ADDRESS         REF BY
           =====                   =======         ======
           DrwImg2                 00014978 
               stack 1 = 00000000 ( 00000040 )
    -------------------------------------------------------------------------
CODE
  Relative segment, address: CODE_AREA 000149D4 - 00014B0B (0x138 bytes), align: 2
  Segment part 6.
           ENTRY                   ADDRESS         REF BY
           =====                   =======         ======
           DrawScreenShot          000149D4        show_off_contact (main)
                                                   show_on_contact (main)
                                                   show_pp_sender (main)
               stack 1 = 00000000 ( 0000002C )
    -------------------------------------------------------------------------
DATA_C
  Relative segment, address: CODE_AREA 0001E0D4 - 0001E0DF (0xc bytes), align: 2
  Segment part 2.             Intra module refs:   DrawScreenShot

    *************************************************************************

  FILE NAME : D:\pasha\elf\_MY_PROJECT_\naticq_mod2\auth.r79
  PROGRAM MODULE, NAME : auth

  SEGMENTS IN THE MODULE
  ======================
DATA_I
  Relative segment, address: DATA_AREA 00000398 - 000003B3 (0x1c bytes), align: 2
  Segment part 3.             Intra module refs:   aa
    -------------------------------------------------------------------------
CODE
  Relative segment, address: CODE_AREA 00014B0C - 00014BDF (0xd4 bytes), align: 2
  Segment part 6.
           ENTRY                   ADDRESS         REF BY
           =====                   =======         ======
           aa                      00014B0C        get_answer (main)
               stack 1 = 00000000 ( 00000068 )
    -------------------------------------------------------------------------
CODE
  Relative segment, address: CODE_AREA 00014BE0 - 00014C93 (0xb4 bytes), align: 2
  Segment part 8.
           ENTRY                   ADDRESS         REF BY
           =====                   =======         ======
           ab                      00014BE0        maincsm_onmessage (main)
               stack 1 = 00000000 ( 0000001C )
    -------------------------------------------------------------------------
CODE
  Relative segment, address: CODE_AREA 00014C94 - 00014C97 (0x4 bytes), align: 2
  Segment part 10.
           ENTRY                   ADDRESS         REF BY
           =====                   =======         ======
           ad                      00014C94        get_answer (main)
    -------------------------------------------------------------------------
DATA_ID
  Relative segment, address: CODE_AREA 00000398 - 000003B3 (0x1c bytes), align: 2
  Segment part 4.             Intra module refs:   Segment part 3
    -------------------------------------------------------------------------
DATA_C
  Relative segment, address: CODE_AREA 0001E0E0 - 0001E0EB (0xc bytes), align: 2
  Segment part 2.             Intra module refs:   ab

    *************************************************************************

  FILE NAME : D:\pasha\elf\_MY_PROJECT_\naticq_mod2\print.r79
  PROGRAM MODULE, NAME : print

  SEGMENTS IN THE MODULE
  ======================
DATA_C
  Relative segment, address: CODE_AREA 0001E0EC - 0001E0F7 (0xc bytes), align: 2
  Segment part 2.             Intra module refs:   FontPathInit
    -------------------------------------------------------------------------
DATA_C
  Relative segment, address: CODE_AREA 0001E4C9 - 0001E4CB (0x3 bytes), align: 0
  Segment part 3.             Intra module refs:   Segment part 87
           ENTRY                   ADDRESS         REF BY
           =====                   =======         ======
           percent_t_for_print     0001E4C9 
    -------------------------------------------------------------------------
DATA_C
  Relative segment, address: CODE_AREA 0001E0F8 - 0001E11B (0x24 bytes), align: 2
  Segment part 4.             Intra module refs:   PrintLibInit
           ENTRY                   ADDRESS         REF BY
           =====                   =======         ======
           printLibVersion         0001E0F8 
    -------------------------------------------------------------------------
DATA_Z
  Relative segment, address: CODE_AREA 00025078 - 0002507B (0x4 bytes), align: 2
  Segment part 5.             Intra module refs:   Segment part 30
                                                   Segment part 93
           ENTRY                   ADDRESS         REF BY
           =====                   =======         ======
           fontPath                00025078 
    -------------------------------------------------------------------------
DATA_Z
  Relative segment, address: CODE_AREA 0002507C - 0002507F (0x4 bytes), align: 2
  Segment part 6.             Intra module refs:   Segment part 60
                                                   Segment part 86
           ENTRY                   ADDRESS         REF BY
           =====                   =======         ======
           ws1_for_print           0002507C 
    -------------------------------------------------------------------------
DATA_Z
  Relative segment, address: CODE_AREA 00025080 - 00025083 (0x4 bytes), align: 2
  Segment part 7.             Intra module refs:   Segment part 58
                                                   Segment part 94
           ENTRY                   ADDRESS         REF BY
           =====                   =======         ======
           maxFontNum              00025080 
    -------------------------------------------------------------------------
DATA_Z
  Relative segment, address: CODE_AREA 00025084 - 00025087 (0x4 bytes), align: 2
  Segment part 8.             Intra module refs:   Segment part 90
           ENTRY                   ADDRESS         REF BY
           =====                   =======         ======
           currNum                 00025084 
    -------------------------------------------------------------------------
DATA_Z
  Relative segment, address: CODE_AREA 00025088 - 0002508B (0x4 bytes), align: 2
  Segment part 9.             Intra module refs:   Segment part 84
           ENTRY                   ADDRESS         REF BY
           =====                   =======         ======
           scrollEdgeDelay         00025088 
    -------------------------------------------------------------------------
DATA_Z
  Relative segment, address: CODE_AREA 0002508C - 0002508F (0x4 bytes), align: 2
  Segment part 10.            Intra module refs:   Segment part 85
           ENTRY                   ADDRESS         REF BY
           =====                   =======         ======
           isNeedCanvas            0002508C 
    -------------------------------------------------------------------------
DATA_Z
  Relative segment, address: CODE_AREA 000255A0 - 000255A0 (0x1 bytes), align: 0
  Segment part 11.            Intra module refs:   Segment part 97
           ENTRY                   ADDRESS         REF BY
           =====                   =======         ======
           printlib_isFontColorSet
                                   000255A0 
    -------------------------------------------------------------------------
DATA_Z
  Relative segment, address: CODE_AREA 00025090 - 00025093 (0x4 bytes), align: 2
  Segment part 12.            Intra module refs:   Segment part 98
           ENTRY                   ADDRESS         REF BY
           =====                   =======         ======
           printlib_fontColor      00025090 
    -------------------------------------------------------------------------
DATA_Z
  Relative segment, address: CODE_AREA 00025094 - 00025097 (0x4 bytes), align: 2
  Segment part 13.            Intra module refs:   Segment part 99
           ENTRY                   ADDRESS         REF BY
           =====                   =======         ======
           printlib_bgrColor       00025094 
    -------------------------------------------------------------------------
DATA_Z
  Relative segment, address: CODE_AREA 000255A1 - 000255A1 (0x1 bytes), align: 0
  Segment part 14.            Intra module refs:   Segment part 100
           ENTRY                   ADDRESS         REF BY
           =====                   =======         ======
           printlib_isOutline      000255A1 
    -------------------------------------------------------------------------
DATA_Z
  Relative segment, address: CODE_AREA 00025098 - 00025597 (0x500 bytes), align: 2
  Segment part 15.            Intra module refs:   Segment part 55
           ENTRY                   ADDRESS         REF BY
           =====                   =======         ======
           ycoord                  00025098 
    -------------------------------------------------------------------------
CODE
  Relative segment, address: CODE_AREA 00014C98 - 00014CBF (0x28 bytes), align: 2
  Segment part 17.            Intra module refs:   FindDim
           ENTRY                   ADDRESS         REF BY
           =====                   =======         ======
           FillDim                 00014C98 
    -------------------------------------------------------------------------
CODE
  Relative segment, address: CODE_AREA 00014CC0 - 00014D4F (0x90 bytes), align: 2
  Segment part 19.            Intra module refs:   GetNLines
                                                   GetWidth
                                                   PrintField
                                                   PrintScrollField
           ENTRY                   ADDRESS         REF BY
           =====                   =======         ======
           FindDim                 00014CC0 
               stack 1 = 00000000 ( 00000018 )
    -------------------------------------------------------------------------
CODE
  Relative segment, address: CODE_AREA 00014D50 - 00014DA7 (0x58 bytes), align: 2
  Segment part 21.            Intra module refs:   ClearField
                                                   ClearFieldData
                                                   PrintText
           ENTRY                   ADDRESS         REF BY
           =====                   =======         ======
           GetDim                  00014D50 
    -------------------------------------------------------------------------
CODE
  Relative segment, address: CODE_AREA 00014DA8 - 00014DF7 (0x50 bytes), align: 2
  Segment part 23.            Intra module refs:   PrintLibInit
           ENTRY                   ADDRESS         REF BY
           =====                   =======         ======
           InitDynVar              00014DA8 
               stack 1 = 00000000 ( 0000000C )
    -------------------------------------------------------------------------
CODE
  Relative segment, address: CODE_AREA 00014DF8 - 00014E1B (0x24 bytes), align: 2
  Segment part 25.            Intra module refs:   FreeDynVar
           ENTRY                   ADDRESS         REF BY
           =====                   =======         ======
           FreeDim                 00014DF8 
               stack 1 = 00000000 ( 00000008 )
    -------------------------------------------------------------------------
CODE
  Relative segment, address: CODE_AREA 00014E1C - 00014E53 (0x38 bytes), align: 2
  Segment part 27.            Intra module refs:   PrintLibFree
           ENTRY                   ADDRESS         REF BY
           =====                   =======         ======
           FreeDynVar              00014E1C 
               stack 1 = 00000000 ( 00000008 )
    -------------------------------------------------------------------------
CODE
  Relative segment, address: CODE_AREA 00014E54 - 00014F93 (0x140 bytes), align: 2
  Segment part 29.            Intra module refs:   CalcChrWidth
                                                   CalcStrWidth
                                                   FontH
                                                   MyDrawString
           ENTRY                   ADDRESS         REF BY
           =====                   =======         ======
           Char2Img                00014E54 
               stack 1 = 00000000 ( 00000004 )
    -------------------------------------------------------------------------
CODE
  Relative segment, address: CODE_AREA 00014F94 - 00014F97 (0x4 bytes), align: 2
  Segment part 30.            Intra module refs:   Char2Img
                                                   InitDynVar
    -------------------------------------------------------------------------
CODE
  Relative segment, address: CODE_AREA 00014F98 - 00014FCB (0x34 bytes), align: 2
  Segment part 32.            Intra module refs:   PrintField
                                                   PrintText
           ENTRY                   ADDRESS         REF BY
           =====                   =======         ======
           FontH                   00014F98        DrawAbout (mainmenu)
                                                   DrawHeader (main)
                                                   DrawList (history)
                                                   DrawList (main)
                                                   DrawScrollBar (main)
                                                   DrawSoftInfo (main)
                                                   DrawSoftKeys (main)
                                                   I_DrawList (main)
                                                   I_OnRedraw (main)
                                                   I_onCreate (main)
                                                   MM_DrawList (mainmenu)
                                                   MM_onCreate (mainmenu)
                                                   PrintMessage (main)
                                                   SC_DrawList (status_change)
                                                   SC_onCreate (status_change)
                                                   XS_DrawList (status_change)
                                                   XS_onCreate (status_change)
                                                   method1 (main)
               stack 1 = 00000000 ( 00000004 )
    -------------------------------------------------------------------------
CODE
  Relative segment, address: CODE_AREA 00014FCC - 0001503F (0x74 bytes), align: 2
  Segment part 36.            Intra module refs:   CalcScroll
                                                   PrintText
           ENTRY                   ADDRESS         REF BY
           =====                   =======         ======
           CalcChrWidth            00014FCC 
               stack 1 = 00000000 ( 00000010 )
    -------------------------------------------------------------------------
CODE
  Relative segment, address: CODE_AREA 00015040 - 0001510B (0xcc bytes), align: 2
  Segment part 38.            Intra module refs:   PrintField
           ENTRY                   ADDRESS         REF BY
           =====                   =======         ======
           CalcStrWidth            00015040 
               stack 1 = 00000000 ( 00000018 )
    -------------------------------------------------------------------------
CODE
  Relative segment, address: CODE_AREA 0001510C - 00015193 (0x88 bytes), align: 2
  Segment part 40.            Intra module refs:   PrintField
           ENTRY                   ADDRESS         REF BY
           =====                   =======         ======
           MyDrawString            0001510C 
               stack 1 = 00000000 ( 00000024 )
    -------------------------------------------------------------------------
CODE
  Relative segment, address: CODE_AREA 00015194 - 00015247 (0xb4 bytes), align: 2
  Segment part 44.            Intra module refs:   PrintText
           ENTRY                   ADDRESS         REF BY
           =====                   =======         ======
           ClearField              00015194 
               stack 1 = 00000000 ( 0000001C )
    -------------------------------------------------------------------------
CODE
  Relative segment, address: CODE_AREA 00015248 - 000152AB (0x64 bytes), align: 2
  Segment part 46.            Intra module refs:   PrintText
           ENTRY                   ADDRESS         REF BY
           =====                   =======         ======
           ClearFieldData          00015248 
               stack 1 = 00000000 ( 00000008 )
    -------------------------------------------------------------------------
CODE
  Relative segment, address: CODE_AREA 000152AC - 000152AF (0x4 bytes), align: 2
  Segment part 55.            Intra module refs:   FindDim
                                                   FreeDynVar
                                                   GetDim
                                                   InitDynVar
    -------------------------------------------------------------------------
CODE
  Relative segment, address: CODE_AREA 000152B0 - 0001558B (0x2dc bytes), align: 2
  Segment part 57.            Intra module refs:   PrintScrollField
                                                   PrintText
           ENTRY                   ADDRESS         REF BY
           =====                   =======         ======
           PrintField              000152B0        DrawAutoMSG (main)
                                                   DrawHeader (main)
                                                   DrawList (history)
                                                   DrawList (main)
                                                   DrawOnlineTime (main)
                                                   DrawPing (main)
                                                   DrawSoftInfo (main)
                                                   DrawSoftKeys (main)
                                                   MM_DrawList (mainmenu)
                                                   SC_DrawList (status_change)
                                                   maincsm_onmessage (main)
               stack 1 = 00000000 ( 00000040 )
    -------------------------------------------------------------------------
CODE
  Relative segment, address: CODE_AREA 0001558C - 0001558F (0x4 bytes), align: 2
  Segment part 58.            Intra module refs:   CalcChrWidth
                                                   CalcStrWidth
                                                   Char2Img
                                                   FontH
                                                   InitDynVar
                                                   PrintField
    -------------------------------------------------------------------------
CODE
  Relative segment, address: CODE_AREA 00015590 - 00015593 (0x4 bytes), align: 2
  Segment part 59.            Intra module refs:   Char2Img
                                                   PrintField
    -------------------------------------------------------------------------
CODE
  Relative segment, address: CODE_AREA 00015594 - 00015597 (0x4 bytes), align: 2
  Segment part 60.            Intra module refs:   CalcChrWidth
                                                   CalcStrWidth
                                                   FreeDynVar
                                                   InitDynVar
                                                   PrintField
    -------------------------------------------------------------------------
CODE
  Relative segment, address: CODE_AREA 00015598 - 0001559B (0x4 bytes), align: 2
  Segment part 65.            Intra module refs:   ClearField
                                                   PrintField
    -------------------------------------------------------------------------
CODE
  Relative segment, address: CODE_AREA 0001559C - 000155DF (0x44 bytes), align: 2
  Segment part 67.
           ENTRY                   ADDRESS         REF BY
           =====                   =======         ======
           GetNLines               0001559C        DrawAbout (mainmenu)
               stack 1 = 00000000 ( 00000008 )
    -------------------------------------------------------------------------
CODE
  Relative segment, address: CODE_AREA 000155E0 - 00015617 (0x38 bytes), align: 2
  Segment part 69.
           ENTRY                   ADDRESS         REF BY
           =====                   =======         ======
           GetWidth                000155E0        DrawHeader (main)
                                                   DrawList (main)
                                                   DrawSoftInfo (main)
                                                   MM_DrawList (mainmenu)
               stack 1 = 00000000 ( 00000008 )
    -------------------------------------------------------------------------
CODE
  Relative segment, address: CODE_AREA 00015618 - 00015623 (0xc bytes), align: 2
  Segment part 73.
           ENTRY                   ADDRESS         REF BY
           =====                   =======         ======
           SetScrollEdgeDelay      00015618        DrawHeader (main)
                                                   DrawSoftInfo (main)
                                                   I_OnRedraw (main)
                                                   XS_onCreate (status_change)
    -------------------------------------------------------------------------
CODE
  Relative segment, address: CODE_AREA 00015624 - 000157A7 (0x184 bytes), align: 2
  Segment part 75.            Intra module refs:   PrintScrollField
           ENTRY                   ADDRESS         REF BY
           =====                   =======         ======
           CalcScroll              00015624 
               stack 1 = 00000000 ( 00000028 )
    -------------------------------------------------------------------------
CODE
  Relative segment, address: CODE_AREA 000157A8 - 00015867 (0xc0 bytes), align: 2
  Segment part 77.            Intra module refs:   PrintText
           ENTRY                   ADDRESS         REF BY
           =====                   =======         ======
           PrintScrollField        000157A8 
               stack 1 = 00000000 ( 00000044 )
    -------------------------------------------------------------------------
CODE
  Relative segment, address: CODE_AREA 00015868 - 00015AF7 (0x290 bytes), align: 2
  Segment part 79.
           ENTRY                   ADDRESS         REF BY
           =====                   =======         ======
           PrintText               00015868        DrawAbout (mainmenu)
                                                   DrawHeader (main)
                                                   DrawJustNow (main)
                                                   DrawList (history)
                                                   DrawList (main)
                                                   DrawSoftInfo (main)
                                                   I_DrawList (main)
                                                   I_OnRedraw (main)
                                                   MM_DrawList (mainmenu)
                                                   PrintMessage (main)
                                                   SC_DrawList (status_change)
                                                   XS_DrawList (status_change)
               stack 1 = 00000000 ( 0000024C )
    -------------------------------------------------------------------------
CODE
  Relative segment, address: CODE_AREA 00015AF8 - 00015B0F (0x18 bytes), align: 2
  Segment part 81.
           ENTRY                   ADDRESS         REF BY
           =====                   =======         ======
           SetCanvasFlag           00015AF8        DrawHeader (main)
                                                   I_onCreate (main)
                                                   MM_onCreate (mainmenu)
                                                   MM_onFocus (mainmenu)
                                                   SC_onCreate (status_change)
                                                   XS_onCreate (status_change)
                                                   main (main)
                                                   maincsm_onmessage (main)
                                                   method0 (main)
                                                   onCreate (history)
    -------------------------------------------------------------------------
CODE
  Relative segment, address: CODE_AREA 00015B10 - 00015B6B (0x5c bytes), align: 2
  Segment part 83.
           ENTRY                   ADDRESS         REF BY
           =====                   =======         ======
           PrintLibInit            00015B10        main (main)
                                                   maincsm_onmessage (main)
               stack 1 = 00000000 ( 00000004 )
    -------------------------------------------------------------------------
CODE
  Relative segment, address: CODE_AREA 00015B6C - 00015B6F (0x4 bytes), align: 2
  Segment part 84.            Intra module refs:   CalcScroll
                                                   PrintLibInit
                                                   SetScrollEdgeDelay
    -------------------------------------------------------------------------
CODE
  Relative segment, address: CODE_AREA 00015B70 - 00015B73 (0x4 bytes), align: 2
  Segment part 85.            Intra module refs:   PrintField
                                                   PrintLibInit
                                                   SetCanvasFlag
    -------------------------------------------------------------------------
CODE
  Relative segment, address: CODE_AREA 00015B74 - 00015B77 (0x4 bytes), align: 2
  Segment part 86.            Intra module refs:   PrintLibInit
    -------------------------------------------------------------------------
CODE
  Relative segment, address: CODE_AREA 00015B78 - 00015B7B (0x4 bytes), align: 2
  Segment part 87.            Intra module refs:   CalcChrWidth
                                                   CalcStrWidth
                                                   PrintLibInit
    -------------------------------------------------------------------------
CODE
  Relative segment, address: CODE_AREA 00015B7C - 00015C0F (0x94 bytes), align: 2
  Segment part 89.
           ENTRY                   ADDRESS         REF BY
           =====                   =======         ======
           FontPathInit            00015B7C        main (main)
                                                   maincsm_onmessage (main)
               stack 1 = 00000000 ( 0000001C )
    -------------------------------------------------------------------------
CODE
  Relative segment, address: CODE_AREA 00015C10 - 00015C13 (0x4 bytes), align: 2
  Segment part 90.            Intra module refs:   FontPathInit
                                                   PrintLibInit
    -------------------------------------------------------------------------
CODE
  Relative segment, address: CODE_AREA 00015C14 - 00015C8B (0x78 bytes), align: 2
  Segment part 92.
           ENTRY                   ADDRESS         REF BY
           =====                   =======         ======
           PrintLibFree            00015C14        maincsm_onclose (main)
               stack 1 = 00000000 ( 00000014 )
    -------------------------------------------------------------------------
CODE
  Relative segment, address: CODE_AREA 00015C8C - 00015C8F (0x4 bytes), align: 2
  Segment part 93.            Intra module refs:   FontPathInit
                                                   PrintLibFree
                                                   PrintLibInit
    -------------------------------------------------------------------------
CODE
  Relative segment, address: CODE_AREA 00015C90 - 00015C93 (0x4 bytes), align: 2
  Segment part 94.            Intra module refs:   FontPathInit
                                                   PrintLibFree
                                                   PrintLibInit
                                                   PrintText
    -------------------------------------------------------------------------
CODE
  Relative segment, address: CODE_AREA 00015C94 - 00015CD7 (0x44 bytes), align: 2
  Segment part 96.
           ENTRY                   ADDRESS         REF BY
           =====                   =======         ======
           SetFontColor            00015C94        DrawAbout (mainmenu)
                                                   DrawHeader (main)
                                                   DrawJustNow (main)
                                                   DrawList (history)
                                                   DrawList (main)
                                                   DrawSoftInfo (main)
                                                   DrawSoftKeys (main)
                                                   I_DrawList (main)
                                                   MM_DrawList (mainmenu)
                                                   PrintMessage (main)
                                                   SC_DrawList (status_change)
                                                   XS_DrawList (status_change)
               stack 1 = 00000000 ( 0000000C )
    -------------------------------------------------------------------------
CODE
  Relative segment, address: CODE_AREA 00015CD8 - 00015CDB (0x4 bytes), align: 2
  Segment part 97.            Intra module refs:   PrintField
                                                   PrintLibInit
                                                   SetFontColor
    -------------------------------------------------------------------------
CODE
  Relative segment, address: CODE_AREA 00015CDC - 00015CDF (0x4 bytes), align: 2
  Segment part 98.            Intra module refs:   PrintField
                                                   SetFontColor
    -------------------------------------------------------------------------
CODE
  Relative segment, address: CODE_AREA 00015CE0 - 00015CE3 (0x4 bytes), align: 2
  Segment part 99.            Intra module refs:   PrintField
                                                   SetFontColor
    -------------------------------------------------------------------------
CODE
  Relative segment, address: CODE_AREA 00015CE4 - 00015CE7 (0x4 bytes), align: 2
  Segment part 100.           Intra module refs:   PrintField
                                                   SetFontColor

    *************************************************************************

  FILE NAME : D:\pasha\elf\_MY_PROJECT_\naticq_mod2\strings.r79
  PROGRAM MODULE, NAME : strings

  SEGMENTS IN THE MODULE
  ======================
CODE
  Relative segment, address: CODE_AREA 00015CE8 - 00015D3F (0x58 bytes), align: 2
  Segment part 5.
           ENTRY                   ADDRESS         REF BY
           =====                   =======         ======
           MakeGlobalString        00015CE8        StatusToIMGHDR (main)
                                                   setup_ICONS (main)
               stack 1 = 00000000 ( 00000018 )
    -------------------------------------------------------------------------
CODE
  Relative segment, address: CODE_AREA 00015D40 - 00015D6F (0x30 bytes), align: 2
  Segment part 7.
           ENTRY                   ADDRESS         REF BY
           =====                   =======         ======
           strcmp_nocase           00015D40        CheckComand (main)
                                                   CompareContacts (cl_work)
                                                   maincsm_onmessage (main)
    -------------------------------------------------------------------------
DATA_C
  Relative segment, address: CODE_AREA 0001E11C - 0001E373 (0x258 bytes), align: 2
  Segment part 2.             Intra module refs:   char16to8
           ENTRY                   ADDRESS         REF BY
           =====                   =======         ======
           unicode2char            0001E11C 
    -------------------------------------------------------------------------
DATA_C
  Relative segment, address: CODE_AREA 0001E374 - 0001E473 (0x100 bytes), align: 2
  Segment part 3.             Intra module refs:   char8to16
           ENTRY                   ADDRESS         REF BY
           =====                   =======         ======
           win2unicode             0001E374 
    -------------------------------------------------------------------------
CODE
  Relative segment, address: CODE_AREA 00015D70 - 00015D8F (0x20 bytes), align: 2
  Segment part 9.             Intra module refs:   ascii2ws
           ENTRY                   ADDRESS         REF BY
           =====                   =======         ======
           char8to16               00015D70        EditXStatus (status_change)
                                                   ParseAnswer (main)
                                                   ParseXStatusText (main)
                                                   ed_options_handler (main)
    -------------------------------------------------------------------------
CODE
  Relative segment, address: CODE_AREA 00015D90 - 00015DD3 (0x44 bytes), align: 2
  Segment part 11.            Intra module refs:   convWS_to_ANSI
           ENTRY                   ADDRESS         REF BY
           =====                   =======         ======
           char16to8               00015D90        ExtractAnswer (main)
                                                   IsUrl (main)
                                                   acgd_onkey (manage_cl)
                                                   edit_xstatus_onkey (status_change)
                                                   input_awaymsg_onkey (main)
                                                   wstrstr (main)
    -------------------------------------------------------------------------
CODE
  Relative segment, address: CODE_AREA 00015DD4 - 00015E0B (0x38 bytes), align: 2
  Segment part 13.
           ENTRY                   ADDRESS         REF BY
           =====                   =======         ======
           ascii2ws                00015DD4        AddMsgToChat (main)
                                                   CmdMenuItemHandler (main)
                                                   CmdMenuKeyHook (main)
                                                   CreateAddContactGrpDialog (manage_cl)
                                                   CreateEditChat (main)
                                                   EditXStatus (status_change)
                                                   InputAwayMsg (main)
                                                   RenderPage (select_smile)
                                                   acgd_ghook (manage_cl)
                                                   ed_options_handler (main)
                                                   edchat_onkey (main)
                                                   show_off_contact (main)
                                                   show_on_contact (main)
                                                   show_pp_sender (main)
               stack 1 = 00000000 ( 0000000C )
    -------------------------------------------------------------------------
CODE
  Relative segment, address: CODE_AREA 00015E0C - 00015E5B (0x50 bytes), align: 2
  Segment part 15.
           ENTRY                   ADDRESS         REF BY
           =====                   =======         ======
           convWS_to_ANSI          00015E0C        GetTags (player_tags)
               stack 1 = 00000000 ( 00000014 )

    *************************************************************************

  FILE NAME : D:\pasha\Embedded Workbench 4.0 Evaluation2\ARM\LIB\dl5tpainl8n.r79
  LIBRARY MODULE, NAME : ?errno

  SEGMENTS IN THE MODULE
  ======================
DATA_Z
  Relative segment, address: CODE_AREA 00025598 - 0002559F (0x8 bytes), align: 2
  Segment part 2.             Intra module refs:   _Geterrno
           ENTRY                   ADDRESS         REF BY
           =====                   =======         ======
           _Errno                  0002559C 
           _Tls_setup__Errno       00025598 
    -------------------------------------------------------------------------
CODE
  Relative segment, address: CODE_AREA 00015E5C - 00015E7F (0x24 bytes), align: 2
  Segment part 4.
           ENTRY                   ADDRESS         REF BY
           =====                   =======         ======
           _Geterrno               00015E5C        _Stoul (?xstoul)
               stack 1 = 00000000 ( 00000008 )

    -------------------------------------------------------------------------
  LIBRARY MODULE, NAME : ?memchr

  SEGMENTS IN THE MODULE
  ======================
CODE
  Relative segment, address: CODE_AREA 00015E80 - 00015EAF (0x30 bytes), align: 2
  Segment part 5.
           ENTRY                   ADDRESS         REF BY
           =====                   =======         ======
           _Memchr                 00015E80        _Stoul (?xstoul)

    -------------------------------------------------------------------------
  LIBRARY MODULE, NAME : ?strtoul

  SEGMENTS IN THE MODULE
  ======================
CODE
  Relative segment, address: CODE_AREA 00015EB0 - 00015EBF (0x10 bytes), align: 2
  Segment part 3.
           ENTRY                   ADDRESS         REF BY
           =====                   =======         ======
           strtoul                 00015EB0        CheckComand2 (addon)
                                                   initTags (player_tags)
               stack 1 = 00000000 ( 00000008 )

    -------------------------------------------------------------------------
  LIBRARY MODULE, NAME : ?xstoul

  SEGMENTS IN THE MODULE
  ======================
DATA_C
  Relative segment, address: CODE_AREA 0001E474 - 0001E4C3 (0x50 bytes), align: 2
  Segment part 2.             Intra module refs:   _Stoul
    -------------------------------------------------------------------------
CODE
  Relative segment, address: CODE_AREA 00015EC0 - 0001606F (0x1b0 bytes), align: 2
  Segment part 4.
           ENTRY                   ADDRESS         REF BY
           =====                   =======         ======
           _Stoul                  00015EC0        strtoul (?strtoul)
               stack 1 = 00000000 ( 00000030 )

    -------------------------------------------------------------------------
  LIBRARY MODULE, NAME : ?div_module

  SEGMENTS IN THE MODULE
  ======================
CODE
  Relative segment, address: CODE_AREA 00016070 - 0001607B (0xc bytes), align: 2
  Segment part 5.
           ENTRY                   ADDRESS         REF BY
           =====                   =======         ======
           ??divu32_a              00016070        _Stoul (?xstoul)
    -------------------------------------------------------------------------
CODE
  Relative segment, address: CODE_AREA 0001607C - 00016093 (0x18 bytes), align: 2
  Segment part 11.
           ENTRY                   ADDRESS         REF BY
           =====                   =======         ======
           ??div32_a               0001607C        DrawLoadScreen (main)
                                                   DrawMMScrollBar (mainmenu)
                                                   DrawScrollBar (main)
                                                   DrawXScrollBar (status_change)
    -------------------------------------------------------------------------
CODE
  Relative segment, address: CODE_AREA 00016094 - 0001616B (0xd8 bytes), align: 2
  Segment part 12.            Intra module refs:   ??div32_a
                                                   ??divu32_a




                ****************************************
                *                                      *
                *            MODULE SUMMARY            *
                *                                      *
                ****************************************

Module              CODE   DATA
------              ----   ----
                   (Rel)  (Rel)
?div_module          252
?errno                44
?memchr               48
?strtoul              16
?xstoul              512
ScreenShot           416
addon              2 453     16
  + shared            12
auth                 436     28
cl_work            2 452
conf_loader          621      8
config_data2      24 144
configs            2 191      3
  + shared            12
func                   4
history            3 987      7
main              85 133    432
mainmenu           5 464    188
manage_cl          2 861     84
player_tags        1 356     20
print              5 541
screen_save        2 032
select_smile       2 048
smiles_loader      2 180
status_change      7 549    168
strings            1 228
N/A (alignment)
------           -------    ---
Total:           152 992    954


                ****************************************
                *                                      *
                *      SEGMENTS IN ADDRESS ORDER       *
                *                                      *
                ****************************************


SEGMENT              SPACE    START ADDRESS   END ADDRESS     SIZE  TYPE  ALIGN
=======              =====    =============   ===========     ====  ====  =====
ELFBEGIN             CODE_AREA           00000000                     rel    0
DATA_ID              CODE_AREA      00000000 - 000003B9         3BA   rel    2
START                CODE_AREA           000003BA                     dse    0
CODE                 CODE_AREA      000003BC - 0001616B       15DB0   rel    2
DATA_C               CODE_AREA      0001616C - 0001E4CB        8360   rel    2
INITTAB              CODE_AREA      0001E4CC - 0001E4E3          18   rel    2
DATA_Z               CODE_AREA      0001E4E4 - 000255A1        70BE   rel    2
CONFIG_C             CODE_AREA           000255A2                     dse    0
DATA_I               DATA_AREA      00000000 - 000003B9         3BA   rel    2

                ****************************************
                *                                      *
                *        END OF CROSS REFERENCE        *
                *                                      *
                ****************************************

 152 992 bytes of CODE memory
     954 bytes of DATA memory

Errors: none
Warnings: 6

