Warning[w6]: Type conflict for external/entry "PASS", in module auth against external/entry in module configs; types have different type attributes
  /* In module auth: */
  char (const PASS)[];
  /* In module configs: */
  char PASS[9];
Warning[w6]: Type conflict for external/entry "UIN", in module auth against external/entry in module configs; types have different type attributes
  /* In module auth: */
  unsigned int const UIN;
  /* In module configs: */
  unsigned int UIN;
Warning[w6]: Type conflict for external/entry "ProcessPacket", in module auth against external/entry in module main; function return types are different; different basic types
  /* In module auth: */
  /* Function, args 1, attr 0 */
  void (__atpcs __interwork ProcessPacket)(struct /* Elements: 2, Bytes: 16392 */
                                           { 
                                             PKT pkt;
                                             char data[16384];
                                           } *);
    typedef struct __Unnamed_3_134 PKT;
  /* In module main: */
  /* Function, args 1, attr 0 */
  int (__atpcs __interwork ProcessPacket)(TPKT *);
    typedef struct __Unnamed_3_132 TPKT;
################################################################################
#                                                                              #
#      IAR Universal Linker V4.60I/386                                         #
#                                                                              #
#           Link time     =  19/Dec/2010  16:45:32                             #
#           Target CPU    =  ARM                                               #
#           List file     =  D:\pasha\elf\_MY_PROJECT_\naticq_mod\Release\List #
#                            \NATICQ.map                                       #
#           Output file 1 =  D:\pasha\elf\_MY_PROJECT_\naticq_mod\Release\Exe\ #
#                            NATICQ.elf                                        #
#                            Format: elf, variant: -ynpra                      #
#           Command line  =  D:\pasha\elf\_MY_PROJECT_\naticq_mod\Release\Obj\ #
#                            IMB.r79                                           #
#                            D:\pasha\elf\_MY_PROJECT_\naticq_mod\Release\Obj\ #
#                            ScreenShot.r79                                    #
#                            D:\pasha\elf\_MY_PROJECT_\naticq_mod\Release\Obj\ #
#                            addon.r79                                         #
#                            D:\pasha\elf\_MY_PROJECT_\naticq_mod\Release\Obj\ #
#                            cl_work.r79                                       #
#                            D:\pasha\elf\_MY_PROJECT_\naticq_mod\Release\Obj\ #
#                            conf_loader.r79                                   #
#                            D:\pasha\elf\_MY_PROJECT_\naticq_mod\Release\Obj\ #
#                            configs.r79                                       #
#                            D:\pasha\elf\_MY_PROJECT_\naticq_mod\Release\Obj\ #
#                            func.r79                                          #
#                            D:\pasha\elf\_MY_PROJECT_\naticq_mod\Release\Obj\ #
#                            history.r79                                       #
#                            D:\pasha\elf\_MY_PROJECT_\naticq_mod\Release\Obj\ #
#                            main.r79                                          #
#                            D:\pasha\elf\_MY_PROJECT_\naticq_mod\Release\Obj\ #
#                            mainmenu.r79                                      #
#                            D:\pasha\elf\_MY_PROJECT_\naticq_mod\Release\Obj\ #
#                            manage_cl.r79                                     #
#                            D:\pasha\elf\_MY_PROJECT_\naticq_mod\Release\Obj\ #
#                            player_tags.r79                                   #
#                            D:\pasha\elf\_MY_PROJECT_\naticq_mod\Release\Obj\ #
#                            screen_save.r79                                   #
#                            D:\pasha\elf\_MY_PROJECT_\naticq_mod\Release\Obj\ #
#                            select_smile.r79                                  #
#                            D:\pasha\elf\_MY_PROJECT_\naticq_mod\Release\Obj\ #
#                            smiles_loader.r79                                 #
#                            D:\pasha\elf\_MY_PROJECT_\naticq_mod\Release\Obj\ #
#                            status_change.r79                                 #
#                            D:\pasha\elf\_MY_PROJECT_\naticq_mod\auth.r79     #
#                            D:\pasha\elf\_MY_PROJECT_\naticq_mod\print.r79    #
#                            D:\pasha\elf\_MY_PROJECT_\naticq_mod\strings.r79  #
#                            -o                                                #
#                            D:\pasha\elf\_MY_PROJECT_\naticq_mod\Release\Exe\ #
#                            NATICQ.elf                                        #
#                            -Felf -l                                          #
#                            D:\pasha\elf\_MY_PROJECT_\naticq_mod\Release\List #
#                            \NATICQ.map                                       #
#                            -xmsn -f                                          #
#                            D:\pasha\elf\_MY_PROJECT_\naticq_mod/test.xcl     #
#                            (-carm -V(CODE)CODE_AREA,12                       #
#                            -V(DATA)DATA_AREA,12                              #
#                            -Z(CODE_AREA)ELFBEGIN,DATA_ID,START,CODE,DATA_C,I #
#                            NITTAB,DATA_Z,DATA_N,CONFIG_C=0-FFFFFFFF          #
#                            -Z(DATA_AREA)DATA_I=0-FFFFFFFF) -ynpra            #
#                            "D:\pasha\Embedded Workbench 4.0 Evaluation2\ARM\ #
#                            LIB\dl5tpainl8n.r79"                              #
#                            -s main                                           #
#                                                                              #
#                        Copyright 1987-2007 IAR Systems. All rights reserved. #
################################################################################





                ****************************************
                *                                      *
                *           CROSS REFERENCE            *
                *                                      *
                ****************************************

       Program entry at : CODE_AREA 0000B6E4  Relocatable, from module : main




                ****************************************
                *                                      *
                *            RUNTIME MODEL             *
                *                                      *
                ****************************************

  StackAlign4  = USED
  StackAlign8  = USED
  __cpu_mode   = __pcs__interwork
  __data_model = absolute
  __endian     = little
  __rt_version = 6



                ****************************************
                *                                      *
                *              MODULE MAP              *
                *                                      *
                ****************************************


  DEFINED ABSOLUTE ENTRIES
    *************************************************************************

  DEFINED ABSOLUTE ENTRIES
    *************************************************************************

  FILE NAME : D:\pasha\elf\_MY_PROJECT_\naticq_mod\Release\Obj\IMB.r79
  PROGRAM MODULE, NAME : IMB

  SEGMENTS IN THE MODULE
  ======================
CODE
  Relative segment, address: CODE_AREA 000002B0 - 0000031B (0x6c bytes), align: 2
  Segment part 0. ROOT.
           ENTRY                   ADDRESS         REF BY
           =====                   =======         ======
           ExecuteIMB              000002B0        aa (auth)

    *************************************************************************

  FILE NAME : D:\pasha\elf\_MY_PROJECT_\naticq_mod\Release\Obj\ScreenShot.r79
  PROGRAM MODULE, NAME : ScreenShot

  SEGMENTS IN THE MODULE
  ======================
CODE
  Relative segment, address: CODE_AREA 0000031C - 00000377 (0x5c bytes), align: 2
  Segment part 4.             Intra module refs:   DrawScreenShot
           ENTRY                   ADDRESS         REF BY
           =====                   =======         ======
           DrwImg2                 0000031C 
               stack 1 = 00000000 ( 00000040 )
    -------------------------------------------------------------------------
CODE
  Relative segment, address: CODE_AREA 00000378 - 00000487 (0x110 bytes), align: 2
  Segment part 6.
           ENTRY                   ADDRESS         REF BY
           =====                   =======         ======
           DrawScreenShot          00000378        show_on_contact (main)
                                                   show_pp_sender (main)
               stack 1 = 00000000 ( 0000002C )
    -------------------------------------------------------------------------
DATA_C
  Relative segment, address: CODE_AREA 0001284C - 00012853 (0x8 bytes), align: 2
  Segment part 2.             Intra module refs:   DrawScreenShot

    *************************************************************************

  FILE NAME : D:\pasha\elf\_MY_PROJECT_\naticq_mod\Release\Obj\addon.r79
  PROGRAM MODULE, NAME : addon

  SEGMENTS IN THE MODULE
  ======================
CODE
  Relative segment, address: CODE_AREA 00000488 - 000004AF (0x28 bytes), align: 2
  Segment part 21.
           ENTRY                   ADDRESS         REF BY
           =====                   =======         ======
           get_file_size           00000488        UpdateConfig (configs)
               stack 1 = 00000000 ( 00000030 )
    -------------------------------------------------------------------------
CODE
  Relative segment, address: CODE_AREA 000004B0 - 00000683 (0x1d4 bytes), align: 2
  Segment part 23.            Intra module refs:   CheckComand2
           ENTRY                   ADDRESS         REF BY
           =====                   =======         ======
           start                   000004B0 
               stack 1 = 00000000 ( 00000010 )
    -------------------------------------------------------------------------
CODE
  Relative segment, address: CODE_AREA 00000684 - 00000DF3 (0x770 bytes), align: 2
  Segment part 25.
           ENTRY                   ADDRESS         REF BY
           =====                   =======         ======
           CheckComand2            00000684        CheckComand (main)
               stack 1 = 00000000 ( 000004D8 )
    -------------------------------------------------------------------------
DATA_C
  Relative segment, address: CODE_AREA 00012854 - 00012873 (0x20 bytes), align: 2
  Segment part 2.             Intra module refs:   start
    -------------------------------------------------------------------------
DATA_C
  Relative segment, address: CODE_AREA 00012874 - 000128FF (0x8c bytes), align: 2
  Segment part 6.             Intra module refs:   CheckComand2

    *************************************************************************

  FILE NAME : D:\pasha\elf\_MY_PROJECT_\naticq_mod\Release\Obj\cl_work.r79
  PROGRAM MODULE, NAME : cl_work

  SEGMENTS IN THE MODULE
  ======================
CODE
  Relative segment, address: CODE_AREA 00000DF4 - 00000E17 (0x24 bytes), align: 2
  Segment part 5.             Intra module refs:   FillAllOffline
           ENTRY                   ADDRESS         REF BY
           =====                   =======         ======
           FreeXText               00000DF4        CreateEditChat (main)
                                                   ProcessPacket (main)
                                                   contactlist_menu_onkey (main)
               stack 1 = 00000000 ( 00000008 )
    -------------------------------------------------------------------------
CODE
  Relative segment, address: CODE_AREA 00000E18 - 00000E7F (0x68 bytes), align: 2
  Segment part 7.
           ENTRY                   ADDRESS         REF BY
           =====                   =======         ======
           FreeCLIST               00000E18        maincsm_onclose (main)
               stack 1 = 00000000 ( 00000008 )
    -------------------------------------------------------------------------
CODE
  Relative segment, address: CODE_AREA 00000E80 - 00000F0F (0x90 bytes), align: 2
  Segment part 9.
           ENTRY                   ADDRESS         REF BY
           =====                   =======         ======
           FillAllOffline          00000E80        maincsm_onmessage (main)
               stack 1 = 00000000 ( 00000010 )
    -------------------------------------------------------------------------
CODE
  Relative segment, address: CODE_AREA 00000F10 - 00000F3B (0x2c bytes), align: 2
  Segment part 11.            Intra module refs:   LoadLocalCL
           ENTRY                   ADDRESS         REF BY
           =====                   =======         ======
           FindContactByUin        00000F10        ChangeAutoMsg (main)
                                                   ChangeShowXstatus (main)
                                                   ChangeSoundContact (main)
                                                   ChangeVibraContact (main)
                                                   FindContactLOGQByAck (main)
                                                   ProcessPacket (main)
                                                   addIconBar (main)
                                                   contact_keyhook (main)
                                                   contacthandler (main)
                                                   contactlist_menu_onkey (main)
                                                   get_answer (main)
                                                   maincsm_onmessage (main)
    -------------------------------------------------------------------------
CODE
  Relative segment, address: CODE_AREA 00000F3C - 00000F6B (0x30 bytes), align: 2
  Segment part 13.
           ENTRY                   ADDRESS         REF BY
           =====                   =======         ======
           FindGroupByID           00000F3C        ProcessPacket (main)
                                                   contactlist_menu_onkey (main)
                                                   maincsm_onmessage (main)
    -------------------------------------------------------------------------
DATA_C
  Relative segment, address: CODE_AREA 00012900 - 0001290B (0xc bytes), align: 2
  Segment part 2.             Intra module refs:   LoadLocalCL
    -------------------------------------------------------------------------
DATA_C
  Relative segment, address: CODE_AREA 0001290C - 00012A0B (0x100 bytes), align: 2
  Segment part 3.             Intra module refs:   FindContactByNS
    -------------------------------------------------------------------------
CODE
  Relative segment, address: CODE_AREA 00000F6C - 000010EF (0x184 bytes), align: 2
  Segment part 15.            Intra module refs:   CountContacts
                                                   FindContactByContact
                                                   FindContactByN
           ENTRY                   ADDRESS         REF BY
           =====                   =======         ======
           FindContactByNS         00000F6C 
               stack 1 = 00000000 ( 00000020 )
    -------------------------------------------------------------------------
CODE
  Relative segment, address: CODE_AREA 000010F0 - 0000111F (0x30 bytes), align: 2
  Segment part 17.
           ENTRY                   ADDRESS         REF BY
           =====                   =======         ======
           CountContacts           000010F0        RecountMenu (main)
                                                   contactlist_menu_onkey (main)
                                                   create_contactlist_menu (main)
               stack 1 = 00000000 ( 00000008 )
    -------------------------------------------------------------------------
CODE
  Relative segment, address: CODE_AREA 00001120 - 0000117B (0x5c bytes), align: 2
  Segment part 19.
           ENTRY                   ADDRESS         REF BY
           =====                   =======         ======
           FindContactByN          00001120        ProcessPacket (main)
                                                   contactlist_menu_iconhndl (main)
                                                   contactlist_menu_onkey (main)
                                                   maincsm_onmessage (main)
               stack 1 = 00000000 ( 00000008 )
    -------------------------------------------------------------------------
CODE
  Relative segment, address: CODE_AREA 0000117C - 000011E3 (0x68 bytes), align: 2
  Segment part 21.
           ENTRY                   ADDRESS         REF BY
           =====                   =======         ======
           FindContactByContact    0000117C        RecountMenu (main)
               stack 1 = 00000000 ( 0000000C )
    -------------------------------------------------------------------------
CODE
  Relative segment, address: CODE_AREA 000011E4 - 000011E7 (0x4 bytes), align: 2
  Segment part 22.            Intra module refs:   FindContactByContact
                                                   FindContactByN
    -------------------------------------------------------------------------
CODE
  Relative segment, address: CODE_AREA 000011E8 - 0000121B (0x34 bytes), align: 2
  Segment part 24.            Intra module refs:   ChangeContactPos
           ENTRY                   ADDRESS         REF BY
           =====                   =======         ======
           SwapContacts            000011E8 
    -------------------------------------------------------------------------
CODE
  Relative segment, address: CODE_AREA 0000121C - 0000129B (0x80 bytes), align: 2
  Segment part 26.            Intra module refs:   FillAllOffline
           ENTRY                   ADDRESS         REF BY
           =====                   =======         ======
           ChangeContactPos        0000121C        AddMsgToChat (main)
                                                   AddStringToLog (main)
                                                   CreateEditChat (main)
                                                   ProcessPacket (main)
               stack 1 = 00000000 ( 0000000C )
    -------------------------------------------------------------------------
CODE
  Relative segment, address: CODE_AREA 0000129C - 00001333 (0x98 bytes), align: 2
  Segment part 28.            Intra module refs:   AddContactOrGroup
                                                   ChangeContactPos
           ENTRY                   ADDRESS         REF BY
           =====                   =======         ======
           CompareContacts         0000129C 
               stack 1 = 00000000 ( 00000010 )
    -------------------------------------------------------------------------
CODE
  Relative segment, address: CODE_AREA 00001334 - 000013AB (0x78 bytes), align: 2
  Segment part 30.            Intra module refs:   AddContact
                                                   AddGroup
                                                   ResortCL
           ENTRY                   ADDRESS         REF BY
           =====                   =======         ======
           AddContactOrGroup       00001334 
               stack 1 = 00000000 ( 00000010 )
    -------------------------------------------------------------------------
CODE
  Relative segment, address: CODE_AREA 000013AC - 0000141B (0x70 bytes), align: 2
  Segment part 32.
           ENTRY                   ADDRESS         REF BY
           =====                   =======         ======
           ResortCL                000013AC        ChangeShowGroupsMode (mainmenu)
                                                   maincsm_onmessage (main)
               stack 1 = 00000000 ( 00000014 )
    -------------------------------------------------------------------------
CODE
  Relative segment, address: CODE_AREA 0000141C - 0000147B (0x60 bytes), align: 2
  Segment part 34.            Intra module refs:   LoadLocalCL
           ENTRY                   ADDRESS         REF BY
           =====                   =======         ======
           AddContact              0000141C        ProcessPacket (main)
                                                   maincsm_onmessage (main)
               stack 1 = 00000000 ( 00000018 )
    -------------------------------------------------------------------------
CODE
  Relative segment, address: CODE_AREA 0000147C - 000014DF (0x64 bytes), align: 2
  Segment part 36.
           ENTRY                   ADDRESS         REF BY
           =====                   =======         ======
           AddGroup                0000147C        ProcessPacket (main)
                                                   maincsm_onmessage (main)
               stack 1 = 00000000 ( 00000010 )
    -------------------------------------------------------------------------
CODE
  Relative segment, address: CODE_AREA 000014E0 - 000014E3 (0x4 bytes), align: 2
  Segment part 37.            Intra module refs:   AddGroup
                                                   CompareContacts
                                                   FindContactByNS
                                                   ResortCL
    -------------------------------------------------------------------------
CODE
  Relative segment, address: CODE_AREA 000014E4 - 000014E7 (0x4 bytes), align: 2
  Segment part 38.            Intra module refs:   AddContact
                                                   AddGroup
                                                   FillAllOffline
                                                   FindContactByNS
                                                   FindContactByUin
                                                   FindGroupByID
                                                   FreeCLIST
                                                   ResortCL
    -------------------------------------------------------------------------
CODE
  Relative segment, address: CODE_AREA 000014E8 - 0000167B (0x194 bytes), align: 2
  Segment part 40.
           ENTRY                   ADDRESS         REF BY
           =====                   =======         ======
           LoadLocalCL             000014E8        maincsm_onmessage (main)
               stack 1 = 00000000 ( 00000184 )

    *************************************************************************

  FILE NAME : D:\pasha\elf\_MY_PROJECT_\naticq_mod\Release\Obj\conf_loader.r79
  PROGRAM MODULE, NAME : conf_loader

  SEGMENTS IN THE MODULE
  ======================
CODE
  Relative segment, address: CODE_AREA 0000167C - 000016E7 (0x6c bytes), align: 2
  Segment part 9.             Intra module refs:   InitConfig
           ENTRY                   ADDRESS         REF BY
           =====                   =======         ======
           LoadConfigData          0000167C 
               stack 1 = 00000000 ( 00000018 )
    -------------------------------------------------------------------------
DATA_I
  Relative segment, address: DATA_AREA 00000000 - 00000003 (0x4 bytes), align: 2
  Segment part 4.             Intra module refs:   InitConfig
           ENTRY                   ADDRESS         REF BY
           =====                   =======         ======
           config_path             00000000 
    -------------------------------------------------------------------------
CODE
  Relative segment, address: CODE_AREA 000016E8 - 00001737 (0x50 bytes), align: 2
  Segment part 11.
           ENTRY                   ADDRESS         REF BY
           =====                   =======         ======
           InitConfig              000016E8        UpdateConfig (configs)
               stack 1 = 00000000 ( 00000090 )
    -------------------------------------------------------------------------
DATA_ID
  Relative segment, address: CODE_AREA 00000000 - 00000003 (0x4 bytes), align: 2
  Segment part 5.             Intra module refs:   config_path
    -------------------------------------------------------------------------
INITTAB
  Relative segment, address: CODE_AREA 00014E54 - 00014E5F (0xc bytes), align: 2
  Segment part 13. ROOT.
           ENTRY                   ADDRESS         REF BY
           =====                   =======         ======
           ?init?tab?DATA_I        00014E54 
    -------------------------------------------------------------------------
DATA_C
  Relative segment, address: CODE_AREA 00012A0C - 00012A17 (0xc bytes), align: 2
  Segment part 2.             Intra module refs:   Segment part 5
    -------------------------------------------------------------------------
DATA_C
  Relative segment, address: CODE_AREA 00012A18 - 00012A27 (0x10 bytes), align: 2
  Segment part 3.             Intra module refs:   InitConfig

    *************************************************************************

  FILE NAME : D:\pasha\elf\_MY_PROJECT_\naticq_mod\Release\Obj\configs.r79
  PROGRAM MODULE, NAME : configs

  SEGMENTS IN THE MODULE
  ======================
DATA_I
  Relative segment, address: DATA_AREA 000002AC - 000002AE (0x3 bytes), align: 0
  Segment part 5.             Intra module refs:   UpdateConfig
           ENTRY                   ADDRESS         REF BY
           =====                   =======         ======
           per_s                   000002AC        CheckComand2 (addon)
    -------------------------------------------------------------------------
CODE
  Relative segment, address: CODE_AREA 00001738 - 0000212B (0x9f4 bytes), align: 2
  Segment part 8.
           ENTRY                   ADDRESS         REF BY
           =====                   =======         ======
           UpdateConfig            00001738        main (main)
                                                   maincsm_onmessage (main)
               stack 1 = 00000000 ( 00000024 )
    -------------------------------------------------------------------------
DATA_Z
  Relative segment, address: CODE_AREA 00014E6C - 000158C7 (0xa5c bytes), align: 2
  Segment part 4.             Intra module refs:   Segment part 15
                                                   UpdateConfig
           ENTRY                   ADDRESS         REF BY
           =====                   =======         ======
           ACK_COLOR               0001511C        Segment part 387 (main)
                                                   Segment part 610 (main)
           ADDITION_UIN            00014FB8        addIconBar (main)
           AUTO_ENGADE             00015024        AutoAwayMSG (mainmenu)
                                                   Segment part 199 (main)
                                                   Segment part 311 (main)
                                                   st_onkey (status_change)
           ActionResh              00014F54        contactlist_menu_onkey (main)
           Auto_Status             00015014        Segment part 169 (main)
                                                   Segment part 531 (main)
           BGPBcolor               0001518C        method0 (main)
           CsmAdr                  00015390        initTags (player_tags)
           DEVELOP_IF              000150C8        ProcessPacket (main)
           DEVELOP_IF_MOD          00014F3C 
           ED_FONT_SIZE            00015104        Segment part 383 (main)
                                                   Segment part 621 (main)
           ED_H_FONT_SIZE          00015108        Segment part 394 (main)
                                                   Segment part 608 (main)
           ED_X_FONT_SIZE          0001510C        Segment part 384 (main)
                                                   Segment part 620 (main)
           ENA_AUTO_XTXT           00015124        ProcessPacket (main)
           FIRST_LETTER            000150D4        CreateEditChat (main)
           HISTORY_BUFFER          00015130        Segment part 320 (main)
                                                   Segment part 373 (main)
                                                   Segment part 460 (main)
           HISTORY_BUFFER_MOD      00014F44 
           HISTORY_SAVE_TYPE       00014F40        OpenLogfile (main)
                                                   Segment part 31 (history)
           HISTORY_TYPE            000150DC        OpenLogfile (main)
                                                   Segment part 30 (history)
           HIST_PATH               00015788        OpenLogfile (main)
                                                   Segment part 29 (history)
           ICON_PATH               000156C8        Segment part 268 (main)
           IDLEICON_X              000150E4        maincsm_onmessage (main)
           IDLEICON_XX             00014FA4        maincsm_onmessage (main)
           IDLEICON_Y              000150E8        maincsm_onmessage (main)
           IDLEICON_YX             00014FA8        maincsm_onmessage (main)
           ILL_DISP_RECV           00015134        ProcessPacket (main)
           ILL_DISP_SEND           00015140        ProcessPacket (main)
           ILL_KEYS_RECV           00015138        ProcessPacket (main)
           ILL_KEYS_SEND           00015144        ProcessPacket (main)
           ILL_OFF_FADE            00015154        IlluminationOff (main)
           ILL_RECV_FADE           00015150        ProcessPacket (main)
           ILL_RECV_TMR            0001513C        ProcessPacket (main)
           ILL_SEND_FADE           0001514C 
           ILL_SEND_TMR            00015148        ProcessPacket (main)
           I_COLOR                 000150EC        Segment part 391 (main)
                                                   Segment part 609 (main)
           I_str                   0001549C        Segment part 433 (main)
                                                   Segment part 632 (main)
                                                   Segment part 636 (main)
           IsInvertSoftKey         000150B0        Segment part 498 (main)
           IsMultiBuffer           000150AC        Segment part 576 (main)
                                                   Segment part 599 (main)
           IsOnNAStatus            00015018        away_timer (main)
           IsOpenBrowser           000150A8        edchat_onkey (main)
           IsShowInfo              000150B4        method0 (main)
           IsShowLoopback          000150A4        maincsm_onmessage (main)
           Is_Online_On            00015008        maincsm_onmessage (main)
           Is_Unread_On            00014FFC        maincsm_onmessage (main)
           LOG_ALL                 000150CC        Add2History (history)
           LOG_STATCH              000150D0        LogStatusChange (history)
           LOG_XTXT                0001512C        AddStringToLog (main)
           LongLeftAction          00014F50        edchat_onkey (main)
           LongRightAction         00014F4C        edchat_onkey (main)
           LongVolDownAction       00014F5C        edchat_onkey (main)
           LongVolUpAction         00014F58        edchat_onkey (main)
           NAStatusTime            0001501C        away_timer (main)
           NATICQ_HOST             000157C8        create_connect (main)
           NATICQ_PORT             0001515C        GetPort (main)
           NOT_LOG_SAME_XTXT       00015128        AddStringToLog (main)
           NumStatusToIconBar      00014FB0        Segment part 446 (main)
                                                   Segment part 544 (main)
           NumXStatusToIconBar     00014FB4        addIconBar (main)
           ON_OFF_TIME             00015068        ProcessPacket (main)
           O_ED_FONT_SIZE          00015110        Segment part 382 (main)
                                                   Segment part 616 (main)
           O_ED_H_FONT_SIZE        00015114        Segment part 393 (main)
                                                   Segment part 613 (main)
           O_ED_X_FONT_SIZE        00015118        Segment part 379 (main)
                                                   Segment part 619 (main)
           O_I_COLOR               000150F8        Segment part 389 (main)
                                                   Segment part 611 (main)
           O_TO_COLOR              000150FC        Segment part 388 (main)
                                                   Segment part 612 (main)
           O_X_COLOR               00015100        Segment part 381 (main)
                                                   Segment part 617 (main)
           PASS                    000154BC        Segment part 482 (main)
                                                   Segment part 529 (main)
                                                   aa (auth)
           PBRECT                  00014E6C        method0 (main)
           PBcolor                 00015188        method0 (main)
           Pause_Time              00014FEC        upTime (main)
           Ping_X                  00014FF0        DrawPing (main)
           Ping_Y                  00014FF4        DrawPing (main)
           PopupBGCl               0001517C        Segment part 447 (main)
           PopupFont               00015060        Segment part 445 (main)
           PopupMsgCl              00015184        show_pp_sender (main)
           PopupMsgString          00015368        ProcessPacket (main)
           PopupOnlineCl           00015180        show_on_contact (main)
           PopupOnlineString       00015374        ProcessPacket (main)
           PopupShow               0001505C        ProcessPacket (main)
           RECONNECT_TIME          00015160        Segment part 341 (main)
                                                   Segment part 535 (main)
           Reset_timer             0001503C        my_keyhook (main)
           SHOW_ACTIVE             000150C0        Segment part 463 (main)
                                                   Segment part 596 (main)
           SMILE_FILE              00015648        Segment part 16 (smiles_loader)
           SMILE_PATH              00015708        ProcessNextSmile (smiles_loader)
           SORT_CLIST              000150D8        CompareContacts (cl_work)
           ShowStatusIcon          00014F9C        Segment part 546 (main)
           ShowTraff               0001506C        UpdateCLheader (main)
           SmBGcolor               00015170        method0 (select_smile)
           SmFontColor             00015178        RenderPage (select_smile)
           SmSelectColor           00015174        RenderPage (select_smile)
           TEMPLATES_PATH          00015688        LoadLocalCL (cl_work)
                                                   Segment part 264 (main)
                                                   Segment part 414 (main)
                                                   Segment part 598 (main)
                                                   Segment part 78 (status_change)
           TIME_OR_MSG             00015064        Segment part 284 (main)
                                                   Segment part 458 (main)
           TO_COLOR                000150F0        Segment part 390 (main)
                                                   Segment part 614 (main)
           UIN                     000150B8        Draw5 (screen_save)
                                                   FindContactByNS (cl_work)
                                                   Segment part 221 (main)
                                                   Segment part 32 (history)
                                                   Segment part 354 (main)
                                                   Segment part 509 (main)
                                                   Segment part 554 (main)
                                                   Segment part 640 (main)
                                                   ab (auth)
           UNACK_COLOR             00015120        Segment part 392 (main)
                                                   Segment part 615 (main)
           VIBR_ON_CONNECT         000150BC        Segment part 455 (main)
                                                   Segment part 540 (main)
           VIBR_TYPE               000150C4        CheckComand2 (addon)
                                                   Segment part 234 (main)
                                                   Segment part 462 (main)
           Vibra_cc                00015098        Remind_Timer2 (main)
           XSTATUSES_PATH          00015748        Segment part 27 (smiles_loader)
           X_COLOR                 000150F4        Segment part 380 (main)
                                                   Segment part 618 (main)
           addonuin                00014E74        Segment part 481 (main)
           auto_x                  00015034        DrawAutoMSG (main)
           auto_y                  00015038        DrawAutoMSG (main)
           automsgcount            00015028        Segment part 366 (main)
                                                   Segment part 439 (main)
                                                   Segment part 461 (main)
           awayHelloMsg            00015250        CheckComand (main)
           awayMsg                 00015268        Segment part 206 (main)
                                                   Segment part 440 (main)
           bgrColor                0001516D        Segment part 558 (main)
           extended_sounds         00014F48        Segment part 365 (main)
                                                   Segment part 457 (main)
           fontColor               0001516C        Segment part 559 (main)
           fonto                   00014FC4        Segment part 193 (main)
                                                   Segment part 269 (main)
                                                   Segment part 561 (main)
           fontpath                00015210        Segment part 557 (main)
           ignor_list              0001539C        Segment part 364 (main)
                                                   Segment part 438 (main)
           ind_set_xstatus         00014FAC        Segment part 222 (main)
                                                   xst_onkey (status_change)
           isAutoStatusOn          00015020        away_timer (main)
                                                   st_onkey (status_change)
           isLogStatusChange       000150A0        Segment part 327 (main)
                                                   Segment part 456 (main)
           isScreenSaverEna        00015058        ScreenSaverTimer (main)
           isShowA                 00015088        UpdateCLheader (main)
           isShowBat               00015094        UpdateCLheader (main)
           isShowCont              00015070        UpdateCLheader (main)
           isShowI                 00015078        UpdateCLheader (main)
           isShowR                 00015084        UpdateCLheader (main)
           isShowS                 00015080        UpdateCLheader (main)
           isShowTime              00015090        UpdateCLheader (main)
           isShowTmXs              0001508C        UpdateCLheader (main)
           isShowUnread            00015074        UpdateCLheader (main)
           isShowV                 0001507C        UpdateCLheader (main)
           isVolDownButton         00014F64        contactlist_menu_onkey (main)
           isVolUpButton           00014F60        contactlist_menu_onkey (main)
           longAct_0               00014F68        LongPressAction (main)
           longAct_1               00014F6C        LongPressAction (main)
           longAct_10              00014F90        LongPressAction (main)
           longAct_11              00014F94        LongPressAction (main)
           longAct_2               00014F70        LongPressAction (main)
           longAct_3               00014F74        LongPressAction (main)
           longAct_4               00014F78        LongPressAction (main)
           longAct_5               00014F7C        LongPressAction (main)
           longAct_6               00014F80        LongPressAction (main)
           longAct_7               00014F84        LongPressAction (main)
           longAct_8               00014F88        LongPressAction (main)
           longAct_9               00014F8C        LongPressAction (main)
           longAct_RB              00014F98        LongPressAction (main)
           main_lenght             00014FD4        AddToMain (main)
           main_msg_timer          00014FD0        ProcessPacket (main)
           msg_d_x                 00014FC8        maincsm_onmessage (main)
           msg_d_y                 00014FCC        maincsm_onmessage (main)
           onlineTime_x            00014FE4        DrawOnlineTime (main)
           onlineTime_y            00014FE8        DrawOnlineTime (main)
           online_x                0001500C        maincsm_onmessage (main)
           online_y                00015010        maincsm_onmessage (main)
           ping_time_config        00014FF8        get_answer (main)
           pingsnd                 000151D0        get_answer (main)
           playing                 00015380        set_my_xstatus2 (main)
           screenSaverTime         00015054        ScreenSaverTimer (main)
           showAwayIdle            00015030        Segment part 191 (main)
                                                   Segment part 532 (main)
           show_add_state          00014FBC        addIconBar (main)
           show_add_xstate         00014FC0        addIconBar (main)
           show_send_info          0001509C        CheckComand (main)
           show_xstatus            00014FA0        maincsm_onmessage (main)
           sndGlobal               00015548        ProcessPacket (main)
           sndGlobal2              00015588        ProcessPacket (main)
           sndMsg                  000155C8        get_answer (main)
           sndMsg2                 00015190        get_answer (main)
           sndMsgSent              00015608        get_answer (main)
           sndSrvMsg               00015508        ProcessPacket (main)
           sndStartup              000154C8        get_answer (main)
           sndVolume               00015158        Play (main)
           spaco1                  00014FDC        Segment part 192 (main)
                                                   Segment part 533 (main)
           spaco2                  00014FE0        maincsm_onmessage (main)
           status_1                00015040        AutoChangeStatus_timer (main)
           status_2                00015044        AutoChangeStatus_timer (main)
           status_3                00015048        AutoChangeStatus_timer (main)
           status_4                0001504C        AutoChangeStatus_timer (main)
           status_5                00015050        AutoChangeStatus_timer (main)
           suc_config_name         00015848        EditConfig (mainmenu)
                                                   Segment part 312 (main)
                                                   Segment part 555 (main)
           suc_config_name_mod     00015888        EditConfigMod (mainmenu)
                                                   Segment part 313 (main)
                                                   Segment part 534 (main)
           temp_chars              00015164 
           temp_lines              00015168 
           time_zone               0001502C        init_time_zone (main)
           tm_status_1             00014F14        AutoChangeStatus_timer (main)
           tm_status_2             00014F1C        AutoChangeStatus_timer (main)
           tm_status_3             00014F24        AutoChangeStatus_timer (main)
           tm_status_4             00014F2C        AutoChangeStatus_timer (main)
           tm_status_5             00014F34        AutoChangeStatus_timer (main)
           unread_X                00015000        maincsm_onmessage (main)
           unread_Y                00015004        maincsm_onmessage (main)
           use_cutter              00014FD8        AddToMain (main)
           vibraPower              000150E0        Segment part 231 (main)
    -------------------------------------------------------------------------
CODE
  Relative segment, address: CODE_AREA 0000212C - 00002163 (0x38 bytes), align: 2
  Segment part 10.            Intra module refs:   LoadUIN
           ENTRY                   ADDRESS         REF BY
           =====                   =======         ======
           FreeUINS                0000212C 
               stack 1 = 00000000 ( 00000008 )
    -------------------------------------------------------------------------
CODE
  Relative segment, address: CODE_AREA 00002164 - 000022A3 (0x140 bytes), align: 2
  Segment part 12.            Intra module refs:   ParseUINS
           ENTRY                   ADDRESS         REF BY
           =====                   =======         ======
           LoadUIN                 00002164 
               stack 1 = 00000000 ( 0000014C )
    -------------------------------------------------------------------------
CODE
  Relative segment, address: CODE_AREA 000022A4 - 00002387 (0xe4 bytes), align: 2
  Segment part 14.
           ENTRY                   ADDRESS         REF BY
           =====                   =======         ======
           ParseUINS               000022A4        DrawList (main)
                                                   maincsm_oncreate (main)
               stack 1 = 00000000 ( 00000024 )
    -------------------------------------------------------------------------
CODE
  Relative segment, address: CODE_AREA 00002388 - 0000238B (0x4 bytes), align: 2
  Segment part 15.            Intra module refs:   FreeUINS
                                                   LoadUIN
                                                   ParseUINS
    -------------------------------------------------------------------------
DATA_ID
  Relative segment, address: CODE_AREA 000002AC - 000002AE (0x3 bytes), align: 0
  Segment part 6.             Intra module refs:   per_s
    -------------------------------------------------------------------------
INITTAB
  Relative segment, address: CODE_AREA 00014E60 - 00014E6B (0xc bytes), align: 2
  Segment part 21. ROOT.
           ENTRY                   ADDRESS         REF BY
           =====                   =======         ======
           ?init?tab?DATA_Z        00014E60 
    -------------------------------------------------------------------------
DATA_C
  Relative segment, address: CODE_AREA 00012A28 - 00012ADF (0xb8 bytes), align: 2
  Segment part 2.             Intra module refs:   UpdateConfig
    -------------------------------------------------------------------------
DATA_C
  Relative segment, address: CODE_AREA 00012AE0 - 00012AEB (0xc bytes), align: 2
  Segment part 3.             Intra module refs:   LoadUIN

    *************************************************************************

  FILE NAME : D:\pasha\elf\_MY_PROJECT_\naticq_mod\Release\Obj\func.r79
  PROGRAM MODULE, NAME : func

Absolute parts
           ENTRY                   ADDRESS         REF BY
           =====                   =======         ======
           PickingOff              AD888888 
  SEGMENTS IN THE MODULE
  ======================
ELFBEGIN
  Relative segment, address: CODE_AREA 00000000, align: 0
  Segment part 0. ROOT.
           ENTRY                   ADDRESS         REF BY
           =====                   =======         ======
           ELF_BEGIN               00000000        ElfKiller (main)
    -------------------------------------------------------------------------
CODE
  Relative segment, address: CODE_AREA 0000238C - 0000238F (0x4 bytes), align: 2
  Segment part 1. ROOT.
           ENTRY                   ADDRESS         REF BY
           =====                   =======         ======
           kill_data               0000238C        ElfKiller (main)
                                                   Segment part 13 (main)
                                                   Segment part 17 (screen_save)
                                                   Segment part 2 (select_smile)

    *************************************************************************

  FILE NAME : D:\pasha\elf\_MY_PROJECT_\naticq_mod\Release\Obj\history.r79
  PROGRAM MODULE, NAME : history

  SEGMENTS IN THE MODULE
  ======================
CODE
  Relative segment, address: CODE_AREA 00002390 - 000024F3 (0x164 bytes), align: 2
  Segment part 15.            Intra module refs:   Add2History
           LOCAL                   ADDRESS         
           =====                   =======         
           do_logwrite             00002390 
               stack 1 = 00000000 ( 0000014C )
    -------------------------------------------------------------------------
CODE
  Relative segment, address: CODE_AREA 000024F4 - 0000258B (0x98 bytes), align: 2
  Segment part 17.            Intra module refs:   LogStatusChange
           ENTRY                   ADDRESS         REF BY
           =====                   =======         ======
           Add2History             000024F4        AddStringToLog (main)
               stack 1 = 00000000 ( 0000001C )
    -------------------------------------------------------------------------
CODE
  Relative segment, address: CODE_AREA 0000258C - 000025CB (0x40 bytes), align: 2
  Segment part 19.            Intra module refs:   AddFirstLOGQ
           ENTRY                   ADDRESS         REF BY
           =====                   =======         ======
           ActivateLastX           0000258C 
    -------------------------------------------------------------------------
CODE
  Relative segment, address: CODE_AREA 000025CC - 0000260B (0x40 bytes), align: 2
  Segment part 21.            Intra module refs:   GetHistory
           ENTRY                   ADDRESS         REF BY
           =====                   =======         ======
           AddFirstLOGQ            000025CC 
               stack 1 = 00000000 ( 00000004 )
    -------------------------------------------------------------------------
CODE
  Relative segment, address: CODE_AREA 0000260C - 00002633 (0x28 bytes), align: 2
  Segment part 23.            Intra module refs:   CheckLOGQ
           ENTRY                   ADDRESS         REF BY
           =====                   =======         ======
           DeleteLOGQ              0000260C 
               stack 1 = 00000000 ( 00000008 )
    -------------------------------------------------------------------------
CODE
  Relative segment, address: CODE_AREA 00002634 - 0000269B (0x68 bytes), align: 2
  Segment part 25.            Intra module refs:   GetHistory
           ENTRY                   ADDRESS         REF BY
           =====                   =======         ======
           CheckLOGQ               00002634 
               stack 1 = 00000000 ( 00000008 )
    -------------------------------------------------------------------------
CODE
  Relative segment, address: CODE_AREA 0000269C - 0000294B (0x2b0 bytes), align: 2
  Segment part 27.
           ENTRY                   ADDRESS         REF BY
           =====                   =======         ======
           GetHistory              0000269C        AddStringToLog (main)
                                                   ProcessPacket (main)
                                                   contactlist_menu_onkey (main)
               stack 1 = 00000000 ( 000000C4 )
    -------------------------------------------------------------------------
CODE
  Relative segment, address: CODE_AREA 0000294C - 0000294F (0x4 bytes), align: 2
  Segment part 28.            Intra module refs:   GetHistory
                                                   do_logwrite
    -------------------------------------------------------------------------
CODE
  Relative segment, address: CODE_AREA 00002950 - 00002953 (0x4 bytes), align: 2
  Segment part 29.            Intra module refs:   GetHistory
                                                   do_logwrite
    -------------------------------------------------------------------------
CODE
  Relative segment, address: CODE_AREA 00002954 - 00002957 (0x4 bytes), align: 2
  Segment part 30.            Intra module refs:   GetHistory
                                                   do_logwrite
    -------------------------------------------------------------------------
CODE
  Relative segment, address: CODE_AREA 00002958 - 0000295B (0x4 bytes), align: 2
  Segment part 31.            Intra module refs:   GetHistory
                                                   do_logwrite
    -------------------------------------------------------------------------
CODE
  Relative segment, address: CODE_AREA 0000295C - 0000295F (0x4 bytes), align: 2
  Segment part 32.            Intra module refs:   GetHistory
                                                   do_logwrite
    -------------------------------------------------------------------------
CODE
  Relative segment, address: CODE_AREA 00002960 - 000029E7 (0x88 bytes), align: 2
  Segment part 34.            Intra module refs:   LogStatusChange
           ENTRY                   ADDRESS         REF BY
           =====                   =======         ======
           GetStatusById           00002960 
               stack 1 = 00000000 ( 00000004 )
    -------------------------------------------------------------------------
CODE
  Relative segment, address: CODE_AREA 000029E8 - 00002AB3 (0xcc bytes), align: 2
  Segment part 36.
           ENTRY                   ADDRESS         REF BY
           =====                   =======         ======
           LogStatusChange         000029E8        ProcessPacket (main)
               stack 1 = 00000000 ( 000000FC )
    -------------------------------------------------------------------------
DATA_C
  Relative segment, address: CODE_AREA 00012AEC - 00012B67 (0x7c bytes), align: 2
  Segment part 2.             Intra module refs:   Segment part 28
    -------------------------------------------------------------------------
DATA_C
  Relative segment, address: CODE_AREA 00012B68 - 00012B83 (0x1c bytes), align: 2
  Segment part 4.             Intra module refs:   Add2History
    -------------------------------------------------------------------------
DATA_C
  Relative segment, address: CODE_AREA 00012B84 - 00012BB3 (0x30 bytes), align: 2
  Segment part 7.             Intra module refs:   GetStatusById
    -------------------------------------------------------------------------
DATA_C
  Relative segment, address: CODE_AREA 00012BB4 - 00012BC7 (0x14 bytes), align: 2
  Segment part 11.            Intra module refs:   LogStatusChange
    -------------------------------------------------------------------------
DATA_C
  Relative segment, address: CODE_AREA 00012BC8 - 00012BE3 (0x1c bytes), align: 2
  Segment part 12.            Intra module refs:   LogStatusChange

    *************************************************************************

  FILE NAME : D:\pasha\elf\_MY_PROJECT_\naticq_mod\Release\Obj\main.r79
  PROGRAM MODULE, NAME : main

  SEGMENTS IN THE MODULE
  ======================
CODE
  Relative segment, address: CODE_AREA 00002AB4 - 00002AE3 (0x30 bytes), align: 2
  Segment part 155.           Intra module refs:   CreateContactMenu
                                                   CreateEditChat
                                                   DispCmdMenu
                                                   InputAwayMsg
                                                   create_contactlist_menu
                                                   ec_menu
           ENTRY                   ADDRESS         REF BY
           =====                   =======         ======
           patch_header            00002AB4 
               stack 1 = 00000000 ( 00000008 )
    -------------------------------------------------------------------------
CODE
  Relative segment, address: CODE_AREA 00002AE4 - 00002B73 (0x90 bytes), align: 2
  Segment part 157.           Intra module refs:   Segment part 158
                                                   Segment part 562
           ENTRY                   ADDRESS         REF BY
           =====                   =======         ======
           Pinger2                 00002AE4 
               stack 1 = 00000000 ( 00000010 )
    -------------------------------------------------------------------------
CODE
  Relative segment, address: CODE_AREA 00002B74 - 00002B77 (0x4 bytes), align: 2
  Segment part 158.           Intra module refs:   Pinger2
    -------------------------------------------------------------------------
CODE
  Relative segment, address: CODE_AREA 00002B78 - 00002B7B (0x4 bytes), align: 2
  Segment part 159.           Intra module refs:   Pinger2
    -------------------------------------------------------------------------
CODE
  Relative segment, address: CODE_AREA 00002B7C - 00002BAB (0x30 bytes), align: 2
  Segment part 161.           Intra module refs:   SendAnswer
                                                   create_connect
                                                   get_answer
                                                   maincsm_onmessage
           ENTRY                   ADDRESS         REF BY
           =====                   =======         ======
           SMART_REDRAW            00002B7C 
               stack 1 = 00000000 ( 00000008 )
    -------------------------------------------------------------------------
CODE
  Relative segment, address: CODE_AREA 00002BAC - 00002C2F (0x84 bytes), align: 2
  Segment part 163.           Intra module refs:   main
           ENTRY                   ADDRESS         REF BY
           =====                   =======         ======
           ScreenSaverTimer        00002BAC 
               stack 1 = 00000000 ( 00000010 )
    -------------------------------------------------------------------------
CODE
  Relative segment, address: CODE_AREA 00002C30 - 00002C53 (0x24 bytes), align: 2
  Segment part 165.           Intra module refs:   ProcessPacket
           ENTRY                   ADDRESS         REF BY
           =====                   =======         ======
           FreeXText2              00002C30 
               stack 1 = 00000000 ( 00000008 )
    -------------------------------------------------------------------------
CODE
  Relative segment, address: CODE_AREA 00002C54 - 00002DFF (0x1ac bytes), align: 2
  Segment part 167.           Intra module refs:   input_awaymsg_onkey
                                                   main
           ENTRY                   ADDRESS         REF BY
           =====                   =======         ======
           away_timer              00002C54        AutoAwayMSG (mainmenu)
                                                   st_onkey (status_change)
               stack 1 = 00000000 ( 00000034 )
    -------------------------------------------------------------------------
CODE
  Relative segment, address: CODE_AREA 00002E00 - 00002E03 (0x4 bytes), align: 2
  Segment part 168.           Intra module refs:   away_timer
    -------------------------------------------------------------------------
CODE
  Relative segment, address: CODE_AREA 00002E04 - 00002E07 (0x4 bytes), align: 2
  Segment part 169.           Intra module refs:   away_timer
    -------------------------------------------------------------------------
CODE
  Relative segment, address: CODE_AREA 00002E08 - 00002F6B (0x164 bytes), align: 2
  Segment part 171.           Intra module refs:   main
                                                   maincsm_onmessage
           ENTRY                   ADDRESS         REF BY
           =====                   =======         ======
           init_time_zone          00002E08 
               stack 1 = 00000000 ( 00000004 )
    -------------------------------------------------------------------------
CODE
  Relative segment, address: CODE_AREA 00002F6C - 0000339B (0x430 bytes), align: 2
  Segment part 173.           Intra module refs:   main
           ENTRY                   ADDRESS         REF BY
           =====                   =======         ======
           AutoChangeStatus_timer
                                   00002F6C 
               stack 1 = 00000000 ( 00000014 )
    -------------------------------------------------------------------------
CODE
  Relative segment, address: CODE_AREA 0000339C - 000033E7 (0x4c bytes), align: 2
  Segment part 175.           Intra module refs:   maincsm_onmessage
           ENTRY                   ADDRESS         REF BY
           =====                   =======         ======
           DrawPing                0000339C 
               stack 1 = 00000000 ( 0000000C )
    -------------------------------------------------------------------------
CODE
  Relative segment, address: CODE_AREA 000033E8 - 0000342B (0x44 bytes), align: 2
  Segment part 177.           Intra module refs:   Segment part 180
           ENTRY                   ADDRESS         REF BY
           =====                   =======         ======
           Remind_Timer2           000033E8 
               stack 1 = 00000000 ( 00000008 )
    -------------------------------------------------------------------------
CODE
  Relative segment, address: CODE_AREA 0000342C - 0000344B (0x20 bytes), align: 2
  Segment part 179.           Intra module refs:   ProcessPacket
           ENTRY                   ADDRESS         REF BY
           =====                   =======         ======
           Reminder_timer          0000342C 
               stack 1 = 00000000 ( 00000004 )
    -------------------------------------------------------------------------
CODE
  Relative segment, address: CODE_AREA 0000344C - 0000344F (0x4 bytes), align: 2
  Segment part 180.           Intra module refs:   Remind_Timer2
                                                   Reminder_timer
    -------------------------------------------------------------------------
CODE
  Relative segment, address: CODE_AREA 00003450 - 0000348F (0x40 bytes), align: 2
  Segment part 182.           Intra module refs:   upTime
           ENTRY                   ADDRESS         REF BY
           =====                   =======         ======
           UptimeMinHour           00003450 
    -------------------------------------------------------------------------
CODE
  Relative segment, address: CODE_AREA 00003490 - 0000352F (0xa0 bytes), align: 2
  Segment part 184.           Intra module refs:   main
           ENTRY                   ADDRESS         REF BY
           =====                   =======         ======
           upTime                  00003490 
               stack 1 = 00000000 ( 00000014 )
    -------------------------------------------------------------------------
CODE
  Relative segment, address: CODE_AREA 00003530 - 00003533 (0x4 bytes), align: 2
  Segment part 185.           Intra module refs:   upTime
    -------------------------------------------------------------------------
CODE
  Relative segment, address: CODE_AREA 00003534 - 00003537 (0x4 bytes), align: 2
  Segment part 186.           Intra module refs:   upTime
    -------------------------------------------------------------------------
CODE
  Relative segment, address: CODE_AREA 00003538 - 000035CF (0x98 bytes), align: 2
  Segment part 188.           Intra module refs:   maincsm_onmessage
           ENTRY                   ADDRESS         REF BY
           =====                   =======         ======
           DrawOnlineTime          00003538 
               stack 1 = 00000000 ( 00000014 )
    -------------------------------------------------------------------------
CODE
  Relative segment, address: CODE_AREA 000035D0 - 0000365F (0x90 bytes), align: 2
  Segment part 190.           Intra module refs:   maincsm_onmessage
           ENTRY                   ADDRESS         REF BY
           =====                   =======         ======
           DrawAutoMSG             000035D0 
               stack 1 = 00000000 ( 0000004C )
    -------------------------------------------------------------------------
CODE
  Relative segment, address: CODE_AREA 00003660 - 00003663 (0x4 bytes), align: 2
  Segment part 191.           Intra module refs:   DrawAutoMSG
    -------------------------------------------------------------------------
CODE
  Relative segment, address: CODE_AREA 00003664 - 00003667 (0x4 bytes), align: 2
  Segment part 192.           Intra module refs:   DrawAutoMSG
                                                   DrawOnlineTime
                                                   DrawPing
    -------------------------------------------------------------------------
CODE
  Relative segment, address: CODE_AREA 00003668 - 0000366B (0x4 bytes), align: 2
  Segment part 193.           Intra module refs:   DrawAutoMSG
                                                   DrawOnlineTime
                                                   DrawPing
    -------------------------------------------------------------------------
CODE
  Relative segment, address: CODE_AREA 0000366C - 0000366F (0x4 bytes), align: 2
  Segment part 194.           Intra module refs:   DrawAutoMSG
                                                   DrawPing
    -------------------------------------------------------------------------
CODE
  Relative segment, address: CODE_AREA 00003670 - 00003773 (0x104 bytes), align: 2
  Segment part 196.           Intra module refs:   Segment part 7
           ENTRY                   ADDRESS         REF BY
           =====                   =======         ======
           input_awaymsg_onkey     00003670 
               stack 1 = 00000000 ( 0000004C )
    -------------------------------------------------------------------------
CODE
  Relative segment, address: CODE_AREA 00003774 - 00003777 (0x4 bytes), align: 2
  Segment part 197.           Intra module refs:   AutoChangeStatus_timer
                                                   DrawAutoMSG
                                                   DrawOnlineTime
                                                   Pinger2
                                                   Remind_Timer2
                                                   ScreenSaverTimer
                                                   UptimeMinHour
                                                   away_timer
                                                   input_awaymsg_onkey
                                                   upTime
    -------------------------------------------------------------------------
CODE
  Relative segment, address: CODE_AREA 00003778 - 0000377B (0x4 bytes), align: 2
  Segment part 198.           Intra module refs:   DrawOnlineTime
                                                   away_timer
                                                   input_awaymsg_onkey
    -------------------------------------------------------------------------
CODE
  Relative segment, address: CODE_AREA 0000377C - 0000377F (0x4 bytes), align: 2
  Segment part 199.           Intra module refs:   away_timer
                                                   input_awaymsg_onkey
    -------------------------------------------------------------------------
CODE
  Relative segment, address: CODE_AREA 00003780 - 000037C3 (0x44 bytes), align: 2
  Segment part 201.           Intra module refs:   Segment part 7
           ENTRY                   ADDRESS         REF BY
           =====                   =======         ======
           input_awaymsg_ghook     00003780 
               stack 1 = 00000000 ( 00000004 )
    -------------------------------------------------------------------------
CODE
  Relative segment, address: CODE_AREA 000037C4 - 000037C7 (0x4 bytes), align: 2
  Segment part 203.           Intra module refs:   Segment part 7
           ENTRY                   ADDRESS         REF BY
           =====                   =======         ======
           input_awaymsg_locret    000037C4 
    -------------------------------------------------------------------------
DATA_C
  Relative segment, address: CODE_AREA 00012BE4 - 00012D6F (0x18c bytes), align: 2
  Segment part 2.             Intra module refs:   init_time_zone
    -------------------------------------------------------------------------
DATA_C
  Relative segment, address: CODE_AREA 00012D70 - 00012D8F (0x20 bytes), align: 2
  Segment part 3.             Intra module refs:   DrawOnlineTime
    -------------------------------------------------------------------------
DATA_C
  Relative segment, address: CODE_AREA 00012D90 - 00012D9F (0x10 bytes), align: 2
  Segment part 4.             Intra module refs:   DrawAutoMSG
    -------------------------------------------------------------------------
DATA_C
  Relative segment, address: CODE_AREA 00012DA0 - 00012DAB (0xc bytes), align: 2
  Segment part 5.             Intra module refs:   Segment part 112
    -------------------------------------------------------------------------
DATA_C
  Relative segment, address: CODE_AREA 00012DAC - 00012E03 (0x58 bytes), align: 2
  Segment part 7.             Intra module refs:   InputAwayMsg
           ENTRY                   ADDRESS         REF BY
           =====                   =======         ======
           input_awaymsg_desc      00012DAC 
           input_awaymsg_hdr       00012DF0 
    -------------------------------------------------------------------------
DATA_C
  Relative segment, address: CODE_AREA 00012E04 - 00012E13 (0x10 bytes), align: 2
  Segment part 10.            Intra module refs:   LoadTemplates
    -------------------------------------------------------------------------
DATA_C
  Relative segment, address: CODE_AREA 00012E14 - 00012E4F (0x3c bytes), align: 2
  Segment part 11.            Intra module refs:   CreateCLFile
    -------------------------------------------------------------------------
DATA_C
  Relative segment, address: CODE_AREA 00012E50 - 00012E5B (0xc bytes), align: 2
  Segment part 12.            Intra module refs:   new_redraw
    -------------------------------------------------------------------------
CODE
  Relative segment, address: CODE_AREA 000037C8 - 00003903 (0x13c bytes), align: 2
  Segment part 205.           Intra module refs:   LongPressActionOnChat
                                                   contactlist_menu_onkey
           ENTRY                   ADDRESS         REF BY
           =====                   =======         ======
           InputAwayMsg            000037C8 
               stack 1 = 00000000 ( 0000004C )
    -------------------------------------------------------------------------
CODE
  Relative segment, address: CODE_AREA 00003904 - 00003907 (0x4 bytes), align: 2
  Segment part 206.           Intra module refs:   InputAwayMsg
                                                   input_awaymsg_onkey
    -------------------------------------------------------------------------
CODE
  Relative segment, address: CODE_AREA 00003908 - 0000394B (0x44 bytes), align: 2
  Segment part 208.           Intra module refs:   main
                                                   maincsm_onmessage
           ENTRY                   ADDRESS         REF BY
           =====                   =======         ======
           setup_ICONS             00003908 
               stack 1 = 00000000 ( 0000000C )
    -------------------------------------------------------------------------
CODE
  Relative segment, address: CODE_AREA 0000394C - 00003977 (0x2c bytes), align: 2
  Segment part 210.           Intra module refs:   maincsm_onclose
                                                   maincsm_onmessage
           ENTRY                   ADDRESS         REF BY
           =====                   =======         ======
           free_ICONS              0000394C 
               stack 1 = 00000000 ( 00000010 )
    -------------------------------------------------------------------------
CODE
  Relative segment, address: CODE_AREA 00003978 - 0000397B (0x4 bytes), align: 2
  Segment part 211.           Intra module refs:   free_ICONS
                                                   setup_ICONS
    -------------------------------------------------------------------------
CODE
  Relative segment, address: CODE_AREA 0000397C - 000039B3 (0x38 bytes), align: 2
  Segment part 213.           Intra module refs:   IlluminationOn
           ENTRY                   ADDRESS         REF BY
           =====                   =======         ======
           IlluminationOff         0000397C 
               stack 1 = 00000000 ( 00000008 )
    -------------------------------------------------------------------------
CODE
  Relative segment, address: CODE_AREA 000039B4 - 00003A2B (0x78 bytes), align: 2
  Segment part 215.           Intra module refs:   ProcessPacket
           ENTRY                   ADDRESS         REF BY
           =====                   =======         ======
           IlluminationOn          000039B4 
               stack 1 = 00000000 ( 00000018 )
    -------------------------------------------------------------------------
CODE
  Relative segment, address: CODE_AREA 00003A2C - 00003C8F (0x264 bytes), align: 2
  Segment part 217.           Intra module refs:   Enter
                                                   main
           ENTRY                   ADDRESS         REF BY
           =====                   =======         ======
           ReadDefSettings         00003A2C 
               stack 1 = 00000000 ( 000000B4 )
    -------------------------------------------------------------------------
CODE
  Relative segment, address: CODE_AREA 00003C90 - 00003EF7 (0x268 bytes), align: 2
  Segment part 219.           Intra module refs:   Segment part 308
                                                   Segment part 499
                                                   maincsm_onclose
           ENTRY                   ADDRESS         REF BY
           =====                   =======         ======
           WriteDefSettings        00003C90        Segment part 64 (status_change)
                                                   Segment part 78 (mainmenu)
               stack 1 = 00000000 ( 000000B0 )
    -------------------------------------------------------------------------
CODE
  Relative segment, address: CODE_AREA 00003EF8 - 00003EFB (0x4 bytes), align: 2
  Segment part 220.           Intra module refs:   ReadDefSettings
                                                   WriteDefSettings
    -------------------------------------------------------------------------
CODE
  Relative segment, address: CODE_AREA 00003EFC - 00003EFF (0x4 bytes), align: 2
  Segment part 221.           Intra module refs:   ReadDefSettings
                                                   WriteDefSettings
    -------------------------------------------------------------------------
CODE
  Relative segment, address: CODE_AREA 00003F00 - 00003F03 (0x4 bytes), align: 2
  Segment part 222.           Intra module refs:   ReadDefSettings
                                                   WriteDefSettings
    -------------------------------------------------------------------------
CODE
  Relative segment, address: CODE_AREA 00003F04 - 00004033 (0x130 bytes), align: 2
  Segment part 224.           Intra module refs:   ProcessPacket
                                                   get_answer
           ENTRY                   ADDRESS         REF BY
           =====                   =======         ======
           Play                    00003F04 
               stack 1 = 00000000 ( 000000EC )
    -------------------------------------------------------------------------
CODE
  Relative segment, address: CODE_AREA 00004034 - 00004097 (0x64 bytes), align: 2
  Segment part 226.           Intra module refs:   ProcessPacket
                                                   maincsm_onmessage
                                                   stop_vibra
           ENTRY                   ADDRESS         REF BY
           =====                   =======         ======
           start_vibra             00004034        CheckComand2 (addon)
               stack 1 = 00000000 ( 00000008 )
    -------------------------------------------------------------------------
CODE
  Relative segment, address: CODE_AREA 00004098 - 000040EF (0x58 bytes), align: 2
  Segment part 228.           Intra module refs:   start_vibra
           ENTRY                   ADDRESS         REF BY
           =====                   =======         ======
           stop_vibra              00004098 
               stack 1 = 00000000 ( 00000004 )
    -------------------------------------------------------------------------
CODE
  Relative segment, address: CODE_AREA 000040F0 - 0000412B (0x3c bytes), align: 2
  Segment part 230.           Intra module refs:   Remind_Timer2
                                                   stop_vibra2
           ENTRY                   ADDRESS         REF BY
           =====                   =======         ======
           start_vibra2            000040F0 
               stack 1 = 00000000 ( 00000004 )
    -------------------------------------------------------------------------
CODE
  Relative segment, address: CODE_AREA 0000412C - 0000412F (0x4 bytes), align: 2
  Segment part 231.           Intra module refs:   start_vibra
                                                   start_vibra2
    -------------------------------------------------------------------------
CODE
  Relative segment, address: CODE_AREA 00004130 - 00004187 (0x58 bytes), align: 2
  Segment part 233.           Intra module refs:   start_vibra2
           ENTRY                   ADDRESS         REF BY
           =====                   =======         ======
           stop_vibra2             00004130 
               stack 1 = 00000000 ( 00000004 )
    -------------------------------------------------------------------------
CODE
  Relative segment, address: CODE_AREA 00004188 - 0000418B (0x4 bytes), align: 2
  Segment part 234.           Intra module refs:   start_vibra
                                                   start_vibra2
                                                   stop_vibra
                                                   stop_vibra2
    -------------------------------------------------------------------------
CODE
  Relative segment, address: CODE_AREA 0000418C - 000041C3 (0x38 bytes), align: 2
  Segment part 240.           Intra module refs:   LoadTemplates
                                                   maincsm_onclose
           ENTRY                   ADDRESS         REF BY
           =====                   =======         ======
           FreeTemplates           0000418C 
               stack 1 = 00000000 ( 00000008 )
    -------------------------------------------------------------------------
CODE
  Relative segment, address: CODE_AREA 000041C4 - 0000434F (0x18c bytes), align: 2
  Segment part 242.           Intra module refs:   edchat_onkey
           ENTRY                   ADDRESS         REF BY
           =====                   =======         ======
           LoadTemplates           000041C4 
               stack 1 = 00000000 ( 0000014C )
    -------------------------------------------------------------------------
CODE
  Relative segment, address: CODE_AREA 00004350 - 0000436B (0x1c bytes), align: 2
  Segment part 244.           Intra module refs:   Segment part 514
                                                   Segment part 556
           ENTRY                   ADDRESS         REF BY
           =====                   =======         ======
           ElfKiller               00004350        CheckComand2 (addon)
               stack 1 = 00000000 ( 00000004 )
    -------------------------------------------------------------------------
CODE
  Relative segment, address: CODE_AREA 0000436C - 0000439F (0x34 bytes), align: 2
  Segment part 246.           Intra module refs:   AddStringToLog
           ENTRY                   ADDRESS         REF BY
           =====                   =======         ======
           NewLOGQ                 0000436C        GetHistory (history)
               stack 1 = 00000000 ( 0000000C )
    -------------------------------------------------------------------------
CODE
  Relative segment, address: CODE_AREA 000043A0 - 000043CF (0x30 bytes), align: 2
  Segment part 250.           Intra module refs:   ClearLog
                                                   LongPressActionOnChat
                                                   contactlist_menu_onkey
                                                   maincsm_onmessage
           ENTRY                   ADDRESS         REF BY
           =====                   =======         ======
           FreeLOGQ                000043A0        FreeCLIST (cl_work)
               stack 1 = 00000000 ( 00000008 )
    -------------------------------------------------------------------------
CODE
  Relative segment, address: CODE_AREA 000043D0 - 00004403 (0x34 bytes), align: 2
  Segment part 252.           Intra module refs:   AddStringToLog
           ENTRY                   ADDRESS         REF BY
           =====                   =======         ======
           RemoveLOGQ              000043D0 
               stack 1 = 00000000 ( 00000004 )
    -------------------------------------------------------------------------
CODE
  Relative segment, address: CODE_AREA 00004404 - 0000442F (0x2c bytes), align: 2
  Segment part 254.           Intra module refs:   AddStringToLog
           ENTRY                   ADDRESS         REF BY
           =====                   =======         ======
           AddLOGQ                 00004404        GetHistory (history)
    -------------------------------------------------------------------------
CODE
  Relative segment, address: CODE_AREA 00004430 - 00004477 (0x48 bytes), align: 2
  Segment part 256.           Intra module refs:   AddStringToLog
           ENTRY                   ADDRESS         REF BY
           =====                   =======         ======
           GetLastXTextLOGQ        00004430 
    -------------------------------------------------------------------------
CODE
  Relative segment, address: CODE_AREA 00004478 - 0000455B (0xe4 bytes), align: 2
  Segment part 258.           Intra module refs:   ProcessPacket
                                                   addIconBar
                                                   contactlist_menu_iconhndl
                                                   my_ed_redraw
           ENTRY                   ADDRESS         REF BY
           =====                   =======         ======
           GetIconIndex            00004478        CheckComand2 (addon)
                                                   CompareContacts (cl_work)
                                                   FindContactByNS (cl_work)
    -------------------------------------------------------------------------
CODE
  Relative segment, address: CODE_AREA 0000455C - 000045B3 (0x58 bytes), align: 2
  Segment part 260.           Intra module refs:   ProcessPacket
                                                   get_answer
           ENTRY                   ADDRESS         REF BY
           =====                   =======         ======
           FindContactLOGQByAck    0000455C 
               stack 1 = 00000000 ( 0000000C )
    -------------------------------------------------------------------------
CODE
  Relative segment, address: CODE_AREA 000045B4 - 0000469F (0xec bytes), align: 2
  Segment part 262.
           ENTRY                   ADDRESS         REF BY
           =====                   =======         ======
           CreateCLFile            000045B4        SaveCL (mainmenu)
               stack 1 = 00000000 ( 00000118 )
    -------------------------------------------------------------------------
CODE
  Relative segment, address: CODE_AREA 000046A0 - 000046A3 (0x4 bytes), align: 2
  Segment part 263.           Intra module refs:   CreateCLFile
    -------------------------------------------------------------------------
CODE
  Relative segment, address: CODE_AREA 000046A4 - 000046A7 (0x4 bytes), align: 2
  Segment part 264.           Intra module refs:   CreateCLFile
                                                   LoadTemplates
    -------------------------------------------------------------------------
CODE
  Relative segment, address: CODE_AREA 000046A8 - 0000472F (0x88 bytes), align: 2
  Segment part 266.           Intra module refs:   contactlist_menu_ghook
           ENTRY                   ADDRESS         REF BY
           =====                   =======         ======
           new_redraw              000046A8 
               stack 1 = 00000000 ( 00000064 )
    -------------------------------------------------------------------------
CODE
  Relative segment, address: CODE_AREA 00004730 - 00004733 (0x4 bytes), align: 2
  Segment part 267.           Intra module refs:   FreeTemplates
                                                   LoadTemplates
                                                   ReadDefSettings
                                                   WriteDefSettings
                                                   new_redraw
                                                   start_vibra
                                                   stop_vibra
                                                   stop_vibra2
    -------------------------------------------------------------------------
CODE
  Relative segment, address: CODE_AREA 00004734 - 00004737 (0x4 bytes), align: 2
  Segment part 268.           Intra module refs:   new_redraw
                                                   setup_ICONS
    -------------------------------------------------------------------------
CODE
  Relative segment, address: CODE_AREA 00004738 - 0000473B (0x4 bytes), align: 2
  Segment part 269.           Intra module refs:   new_redraw
    -------------------------------------------------------------------------
CODE
  Relative segment, address: CODE_AREA 0000473C - 00004CF7 (0x5bc bytes), align: 2
  Segment part 271.           Intra module refs:   LongPressActionOnChat
                                                   ProcessPacket
                                                   RecountMenu
                                                   WriteDefSettings
                                                   contactlist_menu_onkey
                                                   create_contactlist_menu
                                                   input_awaymsg_onkey
                                                   maincsm_onmessage
           ENTRY                   ADDRESS         REF BY
           =====                   =======         ======
           UpdateCLheader          0000473C        AutoAwayMSG (mainmenu)
               stack 1 = 00000000 ( 000000C0 )
    -------------------------------------------------------------------------
CODE
  Relative segment, address: CODE_AREA 00004CF8 - 00004CFB (0x4 bytes), align: 2
  Segment part 272.           Intra module refs:   UpdateCLheader
    -------------------------------------------------------------------------
CODE
  Relative segment, address: CODE_AREA 00004CFC - 00004CFF (0x4 bytes), align: 2
  Segment part 273.           Intra module refs:   UpdateCLheader
    -------------------------------------------------------------------------
CODE
  Relative segment, address: CODE_AREA 00004D00 - 00004D2B (0x2c bytes), align: 2
  Segment part 277.           Intra module refs:   contactlist_menu_onkey
           ENTRY                   ADDRESS         REF BY
           =====                   =======         ======
           AddContactT9Key         00004D00 
               stack 1 = 00000000 ( 0000000C )
    -------------------------------------------------------------------------
CODE
  Relative segment, address: CODE_AREA 00004D2C - 00004D57 (0x2c bytes), align: 2
  Segment part 279.           Intra module refs:   contactlist_menu_onkey
           ENTRY                   ADDRESS         REF BY
           =====                   =======         ======
           BackSpaceContactT9      00004D2C 
               stack 1 = 00000000 ( 00000008 )
    -------------------------------------------------------------------------
CODE
  Relative segment, address: CODE_AREA 00004D58 - 00004DA3 (0x4c bytes), align: 2
  Segment part 281.           Intra module refs:   ProcessPacket
                                                   method5
           ENTRY                   ADDRESS         REF BY
           =====                   =======         ======
           create_contactlist_menu
                                   00004D58 
               stack 1 = 00000000 ( 00000018 )
    -------------------------------------------------------------------------
CODE
  Relative segment, address: CODE_AREA 00004DA4 - 00004E5F (0xbc bytes), align: 2
  Segment part 283.           Intra module refs:   Segment part 120
           ENTRY                   ADDRESS         REF BY
           =====                   =======         ======
           contactlist_menu_ghook
                                   00004DA4 
               stack 1 = 00000000 ( 00000020 )
    -------------------------------------------------------------------------
CODE
  Relative segment, address: CODE_AREA 00004E60 - 00004E63 (0x4 bytes), align: 2
  Segment part 284.           Intra module refs:   UpdateCLheader
                                                   contactlist_menu_ghook
    -------------------------------------------------------------------------
CODE
  Relative segment, address: CODE_AREA 00004E64 - 00004E67 (0x4 bytes), align: 2
  Segment part 285.           Intra module refs:   contactlist_menu_ghook
    -------------------------------------------------------------------------
CODE
  Relative segment, address: CODE_AREA 00004E68 - 00004F07 (0xa0 bytes), align: 2
  Segment part 287.           Intra module refs:   ClearLog
                                                   GetShortInfo
                                                   LongPressActionOnChat
                                                   ProcessPacket
                                                   SendAuthGrant
                                                   SendAuthReq
                                                   contactlist_menu_onkey
                                                   edchat_ghook
                                                   edchat_onkey
                                                   maincsm_onmessage
           ENTRY                   ADDRESS         REF BY
           =====                   =======         ======
           RecountMenu             00004E68        ChangeShowGroupsMode (mainmenu)
                                                   ChangeShowOfflineMode (mainmenu)
                                                   CheckComand2 (addon)
               stack 1 = 00000000 ( 00000014 )
    -------------------------------------------------------------------------
CODE
  Relative segment, address: CODE_AREA 00004F08 - 00004F33 (0x2c bytes), align: 2
  Segment part 289.           Intra module refs:   Segment part 130
           LOCAL                   ADDRESS         
           =====                   =======         
           ChangeVibraContact      00004F08 
               stack 1 = 00000000 ( 00000004 )
    -------------------------------------------------------------------------
CODE
  Relative segment, address: CODE_AREA 00004F34 - 00004F5F (0x2c bytes), align: 2
  Segment part 291.           Intra module refs:   Segment part 130
           LOCAL                   ADDRESS         
           =====                   =======         
           ChangeSoundContact      00004F34 
               stack 1 = 00000000 ( 00000004 )
    -------------------------------------------------------------------------
CODE
  Relative segment, address: CODE_AREA 00004F60 - 00004F8B (0x2c bytes), align: 2
  Segment part 293.           Intra module refs:   Segment part 130
           LOCAL                   ADDRESS         
           =====                   =======         
           ChangeAutoMsg           00004F60 
               stack 1 = 00000000 ( 00000004 )
    -------------------------------------------------------------------------
CODE
  Relative segment, address: CODE_AREA 00004F8C - 00004FB7 (0x2c bytes), align: 2
  Segment part 295.           Intra module refs:   Segment part 130
           LOCAL                   ADDRESS         
           =====                   =======         
           ChangeShowXstatus       00004F8C 
               stack 1 = 00000000 ( 00000004 )
    -------------------------------------------------------------------------
CODE
  Relative segment, address: CODE_AREA 00004FB8 - 00004FCB (0x14 bytes), align: 2
  Segment part 297.           Intra module refs:   Segment part 19
           LOCAL                   ADDRESS         
           =====                   =======         
           contact_list_ghook      00004FB8 
               stack 1 = 00000000 ( 00000004 )
    -------------------------------------------------------------------------
CODE
  Relative segment, address: CODE_AREA 00004FCC - 00005017 (0x4c bytes), align: 2
  Segment part 299.           Intra module refs:   Segment part 19
           LOCAL                   ADDRESS         
           =====                   =======         
           contact_keyhook         00004FCC 
               stack 1 = 00000000 ( 00000008 )
    -------------------------------------------------------------------------
CODE
  Relative segment, address: CODE_AREA 00005018 - 0000501B (0x4 bytes), align: 2
  Segment part 300.           Intra module refs:   ChangeAutoMsg
                                                   ChangeShowXstatus
                                                   ChangeSoundContact
                                                   ChangeVibraContact
                                                   contact_keyhook
    -------------------------------------------------------------------------
CODE
  Relative segment, address: CODE_AREA 0000501C - 000050DF (0xc4 bytes), align: 2
  Segment part 302.           Intra module refs:   Segment part 19
           LOCAL                   ADDRESS         
           =====                   =======         
           contacthandler          0000501C 
               stack 1 = 00000000 ( 0000001C )
    -------------------------------------------------------------------------
CODE
  Relative segment, address: CODE_AREA 000050E0 - 00005167 (0x88 bytes), align: 2
  Segment part 304.           Intra module refs:   LongPressActionOnChat
           ENTRY                   ADDRESS         REF BY
           =====                   =======         ======
           CreateContactMenu       000050E0 
               stack 1 = 00000000 ( 00000020 )
    -------------------------------------------------------------------------
CODE
  Relative segment, address: CODE_AREA 00005168 - 0000516B (0x4 bytes), align: 2
  Segment part 305.           Intra module refs:   CreateContactMenu
                                                   contacthandler
    -------------------------------------------------------------------------
CODE
  Relative segment, address: CODE_AREA 0000516C - 000054BB (0x350 bytes), align: 2
  Segment part 307.           Intra module refs:   LongPressAction
           ENTRY                   ADDRESS         REF BY
           =====                   =======         ======
           LongPressActionOnChat   0000516C 
               stack 1 = 00000000 ( 00000028 )
    -------------------------------------------------------------------------
CODE
  Relative segment, address: CODE_AREA 000054BC - 000054BF (0x4 bytes), align: 2
  Segment part 308.           Intra module refs:   LongPressActionOnChat
    -------------------------------------------------------------------------
CODE
  Relative segment, address: CODE_AREA 000054C0 - 000054C3 (0x4 bytes), align: 2
  Segment part 309.           Intra module refs:   LongPressActionOnChat
                                                   UpdateCLheader
                                                   contacthandler
    -------------------------------------------------------------------------
CODE
  Relative segment, address: CODE_AREA 000054C4 - 000054C7 (0x4 bytes), align: 2
  Segment part 310.           Intra module refs:   AddContactT9Key
                                                   BackSpaceContactT9
                                                   LongPressActionOnChat
                                                   RecountMenu
                                                   UpdateCLheader
                                                   contactlist_menu_ghook
                                                   create_contactlist_menu
    -------------------------------------------------------------------------
CODE
  Relative segment, address: CODE_AREA 000054C8 - 000054CB (0x4 bytes), align: 2
  Segment part 311.           Intra module refs:   LongPressActionOnChat
    -------------------------------------------------------------------------
CODE
  Relative segment, address: CODE_AREA 000054CC - 000054CF (0x4 bytes), align: 2
  Segment part 312.           Intra module refs:   LongPressActionOnChat
    -------------------------------------------------------------------------
CODE
  Relative segment, address: CODE_AREA 000054D0 - 000054D3 (0x4 bytes), align: 2
  Segment part 313.           Intra module refs:   LongPressActionOnChat
    -------------------------------------------------------------------------
CODE
  Relative segment, address: CODE_AREA 000054D4 - 000054D7 (0x4 bytes), align: 2
  Segment part 314.           Intra module refs:   LongPressActionOnChat
    -------------------------------------------------------------------------
CODE
  Relative segment, address: CODE_AREA 000054D8 - 000054DB (0x4 bytes), align: 2
  Segment part 315.           Intra module refs:   LongPressActionOnChat
    -------------------------------------------------------------------------
CODE
  Relative segment, address: CODE_AREA 000054DC - 000055C7 (0xec bytes), align: 2
  Segment part 317.           Intra module refs:   contactlist_menu_onkey
           ENTRY                   ADDRESS         REF BY
           =====                   =======         ======
           LongPressAction         000054DC 
               stack 1 = 00000000 ( 00000004 )
    -------------------------------------------------------------------------
CODE
  Relative segment, address: CODE_AREA 000055C8 - 00005A27 (0x460 bytes), align: 2
  Segment part 319.           Intra module refs:   Segment part 120
           ENTRY                   ADDRESS         REF BY
           =====                   =======         ======
           contactlist_menu_onkey
                                   000055C8 
               stack 1 = 00000000 ( 00000024 )
    -------------------------------------------------------------------------
CODE
  Relative segment, address: CODE_AREA 00005A28 - 00005A2B (0x4 bytes), align: 2
  Segment part 320.           Intra module refs:   contactlist_menu_onkey
    -------------------------------------------------------------------------
CODE
  Relative segment, address: CODE_AREA 00005A2C - 00005A2F (0x4 bytes), align: 2
  Segment part 321.           Intra module refs:   LongPressActionOnChat
                                                   contactlist_menu_ghook
                                                   contactlist_menu_onkey
    -------------------------------------------------------------------------
CODE
  Relative segment, address: CODE_AREA 00005A30 - 00005A8B (0x5c bytes), align: 2
  Segment part 323.           Intra module refs:   contactlist_menu_iconhndl
           ENTRY                   ADDRESS         REF BY
           =====                   =======         ======
           GetOnTotalContact       00005A30 
               stack 1 = 00000000 ( 00000008 )
    -------------------------------------------------------------------------
CODE
  Relative segment, address: CODE_AREA 00005A8C - 00005A8F (0x4 bytes), align: 2
  Segment part 324.           Intra module refs:   GetOnTotalContact
    -------------------------------------------------------------------------
CODE
  Relative segment, address: CODE_AREA 00005A90 - 00005D3F (0x2b0 bytes), align: 2
  Segment part 326.           Intra module refs:   Segment part 120
           ENTRY                   ADDRESS         REF BY
           =====                   =======         ======
           contactlist_menu_iconhndl
                                   00005A90 
               stack 1 = 00000000 ( 0000029C )
    -------------------------------------------------------------------------
CODE
  Relative segment, address: CODE_AREA 00005D40 - 00005D43 (0x4 bytes), align: 2
  Segment part 327.           Intra module refs:   contactlist_menu_iconhndl
    -------------------------------------------------------------------------
CODE
  Relative segment, address: CODE_AREA 00005D44 - 00005D47 (0x4 bytes), align: 2
  Segment part 328.           Intra module refs:   contactlist_menu_iconhndl
    -------------------------------------------------------------------------
CODE
  Relative segment, address: CODE_AREA 00005D48 - 00005D4B (0x4 bytes), align: 2
  Segment part 329.           Intra module refs:   contactlist_menu_iconhndl
    -------------------------------------------------------------------------
CODE
  Relative segment, address: CODE_AREA 00005D4C - 00005E0B (0xc0 bytes), align: 2
  Segment part 331.           Intra module refs:   create_connect
           ENTRY                   ADDRESS         REF BY
           =====                   =======         ======
           GetHost                 00005D4C 
    -------------------------------------------------------------------------
CODE
  Relative segment, address: CODE_AREA 00005E0C - 00005E5F (0x54 bytes), align: 2
  Segment part 333.           Intra module refs:   GetPort
           ENTRY                   ADDRESS         REF BY
           =====                   =======         ======
           atoi                    00005E0C 
               stack 1 = 00000000 ( 00000004 )
    -------------------------------------------------------------------------
CODE
  Relative segment, address: CODE_AREA 00005E60 - 00005F73 (0x114 bytes), align: 2
  Segment part 335.           Intra module refs:   create_connect
           ENTRY                   ADDRESS         REF BY
           =====                   =======         ======
           GetPort                 00005E60 
               stack 1 = 00000000 ( 00000010 )
    -------------------------------------------------------------------------
CODE
  Relative segment, address: CODE_AREA 00005F74 - 00005FEB (0x78 bytes), align: 2
  Segment part 337.           Intra module refs:   create_connect
           ENTRY                   ADDRESS         REF BY
           =====                   =======         ======
           GetHostsCount           00005F74 
    -------------------------------------------------------------------------
CODE
  Relative segment, address: CODE_AREA 00005FEC - 000062E3 (0x2f8 bytes), align: 2
  Segment part 339.           Intra module refs:   CheckDoubleRun
                                                   Segment part 517
                                                   Segment part 537
           ENTRY                   ADDRESS         REF BY
           =====                   =======         ======
           create_connect          00005FEC 
               stack 1 = 00000000 ( 00000138 )
    -------------------------------------------------------------------------
CODE
  Relative segment, address: CODE_AREA 000062E4 - 000062E7 (0x4 bytes), align: 2
  Segment part 340.           Intra module refs:   contactlist_menu_iconhndl
                                                   create_connect
    -------------------------------------------------------------------------
CODE
  Relative segment, address: CODE_AREA 000062E8 - 000062EB (0x4 bytes), align: 2
  Segment part 341.           Intra module refs:   create_connect
    -------------------------------------------------------------------------
CODE
  Relative segment, address: CODE_AREA 000062EC - 000062EF (0x4 bytes), align: 2
  Segment part 342.           Intra module refs:   create_connect
    -------------------------------------------------------------------------
CODE
  Relative segment, address: CODE_AREA 000062F0 - 0000630F (0x20 bytes), align: 2
  Segment part 344.           Intra module refs:   Segment part 541
           ENTRY                   ADDRESS         REF BY
           =====                   =======         ======
           ClearSendQ              000062F0 
               stack 1 = 00000000 ( 00000008 )
    -------------------------------------------------------------------------
CODE
  Relative segment, address: CODE_AREA 00006310 - 00006337 (0x28 bytes), align: 2
  Segment part 346.           Intra module refs:   Segment part 513
                                                   Segment part 539
                                                   SendAnswer
                                                   get_answer
           ENTRY                   ADDRESS         REF BY
           =====                   =======         ======
           end_socket              00006310        CheckComand2 (addon)
                                                   Disconnect (mainmenu)
               stack 1 = 00000000 ( 00000008 )
    -------------------------------------------------------------------------
CODE
  Relative segment, address: CODE_AREA 00006338 - 000064BF (0x188 bytes), align: 2
  Segment part 348.           Intra module refs:   Segment part 159
                                                   Segment part 315
                                                   Segment part 359
                                                   Segment part 430
                                                   Segment part 435
                                                   Segment part 538
                                                   Segment part 633
                                                   Segment part 637
                                                   SendMSGACK
                                                   do_ping
           ENTRY                   ADDRESS         REF BY
           =====                   =======         ======
           SendAnswer              00006338        CheckComand2 (addon)
                                                   PingToServer (mainmenu)
                                                   Segment part 45 (manage_cl)
                                                   aa (auth)
                                                   ab (auth)
               stack 1 = 00000000 ( 00000020 )
    -------------------------------------------------------------------------
CODE
  Relative segment, address: CODE_AREA 000064C0 - 000064C3 (0x4 bytes), align: 2
  Segment part 349.           Intra module refs:   SendAnswer
                                                   contactlist_menu_onkey
                                                   create_connect
    -------------------------------------------------------------------------
CODE
  Relative segment, address: CODE_AREA 000064C4 - 000064F7 (0x34 bytes), align: 2
  Segment part 353.           Intra module refs:   process_active_timer
           ENTRY                   ADDRESS         REF BY
           =====                   =======         ======
           do_ping                 000064C4 
               stack 1 = 00000000 ( 00000004 )
    -------------------------------------------------------------------------
CODE
  Relative segment, address: CODE_AREA 000064F8 - 000064FB (0x4 bytes), align: 2
  Segment part 354.           Intra module refs:   contactlist_menu_onkey
                                                   do_ping
    -------------------------------------------------------------------------
CODE
  Relative segment, address: CODE_AREA 000064FC - 0000652F (0x34 bytes), align: 2
  Segment part 356.           Intra module refs:   get_answer
           ENTRY                   ADDRESS         REF BY
           =====                   =======         ======
           SendMSGACK              000064FC 
               stack 1 = 00000000 ( 00000008 )
    -------------------------------------------------------------------------
CODE
  Relative segment, address: CODE_AREA 00006530 - 00006563 (0x34 bytes), align: 2
  Segment part 358.           Intra module refs:   CreateEditChat
                                                   ProcessPacket
                                                   contactlist_menu_onkey
           ENTRY                   ADDRESS         REF BY
           =====                   =======         ======
           RequestXText            00006530 
               stack 1 = 00000000 ( 00000008 )
    -------------------------------------------------------------------------
CODE
  Relative segment, address: CODE_AREA 00006564 - 00006567 (0x4 bytes), align: 2
  Segment part 359.           Intra module refs:   RequestXText
    -------------------------------------------------------------------------
CODE
  Relative segment, address: CODE_AREA 00006568 - 00006B8F (0x628 bytes), align: 2
  Segment part 361.           Intra module refs:   maincsm_onmessage
           ENTRY                   ADDRESS         REF BY
           =====                   =======         ======
           get_answer              00006568 
               stack 1 = 00000000 ( 0000044C )
    -------------------------------------------------------------------------
CODE
  Relative segment, address: CODE_AREA 00006B90 - 00006B93 (0x4 bytes), align: 2
  Segment part 362.           Intra module refs:   ClearSendQ
                                                   SendAnswer
                                                   create_connect
                                                   end_socket
                                                   get_answer
    -------------------------------------------------------------------------
CODE
  Relative segment, address: CODE_AREA 00006B94 - 00006B97 (0x4 bytes), align: 2
  Segment part 363.           Intra module refs:   get_answer
    -------------------------------------------------------------------------
CODE
  Relative segment, address: CODE_AREA 00006B98 - 00006B9B (0x4 bytes), align: 2
  Segment part 364.           Intra module refs:   get_answer
    -------------------------------------------------------------------------
CODE
  Relative segment, address: CODE_AREA 00006B9C - 00006B9F (0x4 bytes), align: 2
  Segment part 365.           Intra module refs:   get_answer
    -------------------------------------------------------------------------
CODE
  Relative segment, address: CODE_AREA 00006BA0 - 00006BA3 (0x4 bytes), align: 2
  Segment part 366.           Intra module refs:   get_answer
    -------------------------------------------------------------------------
CODE
  Relative segment, address: CODE_AREA 00006BA4 - 00006BA7 (0x4 bytes), align: 2
  Segment part 367.           Intra module refs:   get_answer
    -------------------------------------------------------------------------
CODE
  Relative segment, address: CODE_AREA 00006BA8 - 00006DE3 (0x23c bytes), align: 2
  Segment part 369.           Intra module refs:   ProcessPacket
           ENTRY                   ADDRESS         REF BY
           =====                   =======         ======
           AddToMain               00006BA8 
               stack 1 = 00000000 ( 0000002C )
    -------------------------------------------------------------------------
CODE
  Relative segment, address: CODE_AREA 00006DE4 - 00006DE7 (0x4 bytes), align: 2
  Segment part 370.           Intra module refs:   AddToMain
    -------------------------------------------------------------------------
CODE
  Relative segment, address: CODE_AREA 00006DE8 - 00007033 (0x24c bytes), align: 2
  Segment part 372.           Intra module refs:   CheckComand
                                                   GetShortInfo
                                                   ProcessPacket
                                                   SendAuthGrant
                                                   SendAuthReq
                                                   edchat_onkey
           ENTRY                   ADDRESS         REF BY
           =====                   =======         ======
           AddStringToLog          00006DE8        CheckComand2 (addon)
               stack 1 = 00000000 ( 000000C4 )
    -------------------------------------------------------------------------
CODE
  Relative segment, address: CODE_AREA 00007034 - 00007037 (0x4 bytes), align: 2
  Segment part 373.           Intra module refs:   AddStringToLog
    -------------------------------------------------------------------------
CODE
  Relative segment, address: CODE_AREA 00007038 - 000070CF (0x98 bytes), align: 2
  Segment part 375.           Intra module refs:   AddMsgToChat
                                                   CreateEditChat
           ENTRY                   ADDRESS         REF BY
           =====                   =======         ======
           ParseXStatusText        00007038 
               stack 1 = 00000000 ( 00000014 )
    -------------------------------------------------------------------------
CODE
  Relative segment, address: CODE_AREA 000070D0 - 000073FB (0x32c bytes), align: 2
  Segment part 377.           Intra module refs:   GetShortInfo
                                                   ReqAddMsgToChat
                                                   SendAuthGrant
                                                   SendAuthReq
                                                   edchat_ghook
                                                   edchat_onkey
           ENTRY                   ADDRESS         REF BY
           =====                   =======         ======
           AddMsgToChat            000070D0 
               stack 1 = 00000000 ( 00000068 )
    -------------------------------------------------------------------------
CODE
  Relative segment, address: CODE_AREA 000073FC - 000073FF (0x4 bytes), align: 2
  Segment part 378.           Intra module refs:   AddMsgToChat
                                                   AddStringToLog
                                                   AddToMain
                                                   get_answer
    -------------------------------------------------------------------------
CODE
  Relative segment, address: CODE_AREA 00007400 - 00007403 (0x4 bytes), align: 2
  Segment part 379.           Intra module refs:   AddMsgToChat
    -------------------------------------------------------------------------
CODE
  Relative segment, address: CODE_AREA 00007404 - 00007407 (0x4 bytes), align: 2
  Segment part 380.           Intra module refs:   AddMsgToChat
    -------------------------------------------------------------------------
CODE
  Relative segment, address: CODE_AREA 00007408 - 0000740B (0x4 bytes), align: 2
  Segment part 381.           Intra module refs:   AddMsgToChat
    -------------------------------------------------------------------------
CODE
  Relative segment, address: CODE_AREA 0000740C - 0000740F (0x4 bytes), align: 2
  Segment part 382.           Intra module refs:   AddMsgToChat
    -------------------------------------------------------------------------
CODE
  Relative segment, address: CODE_AREA 00007410 - 00007413 (0x4 bytes), align: 2
  Segment part 383.           Intra module refs:   AddMsgToChat
    -------------------------------------------------------------------------
CODE
  Relative segment, address: CODE_AREA 00007414 - 00007417 (0x4 bytes), align: 2
  Segment part 384.           Intra module refs:   AddMsgToChat
    -------------------------------------------------------------------------
CODE
  Relative segment, address: CODE_AREA 00007418 - 0000756B (0x154 bytes), align: 2
  Segment part 386.           Intra module refs:   ProcessPacket
                                                   edchat_ghook
           ENTRY                   ADDRESS         REF BY
           =====                   =======         ======
           DrawAck                 00007418 
               stack 1 = 00000000 ( 00000050 )
    -------------------------------------------------------------------------
CODE
  Relative segment, address: CODE_AREA 0000756C - 0000756F (0x4 bytes), align: 2
  Segment part 387.           Intra module refs:   AddMsgToChat
                                                   DrawAck
    -------------------------------------------------------------------------
CODE
  Relative segment, address: CODE_AREA 00007570 - 00007573 (0x4 bytes), align: 2
  Segment part 388.           Intra module refs:   AddMsgToChat
                                                   DrawAck
    -------------------------------------------------------------------------
CODE
  Relative segment, address: CODE_AREA 00007574 - 00007577 (0x4 bytes), align: 2
  Segment part 389.           Intra module refs:   AddMsgToChat
                                                   DrawAck
    -------------------------------------------------------------------------
CODE
  Relative segment, address: CODE_AREA 00007578 - 0000757B (0x4 bytes), align: 2
  Segment part 390.           Intra module refs:   AddMsgToChat
                                                   DrawAck
    -------------------------------------------------------------------------
CODE
  Relative segment, address: CODE_AREA 0000757C - 0000757F (0x4 bytes), align: 2
  Segment part 391.           Intra module refs:   AddMsgToChat
                                                   DrawAck
    -------------------------------------------------------------------------
CODE
  Relative segment, address: CODE_AREA 00007580 - 00007583 (0x4 bytes), align: 2
  Segment part 392.           Intra module refs:   AddMsgToChat
                                                   DrawAck
    -------------------------------------------------------------------------
CODE
  Relative segment, address: CODE_AREA 00007584 - 00007587 (0x4 bytes), align: 2
  Segment part 393.           Intra module refs:   AddMsgToChat
                                                   DrawAck
    -------------------------------------------------------------------------
CODE
  Relative segment, address: CODE_AREA 00007588 - 0000758B (0x4 bytes), align: 2
  Segment part 394.           Intra module refs:   AddMsgToChat
                                                   DrawAck
    -------------------------------------------------------------------------
CODE
  Relative segment, address: CODE_AREA 0000758C - 000075D3 (0x48 bytes), align: 2
  Segment part 398.           Intra module refs:   AutoChangeStatus_timer
                                                   LongPressActionOnChat
                                                   ProcessPacket
                                                   away_timer
                                                   contactlist_menu_onkey
                                                   edchat_onkey
                                                   input_awaymsg_onkey
                                                   my_keyhook
           ENTRY                   ADDRESS         REF BY
           =====                   =======         ======
           set_my_status           0000758C        st_onkey (status_change)
               stack 1 = 00000000 ( 00000004 )
    -------------------------------------------------------------------------
CODE
  Relative segment, address: CODE_AREA 000075D4 - 000077E3 (0x210 bytes), align: 2
  Segment part 400.           Intra module refs:   ProcessPacket
           ENTRY                   ADDRESS         REF BY
           =====                   =======         ======
           set_my_xstatus          000075D4        ChangeId3tagMode (mainmenu)
                                                   GetTags (player_tags)
                                                   xst_onkey (status_change)
               stack 1 = 00000000 ( 0000002C )
    -------------------------------------------------------------------------
CODE
  Relative segment, address: CODE_AREA 000077E4 - 000078D7 (0xf4 bytes), align: 2
  Segment part 402.
           ENTRY                   ADDRESS         REF BY
           =====                   =======         ======
           set_my_xstatus2         000077E4        GetTags (player_tags)
               stack 1 = 00000000 ( 00000024 )
    -------------------------------------------------------------------------
CODE
  Relative segment, address: CODE_AREA 000078D8 - 00007927 (0x50 bytes), align: 2
  Segment part 404.           Intra module refs:   ProcessPacket
                                                   begin_to_develop
           ENTRY                   ADDRESS         REF BY
           =====                   =======         ======
           to_develop              000078D8 
               stack 1 = 00000000 ( 00000004 )
    -------------------------------------------------------------------------
CODE
  Relative segment, address: CODE_AREA 00007928 - 0000792B (0x4 bytes), align: 2
  Segment part 405.           Intra module refs:   to_develop
    -------------------------------------------------------------------------
CODE
  Relative segment, address: CODE_AREA 0000792C - 000079A3 (0x78 bytes), align: 2
  Segment part 407.           Intra module refs:   ProcessPacket
           ENTRY                   ADDRESS         REF BY
           =====                   =======         ======
           ReqAddMsgToChat         0000792C 
               stack 1 = 00000000 ( 00000010 )
    -------------------------------------------------------------------------
CODE
  Relative segment, address: CODE_AREA 000079A4 - 000079D7 (0x34 bytes), align: 2
  Segment part 409.           Intra module refs:   ProcessPacket
           ENTRY                   ADDRESS         REF BY
           =====                   =======         ======
           begin_to_develop        000079A4 
               stack 1 = 00000000 ( 00000004 )
    -------------------------------------------------------------------------
CODE
  Relative segment, address: CODE_AREA 000079D8 - 00007A0F (0x38 bytes), align: 2
  Segment part 411.           Intra module refs:   CmdMenuGHook
                                                   LoadCmd
                                                   maincsm_onclose
           ENTRY                   ADDRESS         REF BY
           =====                   =======         ======
           cmdFree                 000079D8 
               stack 1 = 00000000 ( 00000008 )
    -------------------------------------------------------------------------
CODE
  Relative segment, address: CODE_AREA 00007A10 - 00007B27 (0x118 bytes), align: 2
  Segment part 413.           Intra module refs:   DispCmdMenu
           ENTRY                   ADDRESS         REF BY
           =====                   =======         ======
           LoadCmd                 00007A10 
               stack 1 = 00000000 ( 0000014C )
    -------------------------------------------------------------------------
CODE
  Relative segment, address: CODE_AREA 00007B28 - 00007B2B (0x4 bytes), align: 2
  Segment part 414.           Intra module refs:   LoadCmd
    -------------------------------------------------------------------------
CODE
  Relative segment, address: CODE_AREA 00007B2C - 00007B2F (0x4 bytes), align: 2
  Segment part 415.           Intra module refs:   LoadCmd
                                                   cmdFree
    -------------------------------------------------------------------------
CODE
  Relative segment, address: CODE_AREA 00007B30 - 00007B87 (0x58 bytes), align: 2
  Segment part 417.           Intra module refs:   Segment part 27
           ENTRY                   ADDRESS         REF BY
           =====                   =======         ======
           CmdMenuItemHandler      00007B30 
               stack 1 = 00000000 ( 00000018 )
    -------------------------------------------------------------------------
CODE
  Relative segment, address: CODE_AREA 00007B88 - 00007BAB (0x24 bytes), align: 2
  Segment part 419.           Intra module refs:   Segment part 27
           ENTRY                   ADDRESS         REF BY
           =====                   =======         ======
           CmdMenuGHook            00007B88 
               stack 1 = 00000000 ( 00000004 )
    -------------------------------------------------------------------------
CODE
  Relative segment, address: CODE_AREA 00007BAC - 00007C4B (0xa0 bytes), align: 2
  Segment part 421.           Intra module refs:   Segment part 27
           LOCAL                   ADDRESS         
           =====                   =======         
           CmdMenuKeyHook          00007BAC 
               stack 1 = 00000000 ( 00000010 )
    -------------------------------------------------------------------------
CODE
  Relative segment, address: CODE_AREA 00007C4C - 00007C4F (0x4 bytes), align: 2
  Segment part 422.           Intra module refs:   CmdMenuItemHandler
                                                   CmdMenuKeyHook
    -------------------------------------------------------------------------
CODE
  Relative segment, address: CODE_AREA 00007C50 - 00007CCB (0x7c bytes), align: 2
  Segment part 424.           Intra module refs:   ed_options_handler
           ENTRY                   ADDRESS         REF BY
           =====                   =======         ======
           DispCmdMenu             00007C50 
               stack 1 = 00000000 ( 00000020 )
    -------------------------------------------------------------------------
CODE
  Relative segment, address: CODE_AREA 00007CCC - 00007D7B (0xb0 bytes), align: 2
  Segment part 426.           Intra module refs:   ProcessPacket
           ENTRY                   ADDRESS         REF BY
           =====                   =======         ======
           GetStatusByIconIndex    00007CCC        CheckComand2 (addon)
               stack 1 = 00000000 ( 0000000C )
    -------------------------------------------------------------------------
CODE
  Relative segment, address: CODE_AREA 00007D7C - 00007DF3 (0x78 bytes), align: 2
  Segment part 428.           Intra module refs:   CheckComand
           ENTRY                   ADDRESS         REF BY
           =====                   =======         ======
           SendData                00007D7C        CheckComand2 (addon)
               stack 1 = 00000000 ( 00000010 )
    -------------------------------------------------------------------------
CODE
  Relative segment, address: CODE_AREA 00007DF4 - 00007DF7 (0x4 bytes), align: 2
  Segment part 429.           Intra module refs:   ReqAddMsgToChat
                                                   SendData
                                                   set_my_xstatus
                                                   to_develop
    -------------------------------------------------------------------------
CODE
  Relative segment, address: CODE_AREA 00007DF8 - 00007DFB (0x4 bytes), align: 2
  Segment part 430.           Intra module refs:   SendData
                                                   set_my_status
                                                   set_my_xstatus
                                                   set_my_xstatus2
    -------------------------------------------------------------------------
CODE
  Relative segment, address: CODE_AREA 00007DFC - 0000891F (0xb24 bytes), align: 2
  Segment part 432.           Intra module refs:   ProcessPacket
           ENTRY                   ADDRESS         REF BY
           =====                   =======         ======
           CheckComand             00007DFC 
               stack 1 = 00000000 ( 0000027C )
    -------------------------------------------------------------------------
CODE
  Relative segment, address: CODE_AREA 00008920 - 00008923 (0x4 bytes), align: 2
  Segment part 433.           Intra module refs:   CheckComand
    -------------------------------------------------------------------------
CODE
  Relative segment, address: CODE_AREA 00008924 - 00008927 (0x4 bytes), align: 2
  Segment part 434.           Intra module refs:   CheckComand
    -------------------------------------------------------------------------
CODE
  Relative segment, address: CODE_AREA 00008928 - 0000892B (0x4 bytes), align: 2
  Segment part 435.           Intra module refs:   CheckComand
    -------------------------------------------------------------------------
CODE
  Relative segment, address: CODE_AREA 0000892C - 0000892F (0x4 bytes), align: 2
  Segment part 436.           Intra module refs:   CheckComand
    -------------------------------------------------------------------------
CODE
  Relative segment, address: CODE_AREA 00008930 - 00008933 (0x4 bytes), align: 2
  Segment part 437.           Intra module refs:   CheckComand
    -------------------------------------------------------------------------
CODE
  Relative segment, address: CODE_AREA 00008934 - 00008937 (0x4 bytes), align: 2
  Segment part 438.           Intra module refs:   CheckComand
    -------------------------------------------------------------------------
CODE
  Relative segment, address: CODE_AREA 00008938 - 0000893B (0x4 bytes), align: 2
  Segment part 439.           Intra module refs:   CheckComand
    -------------------------------------------------------------------------
CODE
  Relative segment, address: CODE_AREA 0000893C - 0000893F (0x4 bytes), align: 2
  Segment part 440.           Intra module refs:   CheckComand
    -------------------------------------------------------------------------
CODE
  Relative segment, address: CODE_AREA 00008940 - 00008A93 (0x154 bytes), align: 2
  Segment part 442.           Intra module refs:   ProcessPacket
           ENTRY                   ADDRESS         REF BY
           =====                   =======         ======
           show_on_contact         00008940 
               stack 1 = 00000000 ( 00000040 )
    -------------------------------------------------------------------------
CODE
  Relative segment, address: CODE_AREA 00008A94 - 00008C43 (0x1b0 bytes), align: 2
  Segment part 444.           Intra module refs:   ProcessPacket
           ENTRY                   ADDRESS         REF BY
           =====                   =======         ======
           show_pp_sender          00008A94 
               stack 1 = 00000000 ( 0000004C )
    -------------------------------------------------------------------------
CODE
  Relative segment, address: CODE_AREA 00008C44 - 00008C47 (0x4 bytes), align: 2
  Segment part 445.           Intra module refs:   show_on_contact
                                                   show_pp_sender
    -------------------------------------------------------------------------
CODE
  Relative segment, address: CODE_AREA 00008C48 - 00008C4B (0x4 bytes), align: 2
  Segment part 446.           Intra module refs:   show_pp_sender
    -------------------------------------------------------------------------
CODE
  Relative segment, address: CODE_AREA 00008C4C - 00008C4F (0x4 bytes), align: 2
  Segment part 447.           Intra module refs:   show_on_contact
                                                   show_pp_sender
    -------------------------------------------------------------------------
CODE
  Relative segment, address: CODE_AREA 00008C50 - 00008CAB (0x5c bytes), align: 2
  Segment part 449.           Intra module refs:   CheckComand
                                                   ProcessPacket
                                                   UpdateCLheader
           ENTRY                   ADDRESS         REF BY
           =====                   =======         ======
           Get_Online_total        00008C50 
    -------------------------------------------------------------------------
CODE
  Relative segment, address: CODE_AREA 00008CAC - 00008CF7 (0x4c bytes), align: 2
  Segment part 451.           Intra module refs:   ProcessPacket
           ENTRY                   ADDRESS         REF BY
           =====                   =======         ======
           SetIndividStatus        00008CAC 
    -------------------------------------------------------------------------
CODE
  Relative segment, address: CODE_AREA 00008CF8 - 00008CFB (0x4 bytes), align: 2
  Segment part 452.           Intra module refs:   CheckComand
                                                   Get_Online_total
                                                   SetIndividStatus
                                                   show_on_contact
                                                   show_pp_sender
    -------------------------------------------------------------------------
CODE
  Relative segment, address: CODE_AREA 00008CFC - 0000987F (0xb84 bytes), align: 2
  Segment part 454.           Intra module refs:   maincsm_onmessage
           ENTRY                   ADDRESS         REF BY
           =====                   =======         ======
           ProcessPacket           00008CFC 
               stack 1 = 00000000 ( 0000016C )
    -------------------------------------------------------------------------
CODE
  Relative segment, address: CODE_AREA 00009880 - 00009883 (0x4 bytes), align: 2
  Segment part 455.           Intra module refs:   ProcessPacket
    -------------------------------------------------------------------------
CODE
  Relative segment, address: CODE_AREA 00009884 - 00009887 (0x4 bytes), align: 2
  Segment part 456.           Intra module refs:   ProcessPacket
    -------------------------------------------------------------------------
CODE
  Relative segment, address: CODE_AREA 00009888 - 0000988B (0x4 bytes), align: 2
  Segment part 457.           Intra module refs:   ProcessPacket
    -------------------------------------------------------------------------
CODE
  Relative segment, address: CODE_AREA 0000988C - 0000988F (0x4 bytes), align: 2
  Segment part 458.           Intra module refs:   ProcessPacket
    -------------------------------------------------------------------------
CODE
  Relative segment, address: CODE_AREA 00009890 - 00009893 (0x4 bytes), align: 2
  Segment part 459.           Intra module refs:   ProcessPacket
    -------------------------------------------------------------------------
CODE
  Relative segment, address: CODE_AREA 00009894 - 00009897 (0x4 bytes), align: 2
  Segment part 460.           Intra module refs:   ProcessPacket
    -------------------------------------------------------------------------
CODE
  Relative segment, address: CODE_AREA 00009898 - 0000989B (0x4 bytes), align: 2
  Segment part 461.           Intra module refs:   ProcessPacket
    -------------------------------------------------------------------------
CODE
  Relative segment, address: CODE_AREA 0000989C - 0000989F (0x4 bytes), align: 2
  Segment part 462.           Intra module refs:   ProcessPacket
    -------------------------------------------------------------------------
CODE
  Relative segment, address: CODE_AREA 000098A0 - 000098A3 (0x4 bytes), align: 2
  Segment part 463.           Intra module refs:   ProcessPacket
    -------------------------------------------------------------------------
CODE
  Relative segment, address: CODE_AREA 000098A4 - 000098A7 (0x4 bytes), align: 2
  Segment part 464.           Intra module refs:   ProcessPacket
    -------------------------------------------------------------------------
CODE
  Relative segment, address: CODE_AREA 000098A8 - 0000993B (0x94 bytes), align: 2
  Segment part 466.           Intra module refs:   Segment part 508
           ENTRY                   ADDRESS         REF BY
           =====                   =======         ======
           process_active_timer    000098A8 
               stack 1 = 00000000 ( 0000000C )
    -------------------------------------------------------------------------
CODE
  Relative segment, address: CODE_AREA 0000993C - 0000993F (0x4 bytes), align: 2
  Segment part 467.           Intra module refs:   process_active_timer
    -------------------------------------------------------------------------
CODE
  Relative segment, address: CODE_AREA 00009940 - 000099A3 (0x64 bytes), align: 2
  Segment part 469.           Intra module refs:   maincsm_oncreate
           ENTRY                   ADDRESS         REF BY
           =====                   =======         ======
           OneSecTmr               00009940 
               stack 1 = 00000000 ( 00000008 )
    -------------------------------------------------------------------------
CODE
  Relative segment, address: CODE_AREA 000099A4 - 000099A7 (0x4 bytes), align: 2
  Segment part 470.           Intra module refs:   OneSecTmr
                                                   ProcessPacket
                                                   process_active_timer
    -------------------------------------------------------------------------
CODE
  Relative segment, address: CODE_AREA 000099A8 - 00009BDB (0x234 bytes), align: 2
  Segment part 472.           Intra module refs:   method0
           LOCAL                   ADDRESS         
           =====                   =======         
           DrawList                000099A8 
               stack 1 = 00000000 ( 00000054 )
    -------------------------------------------------------------------------
CODE
  Relative segment, address: CODE_AREA 00009BDC - 00009BDF (0x4 bytes), align: 2
  Segment part 473.           Intra module refs:   DrawList
                                                   OneSecTmr
                                                   ProcessPacket
                                                   process_active_timer
    -------------------------------------------------------------------------
CODE
  Relative segment, address: CODE_AREA 00009BE0 - 00009C57 (0x78 bytes), align: 2
  Segment part 475.           Intra module refs:   method5
           ENTRY                   ADDRESS         REF BY
           =====                   =======         ======
           MoveUp                  00009BE0 
               stack 1 = 00000000 ( 00000008 )
    -------------------------------------------------------------------------
CODE
  Relative segment, address: CODE_AREA 00009C58 - 00009CBB (0x64 bytes), align: 2
  Segment part 477.           Intra module refs:   method5
           ENTRY                   ADDRESS         REF BY
           =====                   =======         ======
           MoveDown                00009C58 
    -------------------------------------------------------------------------
CODE
  Relative segment, address: CODE_AREA 00009CBC - 00009CBF (0x4 bytes), align: 2
  Segment part 478.           Intra module refs:   DrawList
                                                   MoveDown
                                                   MoveUp
    -------------------------------------------------------------------------
CODE
  Relative segment, address: CODE_AREA 00009CC0 - 00009D47 (0x88 bytes), align: 2
  Segment part 480.           Intra module refs:   method5
           ENTRY                   ADDRESS         REF BY
           =====                   =======         ======
           Enter                   00009CC0 
               stack 1 = 00000000 ( 00000010 )
    -------------------------------------------------------------------------
CODE
  Relative segment, address: CODE_AREA 00009D48 - 00009D4B (0x4 bytes), align: 2
  Segment part 481.           Intra module refs:   DrawList
                                                   Enter
    -------------------------------------------------------------------------
CODE
  Relative segment, address: CODE_AREA 00009D4C - 00009D4F (0x4 bytes), align: 2
  Segment part 482.           Intra module refs:   Enter
    -------------------------------------------------------------------------
CODE
  Relative segment, address: CODE_AREA 00009D50 - 00009D53 (0x4 bytes), align: 2
  Segment part 483.           Intra module refs:   Enter
    -------------------------------------------------------------------------
CODE
  Relative segment, address: CODE_AREA 00009D54 - 0000A24F (0x4fc bytes), align: 2
  Segment part 485.           Intra module refs:   Segment part 13
           ENTRY                   ADDRESS         REF BY
           =====                   =======         ======
           method0                 00009D54 
               stack 1 = 00000000 ( 0000005C )
    -------------------------------------------------------------------------
CODE
  Relative segment, address: CODE_AREA 0000A250 - 0000A253 (0x4 bytes), align: 2
  Segment part 486.           Intra module refs:   method0
    -------------------------------------------------------------------------
CODE
  Relative segment, address: CODE_AREA 0000A254 - 0000A257 (0x4 bytes), align: 2
  Segment part 487.           Intra module refs:   method0
    -------------------------------------------------------------------------
CODE
  Relative segment, address: CODE_AREA 0000A258 - 0000A283 (0x2c bytes), align: 2
  Segment part 489.           Intra module refs:   Segment part 13
           ENTRY                   ADDRESS         REF BY
           =====                   =======         ======
           method1                 0000A258 
               stack 1 = 00000000 ( 00000008 )
    -------------------------------------------------------------------------
CODE
  Relative segment, address: CODE_AREA 0000A284 - 0000A2A7 (0x24 bytes), align: 2
  Segment part 491.           Intra module refs:   Segment part 13
           ENTRY                   ADDRESS         REF BY
           =====                   =======         ======
           method2                 0000A284 
               stack 1 = 00000000 ( 00000008 )
    -------------------------------------------------------------------------
CODE
  Relative segment, address: CODE_AREA 0000A2A8 - 0000A2BF (0x18 bytes), align: 2
  Segment part 493.           Intra module refs:   Segment part 13
           ENTRY                   ADDRESS         REF BY
           =====                   =======         ======
           method3                 0000A2A8 
               stack 1 = 00000000 ( 00000008 )
    -------------------------------------------------------------------------
CODE
  Relative segment, address: CODE_AREA 0000A2C0 - 0000A2D3 (0x14 bytes), align: 2
  Segment part 495.           Intra module refs:   Segment part 13
           ENTRY                   ADDRESS         REF BY
           =====                   =======         ======
           method4                 0000A2C0 
    -------------------------------------------------------------------------
CODE
  Relative segment, address: CODE_AREA 0000A2D4 - 0000A49B (0x1c8 bytes), align: 2
  Segment part 497.           Intra module refs:   Segment part 13
           ENTRY                   ADDRESS         REF BY
           =====                   =======         ======
           method5                 0000A2D4 
               stack 1 = 00000000 ( 00000030 )
    -------------------------------------------------------------------------
CODE
  Relative segment, address: CODE_AREA 0000A49C - 0000A49F (0x4 bytes), align: 2
  Segment part 498.           Intra module refs:   method0
                                                   method5
    -------------------------------------------------------------------------
CODE
  Relative segment, address: CODE_AREA 0000A4A0 - 0000A4A3 (0x4 bytes), align: 2
  Segment part 499.           Intra module refs:   method5
    -------------------------------------------------------------------------
CODE
  Relative segment, address: CODE_AREA 0000A4A4 - 0000A4AB (0x8 bytes), align: 2
  Segment part 501.           Intra module refs:   Segment part 13
           ENTRY                   ADDRESS         REF BY
           =====                   =======         ======
           method8                 0000A4A4 
    -------------------------------------------------------------------------
CODE
  Relative segment, address: CODE_AREA 0000A4AC - 0000A4B3 (0x8 bytes), align: 2
  Segment part 503.           Intra module refs:   Segment part 13
           ENTRY                   ADDRESS         REF BY
           =====                   =======         ======
           method9                 0000A4AC 
    -------------------------------------------------------------------------
CODE
  Relative segment, address: CODE_AREA 0000A4B4 - 0000A517 (0x64 bytes), align: 2
  Segment part 505.           Intra module refs:   Segment part 512
                                                   Segment part 563
           ENTRY                   ADDRESS         REF BY
           =====                   =======         ======
           my_keyhook              0000A4B4 
               stack 1 = 00000000 ( 0000000C )
    -------------------------------------------------------------------------
DATA_C
  Relative segment, address: CODE_AREA 00012E5C - 00013397 (0x53c bytes), align: 2
  Segment part 13.            Intra module refs:   Segment part 309
                                                   Segment part 340
                                                   Segment part 405
                                                   Segment part 473
                                                   Segment part 521
                                                   Segment part 528
                                                   Segment part 553
                                                   get_answer
                                                   maincsm_oncreate
           ENTRY                   ADDRESS         REF BY
           =====                   =======         ======
           Canvas                  00012E5C 
           bordNotSelect           00013364 
           bordSelect              0001335C 
           clrNotSelect            00013360 
           clrSelect               00013354 
           empty_str               00012E7D 
           fntNotSelect            00013368 
           fntSelect               00013358 
           gui_methods             0001336C 
           ipc_my_name             000132FC        CheckComand2 (addon)
                                                   Segment part 30 (smiles_loader)
           ipc_xtask_name          0001331C        CheckComand2 (addon)
           percent_d               00012E7A 
           percent_s               00012E77        ParseUINS (configs)
           percent_t               00012E74        Segment part 69 (status_change)
                                                   menuitemhandler (mainmenu)
           x_status_change         00013324 
    -------------------------------------------------------------------------
DATA_C
  Relative segment, address: CODE_AREA 00013398 - 000133E7 (0x50 bytes), align: 2
  Segment part 19.            Intra module refs:   CreateContactMenu
    -------------------------------------------------------------------------
DATA_C
  Relative segment, address: CODE_AREA 000133E8 - 0001340F (0x28 bytes), align: 2
  Segment part 21.            Intra module refs:   SendAnswer
    -------------------------------------------------------------------------
DATA_C
  Relative segment, address: CODE_AREA 00013410 - 00013417 (0x8 bytes), align: 2
  Segment part 24.            Intra module refs:   AddToMain
    -------------------------------------------------------------------------
DATA_C
  Relative segment, address: CODE_AREA 00013418 - 00013457 (0x40 bytes), align: 2
  Segment part 25.            Intra module refs:   AddStringToLog
    -------------------------------------------------------------------------
DATA_C
  Relative segment, address: CODE_AREA 00013458 - 00013463 (0xc bytes), align: 2
  Segment part 26.            Intra module refs:   LoadCmd
    -------------------------------------------------------------------------
DATA_C
  Relative segment, address: CODE_AREA 00013464 - 000134AF (0x4c bytes), align: 2
  Segment part 27.            Intra module refs:   DispCmdMenu
    -------------------------------------------------------------------------
DATA_C
  Relative segment, address: CODE_AREA 000134B0 - 00013533 (0x84 bytes), align: 2
  Segment part 28.            Intra module refs:   GetStatusByIconIndex
    -------------------------------------------------------------------------
DATA_C
  Relative segment, address: CODE_AREA 00013534 - 0001394F (0x41c bytes), align: 2
  Segment part 30.            Intra module refs:   CheckComand
    -------------------------------------------------------------------------
DATA_C
  Relative segment, address: CODE_AREA 00013950 - 00013957 (0x8 bytes), align: 2
  Segment part 32.            Intra module refs:   show_on_contact
    -------------------------------------------------------------------------
DATA_C
  Relative segment, address: CODE_AREA 00013958 - 0001395F (0x8 bytes), align: 2
  Segment part 33.            Intra module refs:   show_pp_sender
    -------------------------------------------------------------------------
DATA_C
  Relative segment, address: CODE_AREA 00013960 - 00013967 (0x8 bytes), align: 2
  Segment part 35.            Intra module refs:   Segment part 122
    -------------------------------------------------------------------------
DATA_C
  Relative segment, address: CODE_AREA 00013968 - 00013973 (0xc bytes), align: 2
  Segment part 36.            Intra module refs:   UpdateCSMname
    -------------------------------------------------------------------------
DATA_C
  Relative segment, address: CODE_AREA 00013974 - 000139CF (0x5c bytes), align: 2
  Segment part 37.            Intra module refs:   ed_options_handler
    -------------------------------------------------------------------------
DATA_C
  Relative segment, address: CODE_AREA 000139D0 - 00013A73 (0xa4 bytes), align: 2
  Segment part 38.            Intra module refs:   Segment part 583
    -------------------------------------------------------------------------
DATA_C
  Relative segment, address: CODE_AREA 00013A74 - 00013A83 (0x10 bytes), align: 2
  Segment part 39.            Intra module refs:   edchat_onkey
    -------------------------------------------------------------------------
DATA_C
  Relative segment, address: CODE_AREA 00013A84 - 00013A8B (0x8 bytes), align: 2
  Segment part 40.            Intra module refs:   Segment part 150
    -------------------------------------------------------------------------
CODE
  Relative segment, address: CODE_AREA 0000A518 - 0000A64B (0x134 bytes), align: 2
  Segment part 507.           Intra module refs:   Segment part 98
           ENTRY                   ADDRESS         REF BY
           =====                   =======         ======
           maincsm_oncreate        0000A518 
               stack 1 = 00000000 ( 00000014 )
    -------------------------------------------------------------------------
CODE
  Relative segment, address: CODE_AREA 0000A64C - 0000A64F (0x4 bytes), align: 2
  Segment part 508.           Intra module refs:   maincsm_oncreate
                                                   process_active_timer
    -------------------------------------------------------------------------
CODE
  Relative segment, address: CODE_AREA 0000A650 - 0000A653 (0x4 bytes), align: 2
  Segment part 509.           Intra module refs:   Enter
                                                   maincsm_oncreate
    -------------------------------------------------------------------------
CODE
  Relative segment, address: CODE_AREA 0000A654 - 0000A7A3 (0x150 bytes), align: 2
  Segment part 511.           Intra module refs:   Segment part 98
           ENTRY                   ADDRESS         REF BY
           =====                   =======         ======
           maincsm_onclose         0000A654 
               stack 1 = 00000000 ( 00000008 )
    -------------------------------------------------------------------------
CODE
  Relative segment, address: CODE_AREA 0000A7A4 - 0000A7A7 (0x4 bytes), align: 2
  Segment part 512.           Intra module refs:   maincsm_onclose
    -------------------------------------------------------------------------
CODE
  Relative segment, address: CODE_AREA 0000A7A8 - 0000A7AB (0x4 bytes), align: 2
  Segment part 513.           Intra module refs:   Enter
                                                   maincsm_onclose
                                                   method5
    -------------------------------------------------------------------------
CODE
  Relative segment, address: CODE_AREA 0000A7AC - 0000A7AF (0x4 bytes), align: 2
  Segment part 514.           Intra module refs:   maincsm_onclose
    -------------------------------------------------------------------------
CODE
  Relative segment, address: CODE_AREA 0000A7B0 - 0000A7D7 (0x28 bytes), align: 2
  Segment part 516.           Intra module refs:   Segment part 342
                                                   Segment part 536
           ENTRY                   ADDRESS         REF BY
           =====                   =======         ======
           do_reconnect            0000A7B0 
               stack 1 = 00000000 ( 00000004 )
    -------------------------------------------------------------------------
CODE
  Relative segment, address: CODE_AREA 0000A7D8 - 0000A7DB (0x4 bytes), align: 2
  Segment part 517.           Intra module refs:   Enter
                                                   do_reconnect
                                                   method5
    -------------------------------------------------------------------------
CODE
  Relative segment, address: CODE_AREA 0000A7DC - 0000A863 (0x88 bytes), align: 2
  Segment part 519.           Intra module refs:   maincsm_onmessage
           ENTRY                   ADDRESS         REF BY
           =====                   =======         ======
           CheckDoubleRun          0000A7DC 
               stack 1 = 00000000 ( 00000008 )
    -------------------------------------------------------------------------
CODE
  Relative segment, address: CODE_AREA 0000A864 - 0000A867 (0x4 bytes), align: 2
  Segment part 520.           Intra module refs:   CheckDoubleRun
                                                   maincsm_onclose
                                                   maincsm_oncreate
                                                   method5
                                                   my_keyhook
    -------------------------------------------------------------------------
CODE
  Relative segment, address: CODE_AREA 0000A868 - 0000A86B (0x4 bytes), align: 2
  Segment part 521.           Intra module refs:   CheckDoubleRun
                                                   Enter
                                                   method0
    -------------------------------------------------------------------------
CODE
  Relative segment, address: CODE_AREA 0000A86C - 0000A86F (0x4 bytes), align: 2
  Segment part 522.           Intra module refs:   CheckDoubleRun
                                                   DrawList
                                                   Enter
                                                   MoveDown
                                                   MoveUp
                                                   do_reconnect
                                                   maincsm_oncreate
                                                   method0
                                                   method5
    -------------------------------------------------------------------------
CODE
  Relative segment, address: CODE_AREA 0000A870 - 0000A8BB (0x4c bytes), align: 2
  Segment part 524.           Intra module refs:   maincsm_onmessage
           ENTRY                   ADDRESS         REF BY
           =====                   =======         ======
           checkGui                0000A870 
               stack 1 = 00000000 ( 00000008 )
    -------------------------------------------------------------------------
CODE
  Relative segment, address: CODE_AREA 0000A8BC - 0000B517 (0xc5c bytes), align: 2
  Segment part 526.           Intra module refs:   Segment part 98
           ENTRY                   ADDRESS         REF BY
           =====                   =======         ======
           maincsm_onmessage       0000A8BC 
               stack 1 = 00000000 ( 00000070 )
    -------------------------------------------------------------------------
CODE
  Relative segment, address: CODE_AREA 0000B518 - 0000B51B (0x4 bytes), align: 2
  Segment part 527.           Intra module refs:   maincsm_onmessage
    -------------------------------------------------------------------------
CODE
  Relative segment, address: CODE_AREA 0000B51C - 0000B51F (0x4 bytes), align: 2
  Segment part 528.           Intra module refs:   maincsm_onmessage
    -------------------------------------------------------------------------
CODE
  Relative segment, address: CODE_AREA 0000B520 - 0000B523 (0x4 bytes), align: 2
  Segment part 529.           Intra module refs:   maincsm_onmessage
    -------------------------------------------------------------------------
CODE
  Relative segment, address: CODE_AREA 0000B524 - 0000B527 (0x4 bytes), align: 2
  Segment part 530.           Intra module refs:   maincsm_onmessage
    -------------------------------------------------------------------------
CODE
  Relative segment, address: CODE_AREA 0000B528 - 0000B52B (0x4 bytes), align: 2
  Segment part 531.           Intra module refs:   maincsm_onmessage
    -------------------------------------------------------------------------
CODE
  Relative segment, address: CODE_AREA 0000B52C - 0000B52F (0x4 bytes), align: 2
  Segment part 532.           Intra module refs:   maincsm_onmessage
    -------------------------------------------------------------------------
CODE
  Relative segment, address: CODE_AREA 0000B530 - 0000B533 (0x4 bytes), align: 2
  Segment part 533.           Intra module refs:   maincsm_onmessage
    -------------------------------------------------------------------------
CODE
  Relative segment, address: CODE_AREA 0000B534 - 0000B537 (0x4 bytes), align: 2
  Segment part 534.           Intra module refs:   maincsm_onmessage
    -------------------------------------------------------------------------
CODE
  Relative segment, address: CODE_AREA 0000B538 - 0000B53B (0x4 bytes), align: 2
  Segment part 535.           Intra module refs:   maincsm_onmessage
    -------------------------------------------------------------------------
CODE
  Relative segment, address: CODE_AREA 0000B53C - 0000B53F (0x4 bytes), align: 2
  Segment part 536.           Intra module refs:   maincsm_onmessage
    -------------------------------------------------------------------------
CODE
  Relative segment, address: CODE_AREA 0000B540 - 0000B543 (0x4 bytes), align: 2
  Segment part 537.           Intra module refs:   maincsm_onmessage
    -------------------------------------------------------------------------
CODE
  Relative segment, address: CODE_AREA 0000B544 - 0000B547 (0x4 bytes), align: 2
  Segment part 538.           Intra module refs:   maincsm_onmessage
    -------------------------------------------------------------------------
CODE
  Relative segment, address: CODE_AREA 0000B548 - 0000B54B (0x4 bytes), align: 2
  Segment part 539.           Intra module refs:   maincsm_onmessage
    -------------------------------------------------------------------------
CODE
  Relative segment, address: CODE_AREA 0000B54C - 0000B54F (0x4 bytes), align: 2
  Segment part 540.           Intra module refs:   maincsm_onmessage
    -------------------------------------------------------------------------
CODE
  Relative segment, address: CODE_AREA 0000B550 - 0000B553 (0x4 bytes), align: 2
  Segment part 541.           Intra module refs:   maincsm_onclose
                                                   maincsm_onmessage
    -------------------------------------------------------------------------
CODE
  Relative segment, address: CODE_AREA 0000B554 - 0000B69F (0x14c bytes), align: 2
  Segment part 543.           Intra module refs:   Segment part 168
                                                   Segment part 363
                                                   Segment part 560
           ENTRY                   ADDRESS         REF BY
           =====                   =======         ======
           addIconBar              0000B554 
               stack 1 = 00000000 ( 00000014 )
    -------------------------------------------------------------------------
CODE
  Relative segment, address: CODE_AREA 0000B6A0 - 0000B6A3 (0x4 bytes), align: 2
  Segment part 544.           Intra module refs:   addIconBar
    -------------------------------------------------------------------------
CODE
  Relative segment, address: CODE_AREA 0000B6A4 - 0000B6A7 (0x4 bytes), align: 2
  Segment part 545.           Intra module refs:   addIconBar
                                                   maincsm_onmessage
    -------------------------------------------------------------------------
CODE
  Relative segment, address: CODE_AREA 0000B6A8 - 0000B6AB (0x4 bytes), align: 2
  Segment part 546.           Intra module refs:   addIconBar
                                                   maincsm_onmessage
    -------------------------------------------------------------------------
DATA_I
  Relative segment, address: DATA_AREA 00000004 - 00000107 (0x104 bytes), align: 2
  Segment part 97.            Intra module refs:   CheckComand
                                                   ProcessPacket
                                                   Segment part 185
                                                   Segment part 194
                                                   Segment part 198
                                                   Segment part 272
                                                   Segment part 273
                                                   Segment part 321
                                                   Segment part 362
                                                   Segment part 434
                                                   Segment part 459
                                                   Segment part 467
                                                   Segment part 522
                                                   Segment part 545
                                                   Segment part 595
                                                   Segment part 647
                                                   SetIconBarHandler
                                                   UpdateCSMname
                                                   main
                                                   my_keyhook
           ENTRY                   ADDRESS         REF BY
           =====                   =======         ======
           DNR_ID                  0000007C 
           DNR_TRIES               00000080 
           IsActiveUp              00000050        Segment part 22 (cl_work)
           MAINCSM                 00000004 
           RXstate                 00000058        ab (auth)
           USE_ADD_UIN             00000090 
           align                   0000004C 
           clrWhite                00000104 
           connect_state           0000005C        ab (auth)
                                                   reftes (screen_save)
           curpage                 0000008C 
           curpos                  00000088 
           host_counter            00000084 
           is_gprs_online          0000006C 
           msg_away_timer          00000054        AutoAwayMSG (mainmenu)
                                                   reftes (screen_save)
                                                   st_onkey (status_change)
           on_off_timer            00000070 
           requests1               00000094 
           requests2               000000AC 
           requests3               000000C0 
           requests4               000000D8 
           requests6               000000EC 
           sendq_l                 00000064        reftes (screen_save)
           sendq_p                 00000068 
           sock                    00000060 
    -------------------------------------------------------------------------
DATA_I
  Relative segment, address: DATA_AREA 00000108 - 0000010F (0x8 bytes), align: 2
  Segment part 111.           Intra module refs:   input_awaymsg_ghook
    -------------------------------------------------------------------------
DATA_I
  Relative segment, address: DATA_AREA 00000110 - 00000127 (0x18 bytes), align: 2
  Segment part 113.           Intra module refs:   Segment part 116
           ENTRY                   ADDRESS         REF BY
           =====                   =======         ======
           input_awaymsg_sk        00000110 
    -------------------------------------------------------------------------
DATA_I
  Relative segment, address: DATA_AREA 00000128 - 0000012F (0x8 bytes), align: 2
  Segment part 115.           Intra module refs:   Segment part 7
           ENTRY                   ADDRESS         REF BY
           =====                   =======         ======
           input_awaymsg_skt       00000128 
    -------------------------------------------------------------------------
DATA_I
  Relative segment, address: DATA_AREA 00000130 - 0000013F (0x10 bytes), align: 2
  Segment part 129.           Intra module refs:   contact_keyhook
    -------------------------------------------------------------------------
DATA_I
  Relative segment, address: DATA_AREA 00000140 - 00000157 (0x18 bytes), align: 2
  Segment part 135.           Intra module refs:   CmdMenuKeyHook
                                                   DispCmdMenu
           ENTRY                   ADDRESS         REF BY
           =====                   =======         ======
           CmdMenuHeader           00000140 
           NumOfItems              00000154 
    -------------------------------------------------------------------------
CODE
  Relative segment, address: CODE_AREA 0000B6AC - 0000B6CF (0x24 bytes), align: 2
  Segment part 548.           Intra module refs:   Enter
                                                   main
           ENTRY                   ADDRESS         REF BY
           =====                   =======         ======
           UpdateCSMname           0000B6AC 
               stack 1 = 00000000 ( 00000004 )
    -------------------------------------------------------------------------
CODE
  Relative segment, address: CODE_AREA 0000B6D0 - 0000B6E3 (0x14 bytes), align: 2
  Segment part 550.
           ENTRY                   ADDRESS         REF BY
           =====                   =======         ======
           SetIconBarHandler       0000B6D0        st_onkey (status_change)
                                                   xst_onkey (status_change)
    -------------------------------------------------------------------------
CODE
  Relative segment, address: CODE_AREA 0000B6E4 - 0000B8A3 (0x1c0 bytes), align: 2
  Segment part 552.
           ENTRY                   ADDRESS         REF BY
           =====                   =======         ======
           main                    0000B6E4        Absolute parts (?ABS_ENTRY_MOD)
               stack 1 = 00000000 ( 00000040 )
    -------------------------------------------------------------------------
CODE
  Relative segment, address: CODE_AREA 0000B8A4 - 0000B8A7 (0x4 bytes), align: 2
  Segment part 553.           Intra module refs:   main
    -------------------------------------------------------------------------
CODE
  Relative segment, address: CODE_AREA 0000B8A8 - 0000B8AB (0x4 bytes), align: 2
  Segment part 554.           Intra module refs:   UpdateCSMname
                                                   main
                                                   maincsm_onmessage
    -------------------------------------------------------------------------
CODE
  Relative segment, address: CODE_AREA 0000B8AC - 0000B8AF (0x4 bytes), align: 2
  Segment part 555.           Intra module refs:   main
                                                   maincsm_onmessage
    -------------------------------------------------------------------------
CODE
  Relative segment, address: CODE_AREA 0000B8B0 - 0000B8B3 (0x4 bytes), align: 2
  Segment part 556.           Intra module refs:   main
    -------------------------------------------------------------------------
CODE
  Relative segment, address: CODE_AREA 0000B8B4 - 0000B8B7 (0x4 bytes), align: 2
  Segment part 557.           Intra module refs:   main
                                                   maincsm_onmessage
    -------------------------------------------------------------------------
CODE
  Relative segment, address: CODE_AREA 0000B8B8 - 0000B8BB (0x4 bytes), align: 2
  Segment part 558.           Intra module refs:   main
                                                   maincsm_onmessage
    -------------------------------------------------------------------------
CODE
  Relative segment, address: CODE_AREA 0000B8BC - 0000B8BF (0x4 bytes), align: 2
  Segment part 559.           Intra module refs:   main
                                                   maincsm_onmessage
    -------------------------------------------------------------------------
CODE
  Relative segment, address: CODE_AREA 0000B8C0 - 0000B8C3 (0x4 bytes), align: 2
  Segment part 560.           Intra module refs:   SetIconBarHandler
                                                   main
    -------------------------------------------------------------------------
CODE
  Relative segment, address: CODE_AREA 0000B8C4 - 0000B8C7 (0x4 bytes), align: 2
  Segment part 561.           Intra module refs:   main
                                                   maincsm_onmessage
    -------------------------------------------------------------------------
CODE
  Relative segment, address: CODE_AREA 0000B8C8 - 0000B8CB (0x4 bytes), align: 2
  Segment part 562.           Intra module refs:   main
    -------------------------------------------------------------------------
CODE
  Relative segment, address: CODE_AREA 0000B8CC - 0000B8CF (0x4 bytes), align: 2
  Segment part 563.           Intra module refs:   main
    -------------------------------------------------------------------------
CODE
  Relative segment, address: CODE_AREA 0000B8D0 - 0000B8D3 (0x4 bytes), align: 2
  Segment part 565.           Intra module refs:   Segment part 41
           ENTRY                   ADDRESS         REF BY
           =====                   =======         ======
           edchat_locret           0000B8D0 
    -------------------------------------------------------------------------
CODE
  Relative segment, address: CODE_AREA 0000B8D4 - 0000B9EB (0x118 bytes), align: 2
  Segment part 567.           Intra module refs:   SaveAnswer
           ENTRY                   ADDRESS         REF BY
           =====                   =======         ======
           ExtractAnswer           0000B8D4 
               stack 1 = 00000000 ( 00000024 )
    -------------------------------------------------------------------------
CODE
  Relative segment, address: CODE_AREA 0000B9EC - 0000BA2B (0x40 bytes), align: 2
  Segment part 569.           Intra module refs:   ed_options_handler
                                                   edchat_onkey
           ENTRY                   ADDRESS         REF BY
           =====                   =======         ======
           FindNextActiveContact   0000B9EC 
    -------------------------------------------------------------------------
CODE
  Relative segment, address: CODE_AREA 0000BA2C - 0000BA83 (0x58 bytes), align: 2
  Segment part 571.           Intra module refs:   ed_options_handler
                                                   edchat_onkey
           ENTRY                   ADDRESS         REF BY
           =====                   =======         ======
           FindPrevActiveContact   0000BA2C 
    -------------------------------------------------------------------------
CODE
  Relative segment, address: CODE_AREA 0000BA84 - 0000BA87 (0x4 bytes), align: 2
  Segment part 572.           Intra module refs:   FindNextActiveContact
                                                   FindPrevActiveContact
    -------------------------------------------------------------------------
CODE
  Relative segment, address: CODE_AREA 0000BA88 - 0000BF3B (0x4b4 bytes), align: 2
  Segment part 574.           Intra module refs:   edchat_onkey
           ENTRY                   ADDRESS         REF BY
           =====                   =======         ======
           ed_options_handler      0000BA88 
               stack 1 = 00000000 ( 00000074 )
    -------------------------------------------------------------------------
CODE
  Relative segment, address: CODE_AREA 0000BF3C - 0000BF3F (0x4 bytes), align: 2
  Segment part 575.           Intra module refs:   addIconBar
                                                   ed_options_handler
                                                   main
    -------------------------------------------------------------------------
CODE
  Relative segment, address: CODE_AREA 0000BF40 - 0000BF43 (0x4 bytes), align: 2
  Segment part 576.           Intra module refs:   ed_options_handler
    -------------------------------------------------------------------------
CODE
  Relative segment, address: CODE_AREA 0000BF44 - 0000BFBF (0x7c bytes), align: 2
  Segment part 578.           Intra module refs:   IsUrl
           ENTRY                   ADDRESS         REF BY
           =====                   =======         ======
           wstrstr                 0000BF44 
               stack 1 = 00000000 ( 00000020 )
    -------------------------------------------------------------------------
CODE
  Relative segment, address: CODE_AREA 0000BFC0 - 0000C167 (0x1a8 bytes), align: 2
  Segment part 580.           Intra module refs:   edchat_onkey
           ENTRY                   ADDRESS         REF BY
           =====                   =======         ======
           IsUrl                   0000BFC0 
               stack 1 = 00000000 ( 0000002C )
    -------------------------------------------------------------------------
CODE
  Relative segment, address: CODE_AREA 0000C168 - 0000C38B (0x224 bytes), align: 2
  Segment part 582.           Intra module refs:   AddMsgToChat
                                                   CreateEditChat
           ENTRY                   ADDRESS         REF BY
           =====                   =======         ======
           ParseAnswer             0000C168 
               stack 1 = 00000000 ( 00000024 )
    -------------------------------------------------------------------------
CODE
  Relative segment, address: CODE_AREA 0000C38C - 0000C38F (0x4 bytes), align: 2
  Segment part 583.           Intra module refs:   IsUrl
                                                   ParseAnswer
    -------------------------------------------------------------------------
CODE
  Relative segment, address: CODE_AREA 0000C390 - 0000C3B3 (0x24 bytes), align: 2
  Segment part 585.           Intra module refs:   edchat_ghook
                                                   edchat_onkey
           ENTRY                   ADDRESS         REF BY
           =====                   =======         ======
           SaveAnswer              0000C390 
               stack 1 = 00000000 ( 0000000C )
    -------------------------------------------------------------------------
CODE
  Relative segment, address: CODE_AREA 0000C3B4 - 0000C45F (0xac bytes), align: 2
  Segment part 587.           Intra module refs:   edchat_onkey
           ENTRY                   ADDRESS         REF BY
           =====                   =======         ======
           GetTempName             0000C3B4 
               stack 1 = 00000000 ( 00000014 )
    -------------------------------------------------------------------------
CODE
  Relative segment, address: CODE_AREA 0000C460 - 0000CA6F (0x610 bytes), align: 2
  Segment part 594.           Intra module refs:   Segment part 41
           ENTRY                   ADDRESS         REF BY
           =====                   =======         ======
           edchat_onkey            0000C460 
               stack 1 = 00000000 ( 0000015C )
    -------------------------------------------------------------------------
CODE
  Relative segment, address: CODE_AREA 0000CA70 - 0000CA73 (0x4 bytes), align: 2
  Segment part 595.           Intra module refs:   edchat_onkey
    -------------------------------------------------------------------------
CODE
  Relative segment, address: CODE_AREA 0000CA74 - 0000CA77 (0x4 bytes), align: 2
  Segment part 596.           Intra module refs:   edchat_onkey
    -------------------------------------------------------------------------
CODE
  Relative segment, address: CODE_AREA 0000CA78 - 0000CA7B (0x4 bytes), align: 2
  Segment part 597.           Intra module refs:   edchat_onkey
    -------------------------------------------------------------------------
CODE
  Relative segment, address: CODE_AREA 0000CA7C - 0000CA7F (0x4 bytes), align: 2
  Segment part 598.           Intra module refs:   edchat_onkey
    -------------------------------------------------------------------------
CODE
  Relative segment, address: CODE_AREA 0000CA80 - 0000CA83 (0x4 bytes), align: 2
  Segment part 599.           Intra module refs:   edchat_onkey
    -------------------------------------------------------------------------
CODE
  Relative segment, address: CODE_AREA 0000CA84 - 0000CAEF (0x6c bytes), align: 2
  Segment part 601.           Intra module refs:   edchat_ghook
           ENTRY                   ADDRESS         REF BY
           =====                   =======         ======
           my_ed_redraw            0000CA84 
               stack 1 = 00000000 ( 0000000C )
    -------------------------------------------------------------------------
CODE
  Relative segment, address: CODE_AREA 0000CAF0 - 0000CD0F (0x220 bytes), align: 2
  Segment part 603.           Intra module refs:   Segment part 41
           ENTRY                   ADDRESS         REF BY
           =====                   =======         ======
           edchat_ghook            0000CAF0 
               stack 1 = 00000000 ( 00000048 )
    -------------------------------------------------------------------------
CODE
  Relative segment, address: CODE_AREA 0000CD10 - 0000CD13 (0x4 bytes), align: 2
  Segment part 604.           Intra module refs:   edchat_ghook
                                                   edchat_onkey
    -------------------------------------------------------------------------
DATA_Z
  Relative segment, address: CODE_AREA 000158C8 - 00017767 (0x1ea0 bytes), align: 2
  Segment part 96.            Intra module refs:   DrawAck
                                                   DrawPing
                                                   IlluminationOn
                                                   InputAwayMsg
                                                   Play
                                                   Reminder_timer
                                                   SMART_REDRAW
                                                   Segment part 120
                                                   Segment part 123
                                                   Segment part 197
                                                   Segment part 211
                                                   Segment part 263
                                                   Segment part 267
                                                   Segment part 310
                                                   Segment part 324
                                                   Segment part 329
                                                   Segment part 349
                                                   Segment part 378
                                                   Segment part 429
                                                   Segment part 452
                                                   Segment part 470
                                                   Segment part 483
                                                   Segment part 486
                                                   Segment part 520
                                                   Segment part 527
                                                   Segment part 572
                                                   Segment part 575
                                                   Segment part 604
                                                   Segment part 607
                                                   begin_to_develop
                                                   checkGui
                                                   init_time_zone
                                                   set_my_status
                                                   start_vibra2
           ENTRY                   ADDRESS         REF BY
           =====                   =======         ======
           ALLTOTALRECEIVED        00015B5C        reftes (screen_save)
           ALLTOTALSENDED          00015B60        reftes (screen_save)
           ContactT9Key            00015D4C        FindContactByNS (cl_work)
           CurrentPrivateStatus    00015B44        Segment part 48 (manage_cl)
                                                   reftes (screen_save)
           CurrentStatus           00015AF8        Segment part 51 (status_change)
                                                   menuitemhandler (mainmenu)
           CurrentXStatus          00015AFC        GetTags (player_tags)
                                                   Segment part 73 (status_change)
                                                   menuitemhandler (mainmenu)
           GROUP_CACHE             00015B6C 
           INC_show                00015C00 
           INC_show2               00015C04 
           I_UIN                   000174D4 
           Is_Double_Vibra_On      00015ADC        Segment part 89 (mainmenu)
                                                   reftes (screen_save)
                                                   xst_onkey (status_change)
           Is_ILU_On               00015AD8        Segment part 90 (mainmenu)
                                                   xst_onkey (status_change)
           Is_INC_On               00015AD4        Segment part 87 (mainmenu)
                                                   xst_onkey (status_change)
           Is_Id3tag_Enabled       00015AF4        GetTags (player_tags)
                                                   Segment part 83 (mainmenu)
                                                   xst_onkey (status_change)
           Is_PING_On              00015ACC        Segment part 91 (mainmenu)
                                                   xst_onkey (status_change)
           Is_SMARTCPU_On          00015AD0        Segment part 88 (mainmenu)
                                                   xst_onkey (status_change)
           Is_Show_Groups          00015B40        Segment part 37 (cl_work)
                                                   Segment part 94 (mainmenu)
                                                   xst_onkey (status_change)
           Is_Show_Offline         00015B3C        FindContactByNS (cl_work)
                                                   Segment part 93 (mainmenu)
                                                   xst_onkey (status_change)
           Is_Sounds_Enabled       00015B38        Segment part 86 (mainmenu)
                                                   reftes (screen_save)
                                                   xst_onkey (status_change)
           Is_UPTIME_On            00015B18        Segment part 92 (mainmenu)
                                                   xst_onkey (status_change)
           Is_Vibra_Enabled        00015AF0        Segment part 85 (mainmenu)
                                                   reftes (screen_save)
                                                   xst_onkey (status_change)
           NEW_MSG                 00015BF4 
           PINGO                   00016E3C        reftes (screen_save)
           SENDMSGCOUNT            00015AEC        CheckComand2 (addon)
           S_ICONS                 000158C8        InitXStatusesImg (smiles_loader)
                                                   Segment part 29 (manage_cl)
                                                   Segment part 50 (status_change)
                                                   ShowMainMenu (mainmenu)
                                                   menuitemhandler (mainmenu)
           Show_XTX                00015B14        xst_onkey (status_change)
           TOTALRECEIVED           00015B54 
           TOTALSENDED             00015B58 
           a_txt                   000174E0 
           autoChangeStatus        000170C4 
           away_m                  00015B08        Segment part 84 (mainmenu)
                                                   reftes (screen_save)
                                                   st_onkey (status_change)
           away_msg                00016F4C 
           away_msg_time           00017054 
           away_msg_time_dace      00017094        reftes (screen_save)
           away_tmr                000170B4        AutoAwayMSG (mainmenu)
           canvasdata              00015AB8        Segment part 62 (print)
           change_back_status      00015B10 
           clm_hdr_text            000172C4 
           clmenu_sk_r             00017304 
           cltop                   00015B68        CheckComand2 (addon)
                                                   CreateAddContactGrpDialog (manage_cl)
                                                   Segment part 38 (cl_work)
           comanda                 00015BFC        CheckComand2 (addon)
           contactlist_menu_id     00015B70 
           d_txt                   00017540 
           def_set                 00015954        xst_onkey (status_change)
           develop                 000175D0 
           disautorecconect        00015B34        CheckComand2 (addon)
                                                   Disconnect (mainmenu)
           edchat_id               00015B74 
           elf_path                00015C4C 
           ews                     00015B00 
           f_txt                   00017570 
           g_txt                   000175A0 
           gipc                    0001593C        CheckComand2 (addon)
           gui_methods2            00015B88 
           hostbuf2                000173D4        reftes (screen_save)
           hostname                00017454 
           incs2                   00017748 
           input_awaymsg_id        00015B2C 
           kopa_kontaktu           00015B84        reftes (screen_save)
           kopa_online             00015B80        reftes (screen_save)
           last_msg_buffer         00015E2C 
           logmsg                  00017184 
           main_d                  00015AB4        AutoAwayMSG (mainmenu)
           main_msg_timer2         00015BF0 
           maincsm_id              00015AE4        UpdateConfig (configs)
           maingui_id              00015AE8 
           mod_info                000175E0 
           old_ed_redraw           00015C08 
           old_redraw              00015BE8 
           onContact               00017708 
           on_off_buf              00017314 
           onlineTime              00017104 
           paused_height           00015ABC 
           ping_time               00015BEC 
           ping_tmr                00016E2C 
           reconnect_tmr           000172A4 
           remind_tmr              000170D4 
           s_txt                   00017510 
           saver_on                00015AC8        Segment part 48 (screen_save)
           scrsTime                00015B04 
           scrsTmr                 00016F3C 
           show_nick               000176E8 
           silenthide              00015B30        CheckComand2 (addon)
           status                  00017394 
           status_rem              00015B0C 
           talk_sound              00015D6C 
           templates_chars         00015B4C 
           templates_lines         00015B50 
           tenseconds_to_ping      00015B7C 
           tim_zone                000170A4 
           time_to_stop_t9         00015BF8 
           tm22                    00017758 
           tmr_active              000172B4 
           tmr_gipc                00015948 
           tmr_illumination        00017284 
           tmr_vibra               00017294 
           total_unread            00015B64 
           total_unread2           00015AE0 
           tracktimer              00015B28 
           tracktmr                000170F4 
           uins                    00015AC4 
           unread_msg_info         00015DEC 
           uptimeHour              00015B1C        reftes (screen_save)
           uptimeMin               00015B20        reftes (screen_save)
           uptimeSec               00015B24        reftes (screen_save)
           uptime_tmr              000170E4 
           vibra_count             00015B48        CheckComand2 (addon)
           wsBuffer                00015AC0 
    -------------------------------------------------------------------------
DATA_Z
  Relative segment, address: CODE_AREA 00017768 - 0001B76F (0x4008 bytes), align: 2
  Segment part 118.           Intra module refs:   get_answer
           ENTRY                   ADDRESS         REF BY
           =====                   =======         ======
           RXbuf                   00017768 
    -------------------------------------------------------------------------
DATA_Z
  Relative segment, address: CODE_AREA 0001B770 - 0001B7BB (0x4c bytes), align: 2
  Segment part 128.           Intra module refs:   Segment part 19
                                                   Segment part 300
                                                   Segment part 305
           ENTRY                   ADDRESS         REF BY
           =====                   =======         ======
           cont_hdr                0001B77C 
    -------------------------------------------------------------------------
DATA_Z
  Relative segment, address: CODE_AREA 0001B7BC - 0001B7C3 (0x8 bytes), align: 2
  Segment part 134.           Intra module refs:   Segment part 415
                                                   Segment part 422
           ENTRY                   ADDRESS         REF BY
           =====                   =======         ======
           cmd_chars               0001B7BC 
           cmd_lines               0001B7C0 
    -------------------------------------------------------------------------
DATA_Z
  Relative segment, address: CODE_AREA 0001B7C4 - 0001B7CB (0x8 bytes), align: 2
  Segment part 142.           Intra module refs:   Segment part 478
           ENTRY                   ADDRESS         REF BY
           =====                   =======         ======
           itemFromDisp            0001B7C4 
           totalItems              0001B7C8 
    -------------------------------------------------------------------------
DATA_Z
  Relative segment, address: CODE_AREA 0001B7CC - 0001B8E3 (0x118 bytes), align: 2
  Segment part 148.           Intra module refs:   Segment part 98
           ENTRY                   ADDRESS         REF BY
           =====                   =======         ======
           maincsm_name_body       0001B7CC 
    -------------------------------------------------------------------------
DATA_C
  Relative segment, address: CODE_AREA 00013A8C - 00013ADF (0x54 bytes), align: 2
  Segment part 41.            Intra module refs:   CreateEditChat
    -------------------------------------------------------------------------
DATA_C
  Relative segment, address: CODE_AREA 00013AE0 - 00013AEF (0x10 bytes), align: 2
  Segment part 42.            Intra module refs:   GetShortInfo
    -------------------------------------------------------------------------
DATA_C
  Relative segment, address: CODE_AREA 00013AF0 - 00013B03 (0x14 bytes), align: 2
  Segment part 43.            Intra module refs:   SendAuthReq
    -------------------------------------------------------------------------
DATA_C
  Relative segment, address: CODE_AREA 00013B04 - 00013B13 (0x10 bytes), align: 2
  Segment part 44.            Intra module refs:   SendAuthGrant
    -------------------------------------------------------------------------
DATA_C
  Relative segment, address: CODE_AREA 00013B14 - 00013B53 (0x40 bytes), align: 2
  Segment part 45.            Intra module refs:   OpenLogfile
    -------------------------------------------------------------------------
DATA_C
  Relative segment, address: CODE_AREA 00013B54 - 00013B5F (0xc bytes), align: 2
  Segment part 47.            Intra module refs:   Segment part 108
    -------------------------------------------------------------------------
DATA_C
  Relative segment, address: CODE_AREA 00013B60 - 00013B6F (0x10 bytes), align: 2
  Segment part 48.            Intra module refs:   Segment part 108
    -------------------------------------------------------------------------
DATA_C
  Relative segment, address: CODE_AREA 00013B70 - 00013B7B (0xc bytes), align: 2
  Segment part 49.            Intra module refs:   Segment part 108
    -------------------------------------------------------------------------
DATA_C
  Relative segment, address: CODE_AREA 00013B7C - 00013B83 (0x8 bytes), align: 2
  Segment part 50.            Intra module refs:   Segment part 108
    -------------------------------------------------------------------------
DATA_C
  Relative segment, address: CODE_AREA 00013B84 - 00013B93 (0x10 bytes), align: 2
  Segment part 51.            Intra module refs:   Segment part 108
    -------------------------------------------------------------------------
DATA_C
  Relative segment, address: CODE_AREA 00013B94 - 00013B9B (0x8 bytes), align: 2
  Segment part 52.            Intra module refs:   Segment part 108
    -------------------------------------------------------------------------
DATA_C
  Relative segment, address: CODE_AREA 00013B9C - 00013BAB (0x10 bytes), align: 2
  Segment part 53.            Intra module refs:   Segment part 108
    -------------------------------------------------------------------------
DATA_C
  Relative segment, address: CODE_AREA 00013BAC - 00013BB7 (0xc bytes), align: 2
  Segment part 54.            Intra module refs:   Segment part 108
    -------------------------------------------------------------------------
DATA_C
  Relative segment, address: CODE_AREA 00013BB8 - 00013BC3 (0xc bytes), align: 2
  Segment part 55.            Intra module refs:   Segment part 108
    -------------------------------------------------------------------------
DATA_C
  Relative segment, address: CODE_AREA 00013BC4 - 00013BCF (0xc bytes), align: 2
  Segment part 56.            Intra module refs:   Segment part 108
    -------------------------------------------------------------------------
DATA_C
  Relative segment, address: CODE_AREA 00013BD0 - 00013BDB (0xc bytes), align: 2
  Segment part 57.            Intra module refs:   Segment part 108
    -------------------------------------------------------------------------
DATA_C
  Relative segment, address: CODE_AREA 00013BDC - 00013BE7 (0xc bytes), align: 2
  Segment part 58.            Intra module refs:   Segment part 108
    -------------------------------------------------------------------------
DATA_C
  Relative segment, address: CODE_AREA 00013BE8 - 00013BEF (0x8 bytes), align: 2
  Segment part 59.            Intra module refs:   Segment part 108
    -------------------------------------------------------------------------
DATA_C
  Relative segment, address: CODE_AREA 00013BF0 - 00013BFB (0xc bytes), align: 2
  Segment part 60.            Intra module refs:   Segment part 108
    -------------------------------------------------------------------------
DATA_C
  Relative segment, address: CODE_AREA 00013BFC - 00013C07 (0xc bytes), align: 2
  Segment part 61.            Intra module refs:   Segment part 108
    -------------------------------------------------------------------------
DATA_C
  Relative segment, address: CODE_AREA 00013C08 - 00013C13 (0xc bytes), align: 2
  Segment part 62.            Intra module refs:   Segment part 108
    -------------------------------------------------------------------------
DATA_C
  Relative segment, address: CODE_AREA 00013C14 - 00013C23 (0x10 bytes), align: 2
  Segment part 63.            Intra module refs:   Segment part 108
    -------------------------------------------------------------------------
DATA_C
  Relative segment, address: CODE_AREA 00013C24 - 00013C2F (0xc bytes), align: 2
  Segment part 64.            Intra module refs:   Segment part 108
    -------------------------------------------------------------------------
DATA_C
  Relative segment, address: CODE_AREA 00013C30 - 00013C3B (0xc bytes), align: 2
  Segment part 65.            Intra module refs:   Segment part 108
    -------------------------------------------------------------------------
DATA_C
  Relative segment, address: CODE_AREA 00013C3C - 00013C47 (0xc bytes), align: 2
  Segment part 66.            Intra module refs:   Segment part 108
    -------------------------------------------------------------------------
DATA_C
  Relative segment, address: CODE_AREA 00013C48 - 00013C53 (0xc bytes), align: 2
  Segment part 67.            Intra module refs:   Segment part 108
    -------------------------------------------------------------------------
DATA_C
  Relative segment, address: CODE_AREA 00013C54 - 00013C5F (0xc bytes), align: 2
  Segment part 68.            Intra module refs:   Segment part 108
    -------------------------------------------------------------------------
DATA_C
  Relative segment, address: CODE_AREA 00013C60 - 00013C6F (0x10 bytes), align: 2
  Segment part 69.            Intra module refs:   Segment part 108
    -------------------------------------------------------------------------
DATA_C
  Relative segment, address: CODE_AREA 00013C70 - 00013C7B (0xc bytes), align: 2
  Segment part 70.            Intra module refs:   Segment part 108
    -------------------------------------------------------------------------
DATA_C
  Relative segment, address: CODE_AREA 00013C7C - 00013C87 (0xc bytes), align: 2
  Segment part 71.            Intra module refs:   Segment part 108
    -------------------------------------------------------------------------
DATA_C
  Relative segment, address: CODE_AREA 00013C88 - 00013C93 (0xc bytes), align: 2
  Segment part 72.            Intra module refs:   Segment part 108
    -------------------------------------------------------------------------
DATA_C
  Relative segment, address: CODE_AREA 00013C94 - 00013C9F (0xc bytes), align: 2
  Segment part 73.            Intra module refs:   Segment part 108
    -------------------------------------------------------------------------
DATA_C
  Relative segment, address: CODE_AREA 00013CA0 - 00013CAB (0xc bytes), align: 2
  Segment part 74.            Intra module refs:   Segment part 108
    -------------------------------------------------------------------------
DATA_C
  Relative segment, address: CODE_AREA 00013CAC - 00013CBF (0x14 bytes), align: 2
  Segment part 75.            Intra module refs:   Segment part 7
    -------------------------------------------------------------------------
DATA_C
  Relative segment, address: CODE_AREA 00013CC0 - 00013CC3 (0x4 bytes), align: 2
  Segment part 76.            Intra module refs:   Segment part 114
    -------------------------------------------------------------------------
DATA_C
  Relative segment, address: CODE_AREA 00013CC4 - 00013CCB (0x8 bytes), align: 2
  Segment part 77.            Intra module refs:   Segment part 114
    -------------------------------------------------------------------------
DATA_C
  Relative segment, address: CODE_AREA 00013CCC - 00013CD3 (0x8 bytes), align: 2
  Segment part 78.            Intra module refs:   Segment part 122
                                                   Segment part 132
                                                   Segment part 150
                                                   cmd_sk
    -------------------------------------------------------------------------
DATA_C
  Relative segment, address: CODE_AREA 00013CD4 - 00013CDB (0x8 bytes), align: 2
  Segment part 79.            Intra module refs:   Segment part 123
    -------------------------------------------------------------------------
DATA_C
  Relative segment, address: CODE_AREA 00013CDC - 00013CE3 (0x8 bytes), align: 2
  Segment part 80.            Intra module refs:   Segment part 13
    -------------------------------------------------------------------------
DATA_C
  Relative segment, address: CODE_AREA 00013CE4 - 00013CEB (0x8 bytes), align: 2
  Segment part 81.            Intra module refs:   Segment part 13
    -------------------------------------------------------------------------
DATA_C
  Relative segment, address: CODE_AREA 00013CEC - 00013CFB (0x10 bytes), align: 2
  Segment part 82.            Intra module refs:   Segment part 13
    -------------------------------------------------------------------------
DATA_C
  Relative segment, address: CODE_AREA 00013CFC - 00013D0B (0x10 bytes), align: 2
  Segment part 83.            Intra module refs:   Segment part 13
    -------------------------------------------------------------------------
DATA_C
  Relative segment, address: CODE_AREA 00013D0C - 00013D13 (0x8 bytes), align: 2
  Segment part 84.            Intra module refs:   Segment part 132
    -------------------------------------------------------------------------
DATA_C
  Relative segment, address: CODE_AREA 00014E4C - 00014E4C (0x1 bytes), align: 0
  Segment part 85.            Intra module refs:   cmd_sk
    -------------------------------------------------------------------------
DATA_C
  Relative segment, address: CODE_AREA 00013D14 - 00013D1F (0xc bytes), align: 2
  Segment part 86.            Intra module refs:   Segment part 151
    -------------------------------------------------------------------------
DATA_C
  Relative segment, address: CODE_AREA 00013D20 - 00013D3B (0x1c bytes), align: 2
  Segment part 87.            Intra module refs:   Segment part 151
    -------------------------------------------------------------------------
DATA_C
  Relative segment, address: CODE_AREA 00013D3C - 00013D4B (0x10 bytes), align: 2
  Segment part 88.            Intra module refs:   Segment part 151
    -------------------------------------------------------------------------
DATA_C
  Relative segment, address: CODE_AREA 00013D4C - 00013D5B (0x10 bytes), align: 2
  Segment part 89.            Intra module refs:   Segment part 151
    -------------------------------------------------------------------------
DATA_C
  Relative segment, address: CODE_AREA 00013D5C - 00013D67 (0xc bytes), align: 2
  Segment part 90.            Intra module refs:   Segment part 151
    -------------------------------------------------------------------------
DATA_C
  Relative segment, address: CODE_AREA 00013D68 - 00013D77 (0x10 bytes), align: 2
  Segment part 91.            Intra module refs:   Segment part 151
    -------------------------------------------------------------------------
DATA_C
  Relative segment, address: CODE_AREA 00013D78 - 00013D87 (0x10 bytes), align: 2
  Segment part 92.            Intra module refs:   Segment part 151
    -------------------------------------------------------------------------
DATA_C
  Relative segment, address: CODE_AREA 00013D88 - 00013D97 (0x10 bytes), align: 2
  Segment part 93.            Intra module refs:   Segment part 151
    -------------------------------------------------------------------------
DATA_C
  Relative segment, address: CODE_AREA 00013D98 - 00013DA7 (0x10 bytes), align: 2
  Segment part 94.            Intra module refs:   Segment part 151
    -------------------------------------------------------------------------
DATA_C
  Relative segment, address: CODE_AREA 00013DA8 - 00013E0B (0x64 bytes), align: 2
  Segment part 95.            Intra module refs:   away_timer
    -------------------------------------------------------------------------
DATA_C
  Relative segment, address: CODE_AREA 00013E0C - 00013E7B (0x70 bytes), align: 2
  Segment part 108.           Intra module refs:   setup_ICONS
    -------------------------------------------------------------------------
DATA_C
  Relative segment, address: CODE_AREA 00013E7C - 00013EAB (0x30 bytes), align: 2
  Segment part 117.           Intra module refs:   Segment part 220
           ENTRY                   ADDRESS         REF BY
           =====                   =======         ======
           def_sett                00013E94 
           def_setting             00013E7C 
    -------------------------------------------------------------------------
DATA_C
  Relative segment, address: CODE_AREA 00013EAC - 00013EEF (0x44 bytes), align: 2
  Segment part 120.           Intra module refs:   create_contactlist_menu
    -------------------------------------------------------------------------
DATA_C
  Relative segment, address: CODE_AREA 00013EF0 - 00013EFB (0xc bytes), align: 2
  Segment part 121.           Intra module refs:   Segment part 120
                                                   Segment part 154
    -------------------------------------------------------------------------
DATA_C
  Relative segment, address: CODE_AREA 00013EFC - 00013F13 (0x18 bytes), align: 2
  Segment part 122.           Intra module refs:   menu_skt
    -------------------------------------------------------------------------
DATA_C
  Relative segment, address: CODE_AREA 00013F14 - 00013F2B (0x18 bytes), align: 2
  Segment part 123.           Intra module refs:   Segment part 125
    -------------------------------------------------------------------------
DATA_C
  Relative segment, address: CODE_AREA 00013F2C - 00013F33 (0x8 bytes), align: 2
  Segment part 124.           Intra module refs:   Segment part 154
                                                   Segment part 41
           ENTRY                   ADDRESS         REF BY
           =====                   =======         ======
           menu_skt                00013F2C 
    -------------------------------------------------------------------------
DATA_C
  Relative segment, address: CODE_AREA 00013F34 - 00013F3B (0x8 bytes), align: 2
  Segment part 125.           Intra module refs:   Segment part 120
    -------------------------------------------------------------------------
DATA_C
  Relative segment, address: CODE_AREA 00013F3C - 00013F47 (0xc bytes), align: 2
  Segment part 131.           Intra module refs:   Segment part 19
    -------------------------------------------------------------------------
DATA_C
  Relative segment, address: CODE_AREA 00013F48 - 00013F5F (0x18 bytes), align: 2
  Segment part 132.           Intra module refs:   _skt
    -------------------------------------------------------------------------
DATA_C
  Relative segment, address: CODE_AREA 00013F60 - 00013F67 (0x8 bytes), align: 2
  Segment part 133.           Intra module refs:   Segment part 19
           ENTRY                   ADDRESS         REF BY
           =====                   =======         ======
           _skt                    00013F60 
    -------------------------------------------------------------------------
DATA_C
  Relative segment, address: CODE_AREA 00013F68 - 00013F73 (0xc bytes), align: 2
  Segment part 137.           Intra module refs:   Segment part 27
           ENTRY                   ADDRESS         REF BY
           =====                   =======         ======
           CmdSoftkeys             00013F68 
    -------------------------------------------------------------------------
DATA_C
  Relative segment, address: CODE_AREA 00013F74 - 00013F8B (0x18 bytes), align: 2
  Segment part 138.           Intra module refs:   cmd_Back_skt
           ENTRY                   ADDRESS         REF BY
           =====                   =======         ======
           cmd_sk                  00013F74 
    -------------------------------------------------------------------------
DATA_C
  Relative segment, address: CODE_AREA 00013F8C - 00013F93 (0x8 bytes), align: 2
  Segment part 139.           Intra module refs:   Segment part 27
           ENTRY                   ADDRESS         REF BY
           =====                   =======         ======
           cmd_Back_skt            00013F8C 
    -------------------------------------------------------------------------
DATA_C
  Relative segment, address: CODE_AREA 00013F94 - 00013F97 (0x4 bytes), align: 2
  Segment part 147.           Intra module refs:   Segment part 98
           ENTRY                   ADDRESS         REF BY
           =====                   =======         ======
           minus11                 00013F94 
    -------------------------------------------------------------------------
DATA_C
  Relative segment, address: CODE_AREA 00013F98 - 00013FCB (0x34 bytes), align: 2
  Segment part 149.           Intra module refs:   GetTempName
    -------------------------------------------------------------------------
DATA_C
  Relative segment, address: CODE_AREA 00013FCC - 00013FDB (0x10 bytes), align: 2
  Segment part 150.           Intra module refs:   edchat_ghook
    -------------------------------------------------------------------------
CODE
  Relative segment, address: CODE_AREA 0000CD14 - 0000D17F (0x46c bytes), align: 2
  Segment part 606.           Intra module refs:   contactlist_menu_onkey
                                                   ed_options_handler
                                                   edchat_onkey
           ENTRY                   ADDRESS         REF BY
           =====                   =======         ======
           CreateEditChat          0000CD14 
               stack 1 = 00000000 ( 00000064 )
    -------------------------------------------------------------------------
CODE
  Relative segment, address: CODE_AREA 0000D180 - 0000D183 (0x4 bytes), align: 2
  Segment part 607.           Intra module refs:   CreateEditChat
                                                   my_ed_redraw
    -------------------------------------------------------------------------
CODE
  Relative segment, address: CODE_AREA 0000D184 - 0000D187 (0x4 bytes), align: 2
  Segment part 608.           Intra module refs:   CreateEditChat
    -------------------------------------------------------------------------
CODE
  Relative segment, address: CODE_AREA 0000D188 - 0000D18B (0x4 bytes), align: 2
  Segment part 609.           Intra module refs:   CreateEditChat
    -------------------------------------------------------------------------
CODE
  Relative segment, address: CODE_AREA 0000D18C - 0000D18F (0x4 bytes), align: 2
  Segment part 610.           Intra module refs:   CreateEditChat
    -------------------------------------------------------------------------
CODE
  Relative segment, address: CODE_AREA 0000D190 - 0000D193 (0x4 bytes), align: 2
  Segment part 611.           Intra module refs:   CreateEditChat
    -------------------------------------------------------------------------
CODE
  Relative segment, address: CODE_AREA 0000D194 - 0000D197 (0x4 bytes), align: 2
  Segment part 612.           Intra module refs:   CreateEditChat
    -------------------------------------------------------------------------
CODE
  Relative segment, address: CODE_AREA 0000D198 - 0000D19B (0x4 bytes), align: 2
  Segment part 613.           Intra module refs:   CreateEditChat
    -------------------------------------------------------------------------
CODE
  Relative segment, address: CODE_AREA 0000D19C - 0000D19F (0x4 bytes), align: 2
  Segment part 614.           Intra module refs:   CreateEditChat
    -------------------------------------------------------------------------
CODE
  Relative segment, address: CODE_AREA 0000D1A0 - 0000D1A3 (0x4 bytes), align: 2
  Segment part 615.           Intra module refs:   CreateEditChat
    -------------------------------------------------------------------------
CODE
  Relative segment, address: CODE_AREA 0000D1A4 - 0000D1A7 (0x4 bytes), align: 2
  Segment part 616.           Intra module refs:   CreateEditChat
    -------------------------------------------------------------------------
CODE
  Relative segment, address: CODE_AREA 0000D1A8 - 0000D1AB (0x4 bytes), align: 2
  Segment part 617.           Intra module refs:   CreateEditChat
    -------------------------------------------------------------------------
CODE
  Relative segment, address: CODE_AREA 0000D1AC - 0000D1AF (0x4 bytes), align: 2
  Segment part 618.           Intra module refs:   CreateEditChat
    -------------------------------------------------------------------------
CODE
  Relative segment, address: CODE_AREA 0000D1B0 - 0000D1B3 (0x4 bytes), align: 2
  Segment part 619.           Intra module refs:   CreateEditChat
    -------------------------------------------------------------------------
CODE
  Relative segment, address: CODE_AREA 0000D1B4 - 0000D1B7 (0x4 bytes), align: 2
  Segment part 620.           Intra module refs:   CreateEditChat
    -------------------------------------------------------------------------
CODE
  Relative segment, address: CODE_AREA 0000D1B8 - 0000D1BB (0x4 bytes), align: 2
  Segment part 621.           Intra module refs:   CreateEditChat
    -------------------------------------------------------------------------
CODE
  Relative segment, address: CODE_AREA 0000D1BC - 0000D35B (0x1a0 bytes), align: 2
  Segment part 623.           Intra module refs:   Segment part 152
           ENTRY                   ADDRESS         REF BY
           =====                   =======         ======
           Quote                   0000D1BC 
               stack 1 = 00000000 ( 00000098 )
    -------------------------------------------------------------------------
CODE
  Relative segment, address: CODE_AREA 0000D35C - 0000D513 (0x1b8 bytes), align: 2
  Segment part 625.           Intra module refs:   Segment part 152
           ENTRY                   ADDRESS         REF BY
           =====                   =======         ======
           Quote2                  0000D35C 
               stack 1 = 00000000 ( 00000098 )
    -------------------------------------------------------------------------
CODE
  Relative segment, address: CODE_AREA 0000D514 - 0000D5BB (0xa8 bytes), align: 2
  Segment part 627.           Intra module refs:   Segment part 152
           ENTRY                   ADDRESS         REF BY
           =====                   =======         ======
           GetShortInfo            0000D514 
               stack 1 = 00000000 ( 00000018 )
    -------------------------------------------------------------------------
CODE
  Relative segment, address: CODE_AREA 0000D5BC - 0000D5EF (0x34 bytes), align: 2
  Segment part 629.           Intra module refs:   Segment part 152
           ENTRY                   ADDRESS         REF BY
           =====                   =======         ======
           AddCurContact           0000D5BC 
               stack 1 = 00000000 ( 00000004 )
    -------------------------------------------------------------------------
CODE
  Relative segment, address: CODE_AREA 0000D5F0 - 0000D6C3 (0xd4 bytes), align: 2
  Segment part 631.           Intra module refs:   Segment part 152
           ENTRY                   ADDRESS         REF BY
           =====                   =======         ======
           SendAuthReq             0000D5F0 
               stack 1 = 00000000 ( 00000030 )
    -------------------------------------------------------------------------
CODE
  Relative segment, address: CODE_AREA 0000D6C4 - 0000D6C7 (0x4 bytes), align: 2
  Segment part 632.           Intra module refs:   GetShortInfo
                                                   SendAuthReq
                                                   edchat_onkey
    -------------------------------------------------------------------------
CODE
  Relative segment, address: CODE_AREA 0000D6C8 - 0000D6CB (0x4 bytes), align: 2
  Segment part 633.           Intra module refs:   GetShortInfo
                                                   SendAuthReq
                                                   edchat_onkey
    -------------------------------------------------------------------------
CODE
  Relative segment, address: CODE_AREA 0000D6CC - 0000D79B (0xd0 bytes), align: 2
  Segment part 635.           Intra module refs:   Segment part 152
           ENTRY                   ADDRESS         REF BY
           =====                   =======         ======
           SendAuthGrant           0000D6CC 
               stack 1 = 00000000 ( 0000002C )
    -------------------------------------------------------------------------
CODE
  Relative segment, address: CODE_AREA 0000D79C - 0000D79F (0x4 bytes), align: 2
  Segment part 636.           Intra module refs:   SendAuthGrant
    -------------------------------------------------------------------------
CODE
  Relative segment, address: CODE_AREA 0000D7A0 - 0000D7A3 (0x4 bytes), align: 2
  Segment part 637.           Intra module refs:   SendAuthGrant
    -------------------------------------------------------------------------
CODE
  Relative segment, address: CODE_AREA 0000D7A4 - 0000D887 (0xe4 bytes), align: 2
  Segment part 639.           Intra module refs:   Segment part 152
           ENTRY                   ADDRESS         REF BY
           =====                   =======         ======
           OpenLogfile             0000D7A4 
               stack 1 = 00000000 ( 00000014 )
    -------------------------------------------------------------------------
CODE
  Relative segment, address: CODE_AREA 0000D888 - 0000D88B (0x4 bytes), align: 2
  Segment part 640.           Intra module refs:   OpenLogfile
    -------------------------------------------------------------------------
CODE
  Relative segment, address: CODE_AREA 0000D88C - 0000D97B (0xf0 bytes), align: 2
  Segment part 642.           Intra module refs:   Segment part 152
           ENTRY                   ADDRESS         REF BY
           =====                   =======         ======
           ClearLog                0000D88C 
               stack 1 = 00000000 ( 0000003C )
    -------------------------------------------------------------------------
CODE
  Relative segment, address: CODE_AREA 0000D97C - 0000D98F (0x14 bytes), align: 2
  Segment part 644.           Intra module refs:   Segment part 154
           ENTRY                   ADDRESS         REF BY
           =====                   =======         ======
           ecmenu_ghook            0000D97C 
               stack 1 = 00000000 ( 00000004 )
    -------------------------------------------------------------------------
DATA_C
  Relative segment, address: CODE_AREA 00013FDC - 000140D7 (0xfc bytes), align: 2
  Segment part 151.           Intra module refs:   Segment part 154
    -------------------------------------------------------------------------
DATA_C
  Relative segment, address: CODE_AREA 000140D8 - 000140FB (0x24 bytes), align: 2
  Segment part 152.           Intra module refs:   Segment part 154
    -------------------------------------------------------------------------
DATA_Z
  Relative segment, address: CODE_AREA 0001B8E4 - 0001B923 (0x40 bytes), align: 2
  Segment part 153.           Intra module refs:   Segment part 154
                                                   ec_menu
           ENTRY                   ADDRESS         REF BY
           =====                   =======         ======
           ecm_contactname         0001B8E4 
    -------------------------------------------------------------------------
DATA_C
  Relative segment, address: CODE_AREA 000140FC - 0001413B (0x40 bytes), align: 2
  Segment part 154.           Intra module refs:   ec_menu
    -------------------------------------------------------------------------
CODE
  Relative segment, address: CODE_AREA 0000D990 - 0000DAD7 (0x148 bytes), align: 2
  Segment part 646.           Intra module refs:   edchat_onkey
           ENTRY                   ADDRESS         REF BY
           =====                   =======         ======
           ec_menu                 0000D990 
               stack 1 = 00000000 ( 00000048 )
    -------------------------------------------------------------------------
CODE
  Relative segment, address: CODE_AREA 0000DAD8 - 0000DADB (0x4 bytes), align: 2
  Segment part 647.           Intra module refs:   AddCurContact
                                                   GetShortInfo
                                                   SendAuthGrant
                                                   SendAuthReq
                                                   ec_menu
    -------------------------------------------------------------------------
CODE
  Relative segment, address: CODE_AREA 0000DADC - 0000DAF3 (0x18 bytes), align: 2
  Segment part 651.           Intra module refs:   Segment part 152
           ENTRY                   ADDRESS         REF BY
           =====                   =======         ======
           AddSmile                0000DADC 
               stack 1 = 00000000 ( 00000004 )
    -------------------------------------------------------------------------
CODE
  Relative segment, address: CODE_AREA 0000DAF4 - 0000DAF7 (0x4 bytes), align: 2
  Segment part 676.
    -------------------------------------------------------------------------
DATA_ID
  Relative segment, address: CODE_AREA 00000004 - 00000107 (0x104 bytes), align: 2
  Segment part 98.            Intra module refs:   Segment part 97
    -------------------------------------------------------------------------
DATA_ID
  Relative segment, address: CODE_AREA 00000108 - 0000010F (0x8 bytes), align: 2
  Segment part 112.           Intra module refs:   Segment part 111
    -------------------------------------------------------------------------
DATA_ID
  Relative segment, address: CODE_AREA 00000110 - 00000127 (0x18 bytes), align: 2
  Segment part 114.           Intra module refs:   input_awaymsg_sk
    -------------------------------------------------------------------------
DATA_ID
  Relative segment, address: CODE_AREA 00000128 - 0000012F (0x8 bytes), align: 2
  Segment part 116.           Intra module refs:   input_awaymsg_skt
    -------------------------------------------------------------------------
DATA_ID
  Relative segment, address: CODE_AREA 00000130 - 0000013F (0x10 bytes), align: 2
  Segment part 130.           Intra module refs:   Segment part 129
    -------------------------------------------------------------------------
DATA_ID
  Relative segment, address: CODE_AREA 00000140 - 00000157 (0x18 bytes), align: 2
  Segment part 136.           Intra module refs:   Segment part 135

    *************************************************************************

  FILE NAME : D:\pasha\elf\_MY_PROJECT_\naticq_mod\Release\Obj\mainmenu.r79
  PROGRAM MODULE, NAME : mainmenu

  SEGMENTS IN THE MODULE
  ======================
CODE
  Relative segment, address: CODE_AREA 0000DAF8 - 0000DB23 (0x2c bytes), align: 2
  Segment part 41.            Intra module refs:   Segment part 37
           LOCAL                   ADDRESS         
           =====                   =======         
           ChangeVibraMode         0000DAF8 
               stack 1 = 00000000 ( 00000004 )
    -------------------------------------------------------------------------
CODE
  Relative segment, address: CODE_AREA 0000DB24 - 0000DB53 (0x30 bytes), align: 2
  Segment part 43.            Intra module refs:   Segment part 37
           LOCAL                   ADDRESS         
           =====                   =======         
           ChangeId3tagMode        0000DB24 
               stack 1 = 00000000 ( 00000004 )
    -------------------------------------------------------------------------
CODE
  Relative segment, address: CODE_AREA 0000DB54 - 0000DBCF (0x7c bytes), align: 2
  Segment part 45.            Intra module refs:   Segment part 37
           LOCAL                   ADDRESS         
           =====                   =======         
           AutoAwayMSG             0000DB54 
               stack 1 = 00000000 ( 0000000C )
    -------------------------------------------------------------------------
CODE
  Relative segment, address: CODE_AREA 0000DBD0 - 0000DBFB (0x2c bytes), align: 2
  Segment part 47.            Intra module refs:   Segment part 37
           LOCAL                   ADDRESS         
           =====                   =======         
           ChangeSoundMode         0000DBD0 
               stack 1 = 00000000 ( 00000004 )
    -------------------------------------------------------------------------
CODE
  Relative segment, address: CODE_AREA 0000DBFC - 0000DC33 (0x38 bytes), align: 2
  Segment part 49.            Intra module refs:   Segment part 37
           LOCAL                   ADDRESS         
           =====                   =======         
           ChangeShowOfflineMode   0000DBFC 
               stack 1 = 00000000 ( 00000004 )
    -------------------------------------------------------------------------
CODE
  Relative segment, address: CODE_AREA 0000DC34 - 0000DC6F (0x3c bytes), align: 2
  Segment part 51.            Intra module refs:   Segment part 37
           LOCAL                   ADDRESS         
           =====                   =======         
           ChangeShowGroupsMode    0000DC34 
               stack 1 = 00000000 ( 00000004 )
    -------------------------------------------------------------------------
CODE
  Relative segment, address: CODE_AREA 0000DC70 - 0000DCB3 (0x44 bytes), align: 2
  Segment part 53.            Intra module refs:   Segment part 37
           LOCAL                   ADDRESS         
           =====                   =======         
           EditConfig              0000DC70 
               stack 1 = 00000000 ( 00000008 )
    -------------------------------------------------------------------------
CODE
  Relative segment, address: CODE_AREA 0000DCB4 - 0000DCF7 (0x44 bytes), align: 2
  Segment part 55.            Intra module refs:   Segment part 37
           LOCAL                   ADDRESS         
           =====                   =======         
           EditConfigMod           0000DCB4 
               stack 1 = 00000000 ( 00000008 )
    -------------------------------------------------------------------------
CODE
  Relative segment, address: CODE_AREA 0000DCF8 - 0000DD23 (0x2c bytes), align: 2
  Segment part 57.            Intra module refs:   Segment part 37
           LOCAL                   ADDRESS         
           =====                   =======         
           Disconnect              0000DCF8 
               stack 1 = 00000000 ( 00000004 )
    -------------------------------------------------------------------------
CODE
  Relative segment, address: CODE_AREA 0000DD24 - 0000DD7F (0x5c bytes), align: 2
  Segment part 59.            Intra module refs:   Segment part 37
           LOCAL                   ADDRESS         
           =====                   =======         
           PingToServer            0000DD24 
               stack 1 = 00000000 ( 00000008 )
    -------------------------------------------------------------------------
CODE
  Relative segment, address: CODE_AREA 0000DD80 - 0000DDB7 (0x38 bytes), align: 2
  Segment part 61.            Intra module refs:   Segment part 37
           LOCAL                   ADDRESS         
           =====                   =======         
           AboutDlg                0000DD80 
               stack 1 = 00000000 ( 00000104 )
    -------------------------------------------------------------------------
CODE
  Relative segment, address: CODE_AREA 0000DDB8 - 0000DDBB (0x4 bytes), align: 2
  Segment part 63.            Intra module refs:   Segment part 37
           LOCAL                   ADDRESS         
           =====                   =======         
           SaveCL                  0000DDB8 
               stack 1 = 00000000 ( 00000004 )
    -------------------------------------------------------------------------
CODE
  Relative segment, address: CODE_AREA 0000DDBC - 0000DDE7 (0x2c bytes), align: 2
  Segment part 65.            Intra module refs:   Segment part 37
           LOCAL                   ADDRESS         
           =====                   =======         
           ChangeSMARTCPUMode      0000DDBC 
               stack 1 = 00000000 ( 00000004 )
    -------------------------------------------------------------------------
CODE
  Relative segment, address: CODE_AREA 0000DDE8 - 0000DE13 (0x2c bytes), align: 2
  Segment part 67.            Intra module refs:   Segment part 37
           LOCAL                   ADDRESS         
           =====                   =======         
           ChangeINCMode           0000DDE8 
               stack 1 = 00000000 ( 00000004 )
    -------------------------------------------------------------------------
CODE
  Relative segment, address: CODE_AREA 0000DE14 - 0000DE3F (0x2c bytes), align: 2
  Segment part 69.            Intra module refs:   Segment part 37
           LOCAL                   ADDRESS         
           =====                   =======         
           ChangeILUMode           0000DE14 
               stack 1 = 00000000 ( 00000004 )
    -------------------------------------------------------------------------
CODE
  Relative segment, address: CODE_AREA 0000DE40 - 0000DE6B (0x2c bytes), align: 2
  Segment part 71.            Intra module refs:   Segment part 37
           LOCAL                   ADDRESS         
           =====                   =======         
           ChangePINGMode          0000DE40 
               stack 1 = 00000000 ( 00000004 )
    -------------------------------------------------------------------------
CODE
  Relative segment, address: CODE_AREA 0000DE6C - 0000DE97 (0x2c bytes), align: 2
  Segment part 73.            Intra module refs:   Segment part 37
           LOCAL                   ADDRESS         
           =====                   =======         
           ChangeUPTIMEMode        0000DE6C 
               stack 1 = 00000000 ( 00000004 )
    -------------------------------------------------------------------------
CODE
  Relative segment, address: CODE_AREA 0000DE98 - 0000DEDF (0x48 bytes), align: 2
  Segment part 75.            Intra module refs:   Segment part 37
           LOCAL                   ADDRESS         
           =====                   =======         
           MSG_Info                0000DE98 
               stack 1 = 00000000 ( 00000008 )
    -------------------------------------------------------------------------
CODE
  Relative segment, address: CODE_AREA 0000DEE0 - 0000DF0B (0x2c bytes), align: 2
  Segment part 77.            Intra module refs:   Segment part 37
           LOCAL                   ADDRESS         
           =====                   =======         
           ChangeDoubleVibra       0000DEE0 
               stack 1 = 00000000 ( 00000004 )
    -------------------------------------------------------------------------
CODE
  Relative segment, address: CODE_AREA 0000DF0C - 0000DF0F (0x4 bytes), align: 2
  Segment part 78.            Intra module refs:   ChangeDoubleVibra
                                                   ChangeILUMode
                                                   ChangeINCMode
                                                   ChangeId3tagMode
                                                   ChangePINGMode
                                                   ChangeSMARTCPUMode
                                                   ChangeShowGroupsMode
                                                   ChangeShowOfflineMode
                                                   ChangeSoundMode
                                                   ChangeUPTIMEMode
                                                   ChangeVibraMode
    -------------------------------------------------------------------------
DATA_I
  Relative segment, address: DATA_AREA 00000158 - 000001AF (0x58 bytes), align: 2
  Segment part 36.            Intra module refs:   tmenu_keyhook
    -------------------------------------------------------------------------
CODE
  Relative segment, address: CODE_AREA 0000DF10 - 0000DF4B (0x3c bytes), align: 2
  Segment part 80.            Intra module refs:   Segment part 32
           ENTRY                   ADDRESS         REF BY
           =====                   =======         ======
           tmenu_ghook             0000DF10 
               stack 1 = 00000000 ( 00000008 )
    -------------------------------------------------------------------------
DATA_Z
  Relative segment, address: CODE_AREA 0001B924 - 0001B92F (0xc bytes), align: 2
  Segment part 29.            Intra module refs:   Segment part 99
           ENTRY                   ADDRESS         REF BY
           =====                   =======         ======
           MainMenu_ID             0001B92C 
    -------------------------------------------------------------------------
DATA_Z
  Relative segment, address: CODE_AREA 0001B930 - 0001B933 (0x4 bytes), align: 2
  Segment part 30.            Intra module refs:   PingToServer
           ENTRY                   ADDRESS         REF BY
           =====                   =======         ======
           janis                   0001B930        Segment part 314 (main)
                                                   Segment part 367 (main)
    -------------------------------------------------------------------------
DATA_Z
  Relative segment, address: CODE_AREA 0001B934 - 0001B93B (0x8 bytes), align: 2
  Segment part 35.            Intra module refs:   MSG_Info
           ENTRY                   ADDRESS         REF BY
           =====                   =======         ======
           main2_count             0001B938        Segment part 437 (main)
                                                   Segment part 597 (main)
                                                   reftes (screen_save)
           main_count              0001B934        Segment part 370 (main)
                                                   Segment part 436 (main)
                                                   Segment part 464 (main)
                                                   reftes (screen_save)
    -------------------------------------------------------------------------
CODE
  Relative segment, address: CODE_AREA 0000DF4C - 0000E0DF (0x194 bytes), align: 2
  Segment part 82.            Intra module refs:   Segment part 32
           LOCAL                   ADDRESS         
           =====                   =======         
           menuitemhandler         0000DF4C 
               stack 1 = 00000000 ( 00000018 )
    -------------------------------------------------------------------------
CODE
  Relative segment, address: CODE_AREA 0000E0E0 - 0000E0E3 (0x4 bytes), align: 2
  Segment part 83.            Intra module refs:   ChangeId3tagMode
                                                   menuitemhandler
    -------------------------------------------------------------------------
CODE
  Relative segment, address: CODE_AREA 0000E0E4 - 0000E0E7 (0x4 bytes), align: 2
  Segment part 84.            Intra module refs:   AutoAwayMSG
                                                   menuitemhandler
    -------------------------------------------------------------------------
CODE
  Relative segment, address: CODE_AREA 0000E0E8 - 0000E0EB (0x4 bytes), align: 2
  Segment part 85.            Intra module refs:   ChangeVibraMode
                                                   menuitemhandler
    -------------------------------------------------------------------------
CODE
  Relative segment, address: CODE_AREA 0000E0EC - 0000E0EF (0x4 bytes), align: 2
  Segment part 86.            Intra module refs:   ChangeSoundMode
                                                   menuitemhandler
    -------------------------------------------------------------------------
CODE
  Relative segment, address: CODE_AREA 0000E0F0 - 0000E0F3 (0x4 bytes), align: 2
  Segment part 87.            Intra module refs:   ChangeINCMode
                                                   menuitemhandler
    -------------------------------------------------------------------------
CODE
  Relative segment, address: CODE_AREA 0000E0F4 - 0000E0F7 (0x4 bytes), align: 2
  Segment part 88.            Intra module refs:   ChangeSMARTCPUMode
                                                   menuitemhandler
    -------------------------------------------------------------------------
CODE
  Relative segment, address: CODE_AREA 0000E0F8 - 0000E0FB (0x4 bytes), align: 2
  Segment part 89.            Intra module refs:   ChangeDoubleVibra
                                                   menuitemhandler
    -------------------------------------------------------------------------
CODE
  Relative segment, address: CODE_AREA 0000E0FC - 0000E0FF (0x4 bytes), align: 2
  Segment part 90.            Intra module refs:   ChangeILUMode
                                                   menuitemhandler
    -------------------------------------------------------------------------
CODE
  Relative segment, address: CODE_AREA 0000E100 - 0000E103 (0x4 bytes), align: 2
  Segment part 91.            Intra module refs:   ChangePINGMode
                                                   menuitemhandler
    -------------------------------------------------------------------------
CODE
  Relative segment, address: CODE_AREA 0000E104 - 0000E107 (0x4 bytes), align: 2
  Segment part 92.            Intra module refs:   ChangeUPTIMEMode
                                                   menuitemhandler
    -------------------------------------------------------------------------
CODE
  Relative segment, address: CODE_AREA 0000E108 - 0000E10B (0x4 bytes), align: 2
  Segment part 93.            Intra module refs:   ChangeShowOfflineMode
                                                   menuitemhandler
    -------------------------------------------------------------------------
CODE
  Relative segment, address: CODE_AREA 0000E10C - 0000E10F (0x4 bytes), align: 2
  Segment part 94.            Intra module refs:   ChangeShowGroupsMode
                                                   menuitemhandler
    -------------------------------------------------------------------------
CODE
  Relative segment, address: CODE_AREA 0000E110 - 0000E13F (0x30 bytes), align: 2
  Segment part 96.            Intra module refs:   Segment part 32
           LOCAL                   ADDRESS         
           =====                   =======         
           tmenu_keyhook           0000E110 
               stack 1 = 00000000 ( 00000004 )
    -------------------------------------------------------------------------
DATA_C
  Relative segment, address: CODE_AREA 0001413C - 00014147 (0xc bytes), align: 2
  Segment part 2.             Intra module refs:   Segment part 34
    -------------------------------------------------------------------------
DATA_C
  Relative segment, address: CODE_AREA 00014148 - 00014157 (0x10 bytes), align: 2
  Segment part 3.             Intra module refs:   Segment part 34
    -------------------------------------------------------------------------
DATA_C
  Relative segment, address: CODE_AREA 00014158 - 0001415F (0x8 bytes), align: 2
  Segment part 4.             Intra module refs:   Segment part 34
    -------------------------------------------------------------------------
DATA_C
  Relative segment, address: CODE_AREA 00014160 - 0001416B (0xc bytes), align: 2
  Segment part 5.             Intra module refs:   Segment part 34
    -------------------------------------------------------------------------
DATA_C
  Relative segment, address: CODE_AREA 0001416C - 0001417B (0x10 bytes), align: 2
  Segment part 6.             Intra module refs:   Segment part 34
    -------------------------------------------------------------------------
DATA_C
  Relative segment, address: CODE_AREA 0001417C - 0001418B (0x10 bytes), align: 2
  Segment part 7.             Intra module refs:   Segment part 34
    -------------------------------------------------------------------------
DATA_C
  Relative segment, address: CODE_AREA 0001418C - 0001419F (0x14 bytes), align: 2
  Segment part 8.             Intra module refs:   Segment part 34
    -------------------------------------------------------------------------
DATA_C
  Relative segment, address: CODE_AREA 000141A0 - 000141AF (0x10 bytes), align: 2
  Segment part 9.             Intra module refs:   Segment part 34
    -------------------------------------------------------------------------
DATA_C
  Relative segment, address: CODE_AREA 000141B0 - 000141B7 (0x8 bytes), align: 2
  Segment part 10.            Intra module refs:   Segment part 34
    -------------------------------------------------------------------------
DATA_C
  Relative segment, address: CODE_AREA 000141B8 - 000141C3 (0xc bytes), align: 2
  Segment part 11.            Intra module refs:   Segment part 34
    -------------------------------------------------------------------------
DATA_C
  Relative segment, address: CODE_AREA 000141C4 - 000141CB (0x8 bytes), align: 2
  Segment part 12.            Intra module refs:   Segment part 38
    -------------------------------------------------------------------------
DATA_C
  Relative segment, address: CODE_AREA 000141CC - 000141D3 (0x8 bytes), align: 2
  Segment part 13.            Intra module refs:   Segment part 38
    -------------------------------------------------------------------------
DATA_C
  Relative segment, address: CODE_AREA 000141D4 - 00014217 (0x44 bytes), align: 2
  Segment part 14.            Intra module refs:   AboutDlg
    -------------------------------------------------------------------------
DATA_C
  Relative segment, address: CODE_AREA 00014218 - 0001421F (0x8 bytes), align: 2
  Segment part 15.            Intra module refs:   Segment part 32
    -------------------------------------------------------------------------
DATA_C
  Relative segment, address: CODE_AREA 00014220 - 00014227 (0x8 bytes), align: 2
  Segment part 16.            Intra module refs:   Segment part 34
    -------------------------------------------------------------------------
DATA_C
  Relative segment, address: CODE_AREA 00014228 - 00014233 (0xc bytes), align: 2
  Segment part 17.            Intra module refs:   Segment part 34
    -------------------------------------------------------------------------
DATA_C
  Relative segment, address: CODE_AREA 00014234 - 00014247 (0x14 bytes), align: 2
  Segment part 18.            Intra module refs:   Segment part 34
    -------------------------------------------------------------------------
DATA_C
  Relative segment, address: CODE_AREA 00014248 - 00014257 (0x10 bytes), align: 2
  Segment part 19.            Intra module refs:   Segment part 34
    -------------------------------------------------------------------------
DATA_C
  Relative segment, address: CODE_AREA 00014258 - 00014267 (0x10 bytes), align: 2
  Segment part 20.            Intra module refs:   Segment part 34
    -------------------------------------------------------------------------
DATA_C
  Relative segment, address: CODE_AREA 00014268 - 00014273 (0xc bytes), align: 2
  Segment part 21.            Intra module refs:   Segment part 34
    -------------------------------------------------------------------------
DATA_C
  Relative segment, address: CODE_AREA 00014274 - 0001428F (0x1c bytes), align: 2
  Segment part 22.            Intra module refs:   MSG_Info
    -------------------------------------------------------------------------
DATA_C
  Relative segment, address: CODE_AREA 00014290 - 000142A7 (0x18 bytes), align: 2
  Segment part 23.            Intra module refs:   Segment part 34
    -------------------------------------------------------------------------
DATA_C
  Relative segment, address: CODE_AREA 000142A8 - 000142B7 (0x10 bytes), align: 2
  Segment part 24.            Intra module refs:   Segment part 34
    -------------------------------------------------------------------------
DATA_C
  Relative segment, address: CODE_AREA 000142B8 - 000142CB (0x14 bytes), align: 2
  Segment part 25.            Intra module refs:   Segment part 34
    -------------------------------------------------------------------------
DATA_C
  Relative segment, address: CODE_AREA 000142CC - 000142DB (0x10 bytes), align: 2
  Segment part 26.            Intra module refs:   Segment part 34
    -------------------------------------------------------------------------
DATA_C
  Relative segment, address: CODE_AREA 000142DC - 000142EF (0x14 bytes), align: 2
  Segment part 27.            Intra module refs:   Segment part 34
    -------------------------------------------------------------------------
DATA_C
  Relative segment, address: CODE_AREA 000142F0 - 000142FF (0x10 bytes), align: 2
  Segment part 28.            Intra module refs:   Segment part 34
    -------------------------------------------------------------------------
DATA_C
  Relative segment, address: CODE_AREA 00014300 - 0001433F (0x40 bytes), align: 2
  Segment part 32.            Intra module refs:   ShowMainMenu
    -------------------------------------------------------------------------
DATA_C
  Relative segment, address: CODE_AREA 00014340 - 0001434B (0xc bytes), align: 2
  Segment part 33.            Intra module refs:   Segment part 32
    -------------------------------------------------------------------------
DATA_C
  Relative segment, address: CODE_AREA 0001434C - 000143A3 (0x58 bytes), align: 2
  Segment part 34.            Intra module refs:   menuitemhandler
    -------------------------------------------------------------------------
DATA_C
  Relative segment, address: CODE_AREA 000143A4 - 000143BB (0x18 bytes), align: 2
  Segment part 38.            Intra module refs:   Segment part 39
    -------------------------------------------------------------------------
DATA_C
  Relative segment, address: CODE_AREA 000143BC - 000143C3 (0x8 bytes), align: 2
  Segment part 39.            Intra module refs:   Segment part 32
    -------------------------------------------------------------------------
CODE
  Relative segment, address: CODE_AREA 0000E140 - 0000E1CF (0x90 bytes), align: 2
  Segment part 98.
           ENTRY                   ADDRESS         REF BY
           =====                   =======         ======
           ShowMainMenu            0000E140        contactlist_menu_onkey (main)
               stack 1 = 00000000 ( 0000001C )
    -------------------------------------------------------------------------
CODE
  Relative segment, address: CODE_AREA 0000E1D0 - 0000E1D3 (0x4 bytes), align: 2
  Segment part 99.            Intra module refs:   ShowMainMenu
                                                   menuitemhandler
    -------------------------------------------------------------------------
DATA_ID
  Relative segment, address: CODE_AREA 00000158 - 000001AF (0x58 bytes), align: 2
  Segment part 37.            Intra module refs:   Segment part 36

    *************************************************************************

  FILE NAME : D:\pasha\elf\_MY_PROJECT_\naticq_mod\Release\Obj\manage_cl.r79
  PROGRAM MODULE, NAME : manage_cl

  SEGMENTS IN THE MODULE
  ======================
DATA_C
  Relative segment, address: CODE_AREA 000143C4 - 000143EF (0x2c bytes), align: 2
  Segment part 2.             Intra module refs:   CreateAddContactGrpDialog
    -------------------------------------------------------------------------
DATA_C
  Relative segment, address: CODE_AREA 000143F0 - 000143F7 (0x8 bytes), align: 2
  Segment part 3.             Intra module refs:   Segment part 17
                                                   Segment part 19
                                                   Segment part 22
    -------------------------------------------------------------------------
DATA_C
  Relative segment, address: CODE_AREA 00014E4D - 00014E4D (0x1 bytes), align: 0
  Segment part 4.             Intra module refs:   Segment part 17
                                                   Segment part 19
                                                   Segment part 22
    -------------------------------------------------------------------------
DATA_C
  Relative segment, address: CODE_AREA 000143F8 - 00014403 (0xc bytes), align: 2
  Segment part 6.             Intra module refs:   Segment part 25
    -------------------------------------------------------------------------
DATA_C
  Relative segment, address: CODE_AREA 00014404 - 00014417 (0x14 bytes), align: 2
  Segment part 7.             Intra module refs:   Segment part 34
    -------------------------------------------------------------------------
DATA_C
  Relative segment, address: CODE_AREA 00014418 - 0001442B (0x14 bytes), align: 2
  Segment part 8.             Intra module refs:   Segment part 32
    -------------------------------------------------------------------------
DATA_C
  Relative segment, address: CODE_AREA 0001442C - 0001443F (0x14 bytes), align: 2
  Segment part 9.             Intra module refs:   Segment part 31
                                                   Segment part 32
    -------------------------------------------------------------------------
DATA_C
  Relative segment, address: CODE_AREA 00014440 - 00014453 (0x14 bytes), align: 2
  Segment part 10.            Intra module refs:   Segment part 29
    -------------------------------------------------------------------------
DATA_C
  Relative segment, address: CODE_AREA 00014454 - 00014477 (0x24 bytes), align: 2
  Segment part 11.            Intra module refs:   Segment part 29
    -------------------------------------------------------------------------
DATA_C
  Relative segment, address: CODE_AREA 00014478 - 000144A3 (0x2c bytes), align: 2
  Segment part 12.            Intra module refs:   Segment part 29
    -------------------------------------------------------------------------
DATA_C
  Relative segment, address: CODE_AREA 000144A4 - 000144C7 (0x24 bytes), align: 2
  Segment part 13.            Intra module refs:   Segment part 29
    -------------------------------------------------------------------------
DATA_C
  Relative segment, address: CODE_AREA 000144C8 - 000144DB (0x14 bytes), align: 2
  Segment part 14.            Intra module refs:   Segment part 29
    -------------------------------------------------------------------------
DATA_C
  Relative segment, address: CODE_AREA 000144DC - 000144EF (0x14 bytes), align: 2
  Segment part 15.            Intra module refs:   Segment part 27
    -------------------------------------------------------------------------
DATA_C
  Relative segment, address: CODE_AREA 000144F0 - 000144FB (0xc bytes), align: 2
  Segment part 16.            Intra module refs:   Segment part 34
    -------------------------------------------------------------------------
DATA_C
  Relative segment, address: CODE_AREA 000144FC - 00014513 (0x18 bytes), align: 2
  Segment part 17.            Intra module refs:   mmanage_cl_skt
    -------------------------------------------------------------------------
DATA_C
  Relative segment, address: CODE_AREA 00014514 - 0001451B (0x8 bytes), align: 2
  Segment part 18.            Intra module refs:   Segment part 34
           ENTRY                   ADDRESS         REF BY
           =====                   =======         ======
           mmanage_cl_skt          00014514 
    -------------------------------------------------------------------------
DATA_C
  Relative segment, address: CODE_AREA 0001451C - 00014533 (0x18 bytes), align: 2
  Segment part 19.            Intra module refs:   acgd_skt
    -------------------------------------------------------------------------
DATA_C
  Relative segment, address: CODE_AREA 00014534 - 0001453B (0x8 bytes), align: 2
  Segment part 20.            Intra module refs:   Segment part 27
           ENTRY                   ADDRESS         REF BY
           =====                   =======         ======
           acgd_skt                00014534 
    -------------------------------------------------------------------------
DATA_C
  Relative segment, address: CODE_AREA 0001453C - 00014547 (0xc bytes), align: 2
  Segment part 21.            Intra module refs:   Segment part 31
    -------------------------------------------------------------------------
DATA_C
  Relative segment, address: CODE_AREA 00014548 - 0001455F (0x18 bytes), align: 2
  Segment part 22.            Intra module refs:   pl_skt
    -------------------------------------------------------------------------
DATA_C
  Relative segment, address: CODE_AREA 00014560 - 00014567 (0x8 bytes), align: 2
  Segment part 23.            Intra module refs:   Segment part 31
           ENTRY                   ADDRESS         REF BY
           =====                   =======         ======
           pl_skt                  00014560 
    -------------------------------------------------------------------------
CODE
  Relative segment, address: CODE_AREA 0000E1D4 - 0000E32F (0x15c bytes), align: 2
  Segment part 36.            Intra module refs:   Segment part 27
           ENTRY                   ADDRESS         REF BY
           =====                   =======         ======
           acgd_onkey              0000E1D4 
               stack 1 = 00000000 ( 00000090 )
    -------------------------------------------------------------------------
CODE
  Relative segment, address: CODE_AREA 0000E330 - 0000E41F (0xf0 bytes), align: 2
  Segment part 38.            Intra module refs:   Segment part 27
           ENTRY                   ADDRESS         REF BY
           =====                   =======         ======
           acgd_ghook              0000E330 
               stack 1 = 00000000 ( 0000003C )
    -------------------------------------------------------------------------
DATA_I
  Relative segment, address: DATA_AREA 000001B0 - 000001B7 (0x8 bytes), align: 2
  Segment part 24.            Intra module refs:   acgd_ghook
    -------------------------------------------------------------------------
CODE
  Relative segment, address: CODE_AREA 0000E420 - 0000E423 (0x4 bytes), align: 2
  Segment part 40.            Intra module refs:   Segment part 27
           ENTRY                   ADDRESS         REF BY
           =====                   =======         ======
           acgd_locret             0000E420 
    -------------------------------------------------------------------------
DATA_I
  Relative segment, address: DATA_AREA 000001B8 - 00000203 (0x4c bytes), align: 2
  Segment part 26.            Intra module refs:   CreateAddContactGrpDialog
           ENTRY                   ADDRESS         REF BY
           =====                   =======         ======
           acgd_desc               000001B8 
           acgd_hdr                000001F0 
    -------------------------------------------------------------------------
CODE
  Relative segment, address: CODE_AREA 0000E424 - 0000E7A3 (0x380 bytes), align: 2
  Segment part 42.            Intra module refs:   AddContactGrp
           ENTRY                   ADDRESS         REF BY
           =====                   =======         ======
           CreateAddContactGrpDialog
                                   0000E424        AddCurContact (main)
               stack 1 = 00000000 ( 00000068 )
    -------------------------------------------------------------------------
DATA_C
  Relative segment, address: CODE_AREA 00014568 - 0001457B (0x14 bytes), align: 2
  Segment part 28.            Intra module refs:   GetPrivatePosInMenu
           ENTRY                   ADDRESS         REF BY
           =====                   =======         ======
           PR_LIST_ID              00014568 
    -------------------------------------------------------------------------
CODE
  Relative segment, address: CODE_AREA 0000E7A4 - 0000E7EB (0x48 bytes), align: 2
  Segment part 44.            Intra module refs:   PL_InvisibleForAll
                                                   PL_VisibleForAll
                                                   PL_VisibleForAllExceptInvisList
                                                   PL_VisibleOnlyForContactList
                                                   PL_VisibleOnlyForVisList
           ENTRY                   ADDRESS         REF BY
           =====                   =======         ======
           SetPrivateStatus        0000E7A4        LongPressActionOnChat (main)
                                                   method5 (main)
               stack 1 = 00000000 ( 00000008 )
    -------------------------------------------------------------------------
CODE
  Relative segment, address: CODE_AREA 0000E7EC - 0000E7EF (0x4 bytes), align: 2
  Segment part 45.            Intra module refs:   SetPrivateStatus
                                                   acgd_onkey
    -------------------------------------------------------------------------
CODE
  Relative segment, address: CODE_AREA 0000E7F0 - 0000E81F (0x30 bytes), align: 2
  Segment part 47.            Intra module refs:   CreatePrivateStatusMenu
           ENTRY                   ADDRESS         REF BY
           =====                   =======         ======
           GetPrivatePosInMenu     0000E7F0 
    -------------------------------------------------------------------------
CODE
  Relative segment, address: CODE_AREA 0000E820 - 0000E823 (0x4 bytes), align: 2
  Segment part 48.            Intra module refs:   GetPrivatePosInMenu
                                                   SetPrivateStatus
    -------------------------------------------------------------------------
CODE
  Relative segment, address: CODE_AREA 0000E824 - 0000E83B (0x18 bytes), align: 2
  Segment part 50.            Intra module refs:   Segment part 30
           LOCAL                   ADDRESS         
           =====                   =======         
           PL_VisibleForAll        0000E824 
               stack 1 = 00000000 ( 00000004 )
    -------------------------------------------------------------------------
CODE
  Relative segment, address: CODE_AREA 0000E83C - 0000E853 (0x18 bytes), align: 2
  Segment part 52.            Intra module refs:   Segment part 30
           LOCAL                   ADDRESS         
           =====                   =======         
           PL_VisibleOnlyForVisList
                                   0000E83C 
               stack 1 = 00000000 ( 00000004 )
    -------------------------------------------------------------------------
CODE
  Relative segment, address: CODE_AREA 0000E854 - 0000E86B (0x18 bytes), align: 2
  Segment part 54.            Intra module refs:   Segment part 30
           LOCAL                   ADDRESS         
           =====                   =======         
           PL_VisibleForAllExceptInvisList
                                   0000E854 
               stack 1 = 00000000 ( 00000004 )
    -------------------------------------------------------------------------
CODE
  Relative segment, address: CODE_AREA 0000E86C - 0000E883 (0x18 bytes), align: 2
  Segment part 56.            Intra module refs:   Segment part 30
           LOCAL                   ADDRESS         
           =====                   =======         
           PL_VisibleOnlyForContactList
                                   0000E86C 
               stack 1 = 00000000 ( 00000004 )
    -------------------------------------------------------------------------
CODE
  Relative segment, address: CODE_AREA 0000E884 - 0000E89B (0x18 bytes), align: 2
  Segment part 58.            Intra module refs:   Segment part 30
           LOCAL                   ADDRESS         
           =====                   =======         
           PL_InvisibleForAll      0000E884 
               stack 1 = 00000000 ( 00000004 )
    -------------------------------------------------------------------------
CODE
  Relative segment, address: CODE_AREA 0000E89C - 0000E8AF (0x14 bytes), align: 2
  Segment part 60.            Intra module refs:   Segment part 31
           LOCAL                   ADDRESS         
           =====                   =======         
           private_list_ghook      0000E89C 
               stack 1 = 00000000 ( 00000004 )
    -------------------------------------------------------------------------
DATA_C
  Relative segment, address: CODE_AREA 0001457C - 00014607 (0x8c bytes), align: 2
  Segment part 29.            Intra module refs:   Segment part 31
    -------------------------------------------------------------------------
DATA_C
  Relative segment, address: CODE_AREA 00014608 - 0001461B (0x14 bytes), align: 2
  Segment part 30.            Intra module refs:   Segment part 31
    -------------------------------------------------------------------------
DATA_C
  Relative segment, address: CODE_AREA 0001461C - 0001465B (0x40 bytes), align: 2
  Segment part 31.            Intra module refs:   CreatePrivateStatusMenu
    -------------------------------------------------------------------------
CODE
  Relative segment, address: CODE_AREA 0000E8B0 - 0000E913 (0x64 bytes), align: 2
  Segment part 62.            Intra module refs:   PrivateStatus
           ENTRY                   ADDRESS         REF BY
           =====                   =======         ======
           CreatePrivateStatusMenu
                                   0000E8B0 
               stack 1 = 00000000 ( 00000018 )
    -------------------------------------------------------------------------
CODE
  Relative segment, address: CODE_AREA 0000E914 - 0000E91B (0x8 bytes), align: 2
  Segment part 64.            Intra module refs:   Segment part 33
           LOCAL                   ADDRESS         
           =====                   =======         
           AddContactGrp           0000E914 
               stack 1 = 00000000 ( 00000004 )
    -------------------------------------------------------------------------
CODE
  Relative segment, address: CODE_AREA 0000E91C - 0000E91F (0x4 bytes), align: 2
  Segment part 66.            Intra module refs:   Segment part 33
           LOCAL                   ADDRESS         
           =====                   =======         
           PrivateStatus           0000E91C 
               stack 1 = 00000000 ( 00000004 )
    -------------------------------------------------------------------------
CODE
  Relative segment, address: CODE_AREA 0000E920 - 0000E933 (0x14 bytes), align: 2
  Segment part 68.            Intra module refs:   Segment part 34
           LOCAL                   ADDRESS         
           =====                   =======         
           mmanage_cl_ghook        0000E920 
               stack 1 = 00000000 ( 00000004 )
    -------------------------------------------------------------------------
DATA_C
  Relative segment, address: CODE_AREA 0001465C - 00014693 (0x38 bytes), align: 2
  Segment part 32.            Intra module refs:   Segment part 34
    -------------------------------------------------------------------------
DATA_C
  Relative segment, address: CODE_AREA 00014694 - 0001469B (0x8 bytes), align: 2
  Segment part 33.            Intra module refs:   Segment part 34
    -------------------------------------------------------------------------
DATA_C
  Relative segment, address: CODE_AREA 0001469C - 000146DB (0x40 bytes), align: 2
  Segment part 34.            Intra module refs:   CreateManageCLMenu
    -------------------------------------------------------------------------
CODE
  Relative segment, address: CODE_AREA 0000E934 - 0000E993 (0x60 bytes), align: 2
  Segment part 70.
           ENTRY                   ADDRESS         REF BY
           =====                   =======         ======
           CreateManageCLMenu      0000E934        Segment part 37 (mainmenu)
               stack 1 = 00000000 ( 00000018 )
    -------------------------------------------------------------------------
DATA_ID
  Relative segment, address: CODE_AREA 000001B0 - 000001B7 (0x8 bytes), align: 2
  Segment part 25.            Intra module refs:   Segment part 24
    -------------------------------------------------------------------------
DATA_ID
  Relative segment, address: CODE_AREA 000001B8 - 00000203 (0x4c bytes), align: 2
  Segment part 27.            Intra module refs:   Segment part 26

    *************************************************************************

  FILE NAME : D:\pasha\elf\_MY_PROJECT_\naticq_mod\Release\Obj\player_tags.r79
  PROGRAM MODULE, NAME : player_tags

  SEGMENTS IN THE MODULE
  ======================
DATA_Z
  Relative segment, address: CODE_AREA 0001B93C - 0001BB3B (0x200 bytes), align: 2
  Segment part 8.             Intra module refs:   GetTags
           ENTRY                   ADDRESS         REF BY
           =====                   =======         ======
           teast2                  0001BA3C        set_my_xstatus2 (main)
           teast3                  0001B93C 
    -------------------------------------------------------------------------
DATA_I
  Relative segment, address: DATA_AREA 00000204 - 00000217 (0x14 bytes), align: 2
  Segment part 6.             Intra module refs:   GetTags
                                                   initTags
           ENTRY                   ADDRESS         REF BY
           =====                   =======         ======
           cfnt                    0000020C 
           pcsmadr                 00000210 
           pcsmid                  00000208 
           tagw                    00000204 
           wstag                   00000214 
    -------------------------------------------------------------------------
CODE
  Relative segment, address: CODE_AREA 0000E994 - 0000E9D3 (0x40 bytes), align: 2
  Segment part 10.
           ENTRY                   ADDRESS         REF BY
           =====                   =======         ======
           initTags                0000E994        main (main)
                                                   maincsm_onmessage (main)
               stack 1 = 00000000 ( 00000008 )
    -------------------------------------------------------------------------
CODE
  Relative segment, address: CODE_AREA 0000E9D4 - 0000EC8B (0x2b8 bytes), align: 2
  Segment part 12.
           ENTRY                   ADDRESS         REF BY
           =====                   =======         ======
           GetTags                 0000E9D4        Segment part 186 (main)
                                                   Segment part 676 (main)
                                                   set_my_xstatus (main)
               stack 1 = 00000000 ( 00000030 )
    -------------------------------------------------------------------------
DATA_ID
  Relative segment, address: CODE_AREA 00000204 - 00000217 (0x14 bytes), align: 2
  Segment part 7.             Intra module refs:   Segment part 6
    -------------------------------------------------------------------------
DATA_C
  Relative segment, address: CODE_AREA 000146DC - 000146FF (0x24 bytes), align: 2
  Segment part 2.             Intra module refs:   GetTags
    -------------------------------------------------------------------------
DATA_C
  Relative segment, address: CODE_AREA 00014700 - 00014707 (0x8 bytes), align: 2
  Segment part 3.             Intra module refs:   GetTags

    *************************************************************************

  FILE NAME : D:\pasha\elf\_MY_PROJECT_\naticq_mod\Release\Obj\screen_save.r79
  PROGRAM MODULE, NAME : screen_save

  SEGMENTS IN THE MODULE
  ======================
DATA_Z
  Relative segment, address: CODE_AREA 0001BB3C - 0001BB4F (0x14 bytes), align: 2
  Segment part 11.            Intra module refs:   Segment part 28
           ENTRY                   ADDRESS         REF BY
           =====                   =======         ======
           battery                 0001BB3C 
           igrek                   0001BB44 
           iks                     0001BB40 
           time                    0001BB48 
    -------------------------------------------------------------------------
DATA_Z
  Relative segment, address: CODE_AREA 0001BB50 - 0001BB53 (0x4 bytes), align: 2
  Segment part 13.            Intra module refs:   method1
           ENTRY                   ADDRESS         REF BY
           =====                   =======         ======
           color_SS                0001BB50 
    -------------------------------------------------------------------------
DATA_Z
  Relative segment, address: CODE_AREA 0001BB54 - 0001BB57 (0x4 bytes), align: 2
  Segment part 14.            Intra module refs:   method5
           ENTRY                   ADDRESS         REF BY
           =====                   =======         ======
           menu                    0001BB54 
    -------------------------------------------------------------------------
CODE
  Relative segment, address: CODE_AREA 0000EC8C - 0000ED23 (0x98 bytes), align: 2
  Segment part 25.            Intra module refs:   reftes
           ENTRY                   ADDRESS         REF BY
           =====                   =======         ======
           Draw5                   0000EC8C 
               stack 1 = 00000000 ( 00000028 )
    -------------------------------------------------------------------------
DATA_I
  Relative segment, address: DATA_AREA 00000218 - 0000021B (0x4 bytes), align: 2
  Segment part 15.            Intra module refs:   Segment part 33
           ENTRY                   ADDRESS         REF BY
           =====                   =======         ======
           black                   00000218 
    -------------------------------------------------------------------------
CODE
  Relative segment, address: CODE_AREA 0000ED24 - 0000F1C7 (0x4a4 bytes), align: 2
  Segment part 27.            Intra module refs:   method0
                                                   method1
                                                   method3
           ENTRY                   ADDRESS         REF BY
           =====                   =======         ======
           reftes                  0000ED24 
               stack 1 = 00000000 ( 0000008C )
    -------------------------------------------------------------------------
CODE
  Relative segment, address: CODE_AREA 0000F1C8 - 0000F1CB (0x4 bytes), align: 2
  Segment part 28.            Intra module refs:   reftes
    -------------------------------------------------------------------------
CODE
  Relative segment, address: CODE_AREA 0000F1CC - 0000F1CF (0x4 bytes), align: 2
  Segment part 30.            Intra module refs:   Segment part 17
           LOCAL                   ADDRESS         
           =====                   =======         
           method0                 0000F1CC 
               stack 1 = 00000000 ( 00000004 )
    -------------------------------------------------------------------------
CODE
  Relative segment, address: CODE_AREA 0000F1D0 - 0000F237 (0x68 bytes), align: 2
  Segment part 32.            Intra module refs:   Segment part 17
           LOCAL                   ADDRESS         
           =====                   =======         
           method1                 0000F1D0 
               stack 1 = 00000000 ( 00000014 )
    -------------------------------------------------------------------------
CODE
  Relative segment, address: CODE_AREA 0000F238 - 0000F23B (0x4 bytes), align: 2
  Segment part 33.            Intra module refs:   method1
                                                   reftes
    -------------------------------------------------------------------------
CODE
  Relative segment, address: CODE_AREA 0000F23C - 0000F253 (0x18 bytes), align: 2
  Segment part 35.            Intra module refs:   Segment part 17
           LOCAL                   ADDRESS         
           =====                   =======         
           method2                 0000F23C 
               stack 1 = 00000000 ( 00000004 )
    -------------------------------------------------------------------------
CODE
  Relative segment, address: CODE_AREA 0000F254 - 0000F27B (0x28 bytes), align: 2
  Segment part 37.            Intra module refs:   Segment part 17
           LOCAL                   ADDRESS         
           =====                   =======         
           method3                 0000F254 
               stack 1 = 00000000 ( 00000008 )
    -------------------------------------------------------------------------
CODE
  Relative segment, address: CODE_AREA 0000F27C - 0000F29B (0x20 bytes), align: 2
  Segment part 39.            Intra module refs:   Segment part 17
           LOCAL                   ADDRESS         
           =====                   =======         
           method4                 0000F27C 
    -------------------------------------------------------------------------
CODE
  Relative segment, address: CODE_AREA 0000F29C - 0000F2EB (0x50 bytes), align: 2
  Segment part 41.            Intra module refs:   Segment part 17
           LOCAL                   ADDRESS         
           =====                   =======         
           method5                 0000F29C 
               stack 1 = 00000000 ( 0000000C )
    -------------------------------------------------------------------------
CODE
  Relative segment, address: CODE_AREA 0000F2EC - 0000F2F3 (0x8 bytes), align: 2
  Segment part 43.            Intra module refs:   Segment part 17
           LOCAL                   ADDRESS         
           =====                   =======         
           method8                 0000F2EC 
    -------------------------------------------------------------------------
CODE
  Relative segment, address: CODE_AREA 0000F2F4 - 0000F2FB (0x8 bytes), align: 2
  Segment part 45.            Intra module refs:   Segment part 17
           LOCAL                   ADDRESS         
           =====                   =======         
           method9                 0000F2F4 
    -------------------------------------------------------------------------
CODE
  Relative segment, address: CODE_AREA 0000F2FC - 0000F36B (0x70 bytes), align: 2
  Segment part 47.
           ENTRY                   ADDRESS         REF BY
           =====                   =======         ======
           CreateScreenSelectGUI   0000F2FC        contactlist_menu_onkey (main)
               stack 1 = 00000000 ( 0000000C )
    -------------------------------------------------------------------------
CODE
  Relative segment, address: CODE_AREA 0000F36C - 0000F36F (0x4 bytes), align: 2
  Segment part 48.            Intra module refs:   CreateScreenSelectGUI
                                                   method3
                                                   method4
    -------------------------------------------------------------------------
DATA_C
  Relative segment, address: CODE_AREA 00014708 - 00014713 (0xc bytes), align: 2
  Segment part 5.             Intra module refs:   Draw5
    -------------------------------------------------------------------------
DATA_C
  Relative segment, address: CODE_AREA 00014714 - 000147DB (0xc8 bytes), align: 2
  Segment part 6.             Intra module refs:   reftes
    -------------------------------------------------------------------------
DATA_C
  Relative segment, address: CODE_AREA 000147DC - 0001480F (0x34 bytes), align: 2
  Segment part 17.            Intra module refs:   CreateScreenSelectGUI
    -------------------------------------------------------------------------
DATA_ID
  Relative segment, address: CODE_AREA 00000218 - 0000021B (0x4 bytes), align: 2
  Segment part 16.            Intra module refs:   black

    *************************************************************************

  FILE NAME : D:\pasha\elf\_MY_PROJECT_\naticq_mod\Release\Obj\select_smile.r79
  PROGRAM MODULE, NAME : select_smile

  SEGMENTS IN THE MODULE
  ======================
CODE
  Relative segment, address: CODE_AREA 0000F370 - 0000F3A7 (0x38 bytes), align: 2
  Segment part 4.             Intra module refs:   method1
           ENTRY                   ADDRESS         REF BY
           =====                   =======         ======
           FindSmileIMGHDR         0000F370 
    -------------------------------------------------------------------------
CODE
  Relative segment, address: CODE_AREA 0000F3A8 - 0000F40F (0x68 bytes), align: 2
  Segment part 6.             Intra module refs:   RenderPage
           ENTRY                   ADDRESS         REF BY
           =====                   =======         ======
           DrwImg                  0000F3A8 
               stack 1 = 00000000 ( 00000038 )
    -------------------------------------------------------------------------
CODE
  Relative segment, address: CODE_AREA 0000F410 - 0000F497 (0x88 bytes), align: 2
  Segment part 8.             Intra module refs:   method5
           ENTRY                   ADDRESS         REF BY
           =====                   =======         ======
           PasteCharEditControl    0000F410 
               stack 1 = 00000000 ( 00000040 )
    -------------------------------------------------------------------------
CODE
  Relative segment, address: CODE_AREA 0000F498 - 0000F677 (0x1e0 bytes), align: 2
  Segment part 10.            Intra module refs:   method0
                                                   method5
           ENTRY                   ADDRESS         REF BY
           =====                   =======         ======
           RenderPage              0000F498 
               stack 1 = 00000000 ( 00000054 )
    -------------------------------------------------------------------------
CODE
  Relative segment, address: CODE_AREA 0000F678 - 0000F6C7 (0x50 bytes), align: 2
  Segment part 12.            Intra module refs:   Segment part 2
           LOCAL                   ADDRESS         
           =====                   =======         
           method0                 0000F678 
               stack 1 = 00000000 ( 00000018 )
    -------------------------------------------------------------------------
CODE
  Relative segment, address: CODE_AREA 0000F6C8 - 0000F7B3 (0xec bytes), align: 2
  Segment part 14.            Intra module refs:   Segment part 2
           LOCAL                   ADDRESS         
           =====                   =======         
           method1                 0000F6C8 
               stack 1 = 00000000 ( 00000018 )
    -------------------------------------------------------------------------
CODE
  Relative segment, address: CODE_AREA 0000F7B4 - 0000F7D7 (0x24 bytes), align: 2
  Segment part 16.            Intra module refs:   Segment part 2
           LOCAL                   ADDRESS         
           =====                   =======         
           method2                 0000F7B4 
               stack 1 = 00000000 ( 00000008 )
    -------------------------------------------------------------------------
CODE
  Relative segment, address: CODE_AREA 0000F7D8 - 0000F7EF (0x18 bytes), align: 2
  Segment part 18.            Intra module refs:   Segment part 2
           LOCAL                   ADDRESS         
           =====                   =======         
           method3                 0000F7D8 
               stack 1 = 00000000 ( 00000008 )
    -------------------------------------------------------------------------
CODE
  Relative segment, address: CODE_AREA 0000F7F0 - 0000F803 (0x14 bytes), align: 2
  Segment part 20.            Intra module refs:   Segment part 2
           LOCAL                   ADDRESS         
           =====                   =======         
           method4                 0000F7F0 
    -------------------------------------------------------------------------
CODE
  Relative segment, address: CODE_AREA 0000F804 - 0000FA4F (0x24c bytes), align: 2
  Segment part 22.            Intra module refs:   Segment part 2
           LOCAL                   ADDRESS         
           =====                   =======         
           method5                 0000F804 
               stack 1 = 00000000 ( 00000010 )
    -------------------------------------------------------------------------
CODE
  Relative segment, address: CODE_AREA 0000FA50 - 0000FA57 (0x8 bytes), align: 2
  Segment part 24.            Intra module refs:   Segment part 2
           LOCAL                   ADDRESS         
           =====                   =======         
           method8                 0000FA50 
    -------------------------------------------------------------------------
CODE
  Relative segment, address: CODE_AREA 0000FA58 - 0000FA5F (0x8 bytes), align: 2
  Segment part 26.            Intra module refs:   Segment part 2
           LOCAL                   ADDRESS         
           =====                   =======         
           method9                 0000FA58 
    -------------------------------------------------------------------------
CODE
  Relative segment, address: CODE_AREA 0000FA60 - 0000FACB (0x6c bytes), align: 2
  Segment part 28.
           ENTRY                   ADDRESS         REF BY
           =====                   =======         ======
           CreateSmileSelectGUI    0000FA60        AddSmile (main)
                                                   ed_options_handler (main)
                                                   edchat_onkey (main)
               stack 1 = 00000000 ( 00000010 )
    -------------------------------------------------------------------------
DATA_C
  Relative segment, address: CODE_AREA 00014810 - 00014843 (0x34 bytes), align: 2
  Segment part 2.             Intra module refs:   CreateSmileSelectGUI

    *************************************************************************

  FILE NAME : D:\pasha\elf\_MY_PROJECT_\naticq_mod\Release\Obj\smiles_loader.r79
  PROGRAM MODULE, NAME : smiles_loader

  SEGMENTS IN THE MODULE
  ======================
DATA_Z
  Relative segment, address: CODE_AREA 0001BB58 - 0001BB5B (0x4 bytes), align: 2
  Segment part 4.             Intra module refs:   Segment part 19
           ENTRY                   ADDRESS         REF BY
           =====                   =======         ======
           s_top                   0001BB58        ParseAnswer (main)
                                                   method1 (select_smile)
    -------------------------------------------------------------------------
DATA_Z
  Relative segment, address: CODE_AREA 0001BB5C - 0001BB97 (0x3c bytes), align: 2
  Segment part 5.             Intra module refs:   Segment part 22
                                                   Segment part 28
           ENTRY                   ADDRESS         REF BY
           =====                   =======         ======
           SmilesImgList           0001BB68        FindSmileIMGHDR (select_smile)
                                                   edchat_ghook (main)
           XStatusesIconArray      0001BB70        Segment part 72 (status_change)
                                                   maincsm_onmessage (main)
                                                   menuitemhandler (mainmenu)
           XStatusesImgList        0001BB6C        Segment part 285 (main)
                                                   Segment part 530 (main)
                                                   tmenu_ghook (mainmenu)
                                                   xst_ghook (status_change)
           pictures_loaded         0001BB84        method0 (main)
           pictures_max            0001BB80        method0 (main)
           total_smiles            0001BB74        method0 (main)
           total_xstatuses         0001BB78        DispXStatusChangeMenu (status_change)
                                                   Segment part 328 (main)
                                                   Segment part 487 (main)
           xstatuses_load          0001BB7C        method0 (main)
    -------------------------------------------------------------------------
CODE
  Relative segment, address: CODE_AREA 0000FACC - 0000FAF7 (0x2c bytes), align: 2
  Segment part 9.
           ENTRY                   ADDRESS         REF BY
           =====                   =======         ======
           FindSmileByUni          0000FACC        ExtractAnswer (main)
                                                   RenderPage (select_smile)
    -------------------------------------------------------------------------
CODE
  Relative segment, address: CODE_AREA 0000FAF8 - 0000FBCF (0xd8 bytes), align: 2
  Segment part 11.            Intra module refs:   InitSmiles
           ENTRY                   ADDRESS         REF BY
           =====                   =======         ======
           FreeSmiles              0000FAF8        maincsm_onclose (main)
               stack 1 = 00000000 ( 0000001C )
    -------------------------------------------------------------------------
CODE
  Relative segment, address: CODE_AREA 0000FBD0 - 0000FCA7 (0xd8 bytes), align: 2
  Segment part 13.            Intra module refs:   ProcessNextXStatImg
           ENTRY                   ADDRESS         REF BY
           =====                   =======         ======
           InitSmiles              0000FBD0 
               stack 1 = 00000000 ( 00000044 )
    -------------------------------------------------------------------------
CODE
  Relative segment, address: CODE_AREA 0000FCA8 - 0000FD8B (0xe4 bytes), align: 2
  Segment part 15.            Intra module refs:   InitXStatusesImg
           ENTRY                   ADDRESS         REF BY
           =====                   =======         ======
           CheckSmiles             0000FCA8 
               stack 1 = 00000000 ( 00000040 )
    -------------------------------------------------------------------------
CODE
  Relative segment, address: CODE_AREA 0000FD8C - 0000FD8F (0x4 bytes), align: 2
  Segment part 16.            Intra module refs:   CheckSmiles
                                                   InitSmiles
    -------------------------------------------------------------------------
CODE
  Relative segment, address: CODE_AREA 0000FD90 - 000100BB (0x32c bytes), align: 2
  Segment part 18.
           ENTRY                   ADDRESS         REF BY
           =====                   =======         ======
           ProcessNextSmile        0000FD90        maincsm_onmessage (main)
               stack 1 = 00000000 ( 000000A0 )
    -------------------------------------------------------------------------
CODE
  Relative segment, address: CODE_AREA 000100BC - 000100BF (0x4 bytes), align: 2
  Segment part 19.            Intra module refs:   FindSmileByUni
                                                   FreeSmiles
                                                   ProcessNextSmile
    -------------------------------------------------------------------------
CODE
  Relative segment, address: CODE_AREA 000100C0 - 00010127 (0x68 bytes), align: 2
  Segment part 21.            Intra module refs:   InitXStatusesImg
           ENTRY                   ADDRESS         REF BY
           =====                   =======         ======
           FreeXStatusesImg        000100C0        maincsm_onclose (main)
               stack 1 = 00000000 ( 00000010 )
    -------------------------------------------------------------------------
CODE
  Relative segment, address: CODE_AREA 00010128 - 0001012B (0x4 bytes), align: 2
  Segment part 22.            Intra module refs:   CheckSmiles
                                                   FreeSmiles
                                                   FreeXStatusesImg
    -------------------------------------------------------------------------
CODE
  Relative segment, address: CODE_AREA 0001012C - 0001021B (0xf0 bytes), align: 2
  Segment part 24.
           ENTRY                   ADDRESS         REF BY
           =====                   =======         ======
           InitXStatusesImg        0001012C        CheckDoubleRun (main)
                                                   maincsm_oncreate (main)
               stack 1 = 00000000 ( 000000C4 )
    -------------------------------------------------------------------------
CODE
  Relative segment, address: CODE_AREA 0001021C - 00010357 (0x13c bytes), align: 2
  Segment part 26.
           ENTRY                   ADDRESS         REF BY
           =====                   =======         ======
           ProcessNextXStatImg     0001021C        maincsm_onmessage (main)
               stack 1 = 00000000 ( 000000C0 )
    -------------------------------------------------------------------------
CODE
  Relative segment, address: CODE_AREA 00010358 - 0001035B (0x4 bytes), align: 2
  Segment part 27.            Intra module refs:   InitXStatusesImg
                                                   ProcessNextXStatImg
    -------------------------------------------------------------------------
CODE
  Relative segment, address: CODE_AREA 0001035C - 0001035F (0x4 bytes), align: 2
  Segment part 28.            Intra module refs:   InitSmiles
                                                   InitXStatusesImg
                                                   ProcessNextSmile
                                                   ProcessNextXStatImg
    -------------------------------------------------------------------------
CODE
  Relative segment, address: CODE_AREA 00010360 - 00010363 (0x4 bytes), align: 2
  Segment part 29.            Intra module refs:   InitXStatusesImg
                                                   ProcessNextXStatImg
    -------------------------------------------------------------------------
CODE
  Relative segment, address: CODE_AREA 00010364 - 00010367 (0x4 bytes), align: 2
  Segment part 30.            Intra module refs:   InitSmiles
                                                   InitXStatusesImg
                                                   ProcessNextSmile
                                                   ProcessNextXStatImg
    -------------------------------------------------------------------------
DATA_C
  Relative segment, address: CODE_AREA 00014844 - 0001484B (0x8 bytes), align: 2
  Segment part 3.             Intra module refs:   Segment part 29

    *************************************************************************

  FILE NAME : D:\pasha\elf\_MY_PROJECT_\naticq_mod\Release\Obj\status_change.r79
  PROGRAM MODULE, NAME : status_change

  SEGMENTS IN THE MODULE
  ======================
DATA_C
  Relative segment, address: CODE_AREA 0001484C - 00014853 (0x8 bytes), align: 2
  Segment part 2.             Intra module refs:   Segment part 26
    -------------------------------------------------------------------------
DATA_C
  Relative segment, address: CODE_AREA 00014854 - 00014857 (0x4 bytes), align: 2
  Segment part 3.             Intra module refs:   Segment part 26
    -------------------------------------------------------------------------
DATA_C
  Relative segment, address: CODE_AREA 00014858 - 00014863 (0xc bytes), align: 2
  Segment part 4.             Intra module refs:   Segment part 26
    -------------------------------------------------------------------------
DATA_C
  Relative segment, address: CODE_AREA 00014864 - 00014873 (0x10 bytes), align: 2
  Segment part 5.             Intra module refs:   Segment part 27
    -------------------------------------------------------------------------
DATA_C
  Relative segment, address: CODE_AREA 00014874 - 0001487B (0x8 bytes), align: 2
  Segment part 6.             Intra module refs:   Segment part 29
    -------------------------------------------------------------------------
DATA_C
  Relative segment, address: CODE_AREA 0001487C - 0001488B (0x10 bytes), align: 2
  Segment part 7.             Intra module refs:   Segment part 26
    -------------------------------------------------------------------------
DATA_C
  Relative segment, address: CODE_AREA 0001488C - 00014893 (0x8 bytes), align: 2
  Segment part 8.             Intra module refs:   Segment part 29
                                                   Segment part 39
    -------------------------------------------------------------------------
DATA_C
  Relative segment, address: CODE_AREA 00014894 - 0001489B (0x8 bytes), align: 2
  Segment part 9.             Intra module refs:   Segment part 32
                                                   Segment part 36
    -------------------------------------------------------------------------
DATA_C
  Relative segment, address: CODE_AREA 00014E4E - 00014E4E (0x1 bytes), align: 0
  Segment part 10.            Intra module refs:   Segment part 32
    -------------------------------------------------------------------------
DATA_C
  Relative segment, address: CODE_AREA 0001489C - 000148A7 (0xc bytes), align: 2
  Segment part 11.            Intra module refs:   Segment part 38
    -------------------------------------------------------------------------
DATA_C
  Relative segment, address: CODE_AREA 000148A8 - 000148AF (0x8 bytes), align: 2
  Segment part 12.            Intra module refs:   Segment part 39
    -------------------------------------------------------------------------
DATA_C
  Relative segment, address: CODE_AREA 000148B0 - 000148C3 (0x14 bytes), align: 2
  Segment part 13.            Intra module refs:   Segment part 41
    -------------------------------------------------------------------------
DATA_C
  Relative segment, address: CODE_AREA 000148C4 - 000148EB (0x28 bytes), align: 2
  Segment part 14.            Intra module refs:   EditXStatus
    -------------------------------------------------------------------------
DATA_C
  Relative segment, address: CODE_AREA 000148EC - 00014903 (0x18 bytes), align: 2
  Segment part 15.            Intra module refs:   xst_itemh
    -------------------------------------------------------------------------
DATA_C
  Relative segment, address: CODE_AREA 00014904 - 0001490B (0x8 bytes), align: 2
  Segment part 16.            Intra module refs:   Segment part 26
    -------------------------------------------------------------------------
DATA_C
  Relative segment, address: CODE_AREA 0001490C - 00014913 (0x8 bytes), align: 2
  Segment part 17.            Intra module refs:   Segment part 26
    -------------------------------------------------------------------------
DATA_C
  Relative segment, address: CODE_AREA 00014914 - 0001491F (0xc bytes), align: 2
  Segment part 18.            Intra module refs:   Segment part 26
    -------------------------------------------------------------------------
DATA_C
  Relative segment, address: CODE_AREA 00014920 - 0001492F (0x10 bytes), align: 2
  Segment part 19.            Intra module refs:   Segment part 26
    -------------------------------------------------------------------------
DATA_C
  Relative segment, address: CODE_AREA 00014930 - 00014937 (0x8 bytes), align: 2
  Segment part 20.            Intra module refs:   Segment part 26
    -------------------------------------------------------------------------
DATA_C
  Relative segment, address: CODE_AREA 00014938 - 00014943 (0xc bytes), align: 2
  Segment part 21.            Intra module refs:   Segment part 26
    -------------------------------------------------------------------------
DATA_C
  Relative segment, address: CODE_AREA 00014944 - 0001494F (0xc bytes), align: 2
  Segment part 22.            Intra module refs:   Segment part 26
    -------------------------------------------------------------------------
DATA_C
  Relative segment, address: CODE_AREA 00014950 - 00014957 (0x8 bytes), align: 2
  Segment part 23.            Intra module refs:   Segment part 26
    -------------------------------------------------------------------------
DATA_C
  Relative segment, address: CODE_AREA 00014958 - 00014967 (0x10 bytes), align: 2
  Segment part 24.            Intra module refs:   Segment part 79
    -------------------------------------------------------------------------
DATA_Z
  Relative segment, address: CODE_AREA 0001BB98 - 0001BB9B (0x4 bytes), align: 2
  Segment part 25.            Intra module refs:   Segment part 84
           ENTRY                   ADDRESS         REF BY
           =====                   =======         ======
           XStatusText             0001BB98 
    -------------------------------------------------------------------------
CODE
  Relative segment, address: CODE_AREA 00010368 - 00010497 (0x130 bytes), align: 2
  Segment part 43.            Intra module refs:   Segment part 27
           LOCAL                   ADDRESS         
           =====                   =======         
           st_onkey                00010368 
               stack 1 = 00000000 ( 00000008 )
    -------------------------------------------------------------------------
DATA_C
  Relative segment, address: CODE_AREA 00014968 - 00014997 (0x30 bytes), align: 2
  Segment part 26.            Intra module refs:   st_icons_set
    -------------------------------------------------------------------------
CODE
  Relative segment, address: CODE_AREA 00010498 - 0001058F (0xf8 bytes), align: 2
  Segment part 45.            Intra module refs:   Segment part 27
           ENTRY                   ADDRESS         REF BY
           =====                   =======         ======
           st_icons_set            00010498 
               stack 1 = 00000000 ( 00000018 )
    -------------------------------------------------------------------------
CODE
  Relative segment, address: CODE_AREA 00010590 - 000105A3 (0x14 bytes), align: 2
  Segment part 47.            Intra module refs:   Segment part 27
           LOCAL                   ADDRESS         
           =====                   =======         
           stmenu_ghook            00010590 
               stack 1 = 00000000 ( 00000004 )
    -------------------------------------------------------------------------
DATA_C
  Relative segment, address: CODE_AREA 00014998 - 000149D7 (0x40 bytes), align: 2
  Segment part 27.            Intra module refs:   DispStatusChangeMenu
    -------------------------------------------------------------------------
DATA_C
  Relative segment, address: CODE_AREA 000149D8 - 000149E3 (0xc bytes), align: 2
  Segment part 28.            Intra module refs:   Segment part 27
                                                   Segment part 41
    -------------------------------------------------------------------------
DATA_C
  Relative segment, address: CODE_AREA 000149E4 - 000149FB (0x18 bytes), align: 2
  Segment part 29.            Intra module refs:   Segment part 30
    -------------------------------------------------------------------------
DATA_C
  Relative segment, address: CODE_AREA 000149FC - 00014A03 (0x8 bytes), align: 2
  Segment part 30.            Intra module refs:   Segment part 27
    -------------------------------------------------------------------------
CODE
  Relative segment, address: CODE_AREA 000105A4 - 0001068F (0xec bytes), align: 2
  Segment part 49.
           ENTRY                   ADDRESS         REF BY
           =====                   =======         ======
           DispStatusChangeMenu    000105A4        Segment part 37 (mainmenu)
               stack 1 = 00000000 ( 00000020 )
    -------------------------------------------------------------------------
CODE
  Relative segment, address: CODE_AREA 00010690 - 00010693 (0x4 bytes), align: 2
  Segment part 50.            Intra module refs:   DispStatusChangeMenu
                                                   st_icons_set
    -------------------------------------------------------------------------
CODE
  Relative segment, address: CODE_AREA 00010694 - 00010697 (0x4 bytes), align: 2
  Segment part 51.            Intra module refs:   DispStatusChangeMenu
                                                   st_onkey
    -------------------------------------------------------------------------
DATA_I
  Relative segment, address: DATA_AREA 0000021C - 00000233 (0x18 bytes), align: 2
  Segment part 31.            Intra module refs:   Segment part 34
           ENTRY                   ADDRESS         REF BY
           =====                   =======         ======
           edit_x_sk               0000021C 
    -------------------------------------------------------------------------
DATA_I
  Relative segment, address: DATA_AREA 00000234 - 0000023B (0x8 bytes), align: 2
  Segment part 33.            Intra module refs:   Segment part 38
           ENTRY                   ADDRESS         REF BY
           =====                   =======         ======
           edit_x_skt              00000234 
    -------------------------------------------------------------------------
CODE
  Relative segment, address: CODE_AREA 00010698 - 0001069B (0x4 bytes), align: 2
  Segment part 53.            Intra module refs:   Segment part 38
           ENTRY                   ADDRESS         REF BY
           =====                   =======         ======
           edit_xstatus_locret     00010698 
    -------------------------------------------------------------------------
CODE
  Relative segment, address: CODE_AREA 0001069C - 00010733 (0x98 bytes), align: 2
  Segment part 55.            Intra module refs:   edit_xstatus_onkey
           ENTRY                   ADDRESS         REF BY
           =====                   =======         ======
           ReplaceStr              0001069C 
               stack 1 = 00000000 ( 00000024 )
    -------------------------------------------------------------------------
CODE
  Relative segment, address: CODE_AREA 00010734 - 000109B7 (0x284 bytes), align: 2
  Segment part 57.            Intra module refs:   Segment part 38
           ENTRY                   ADDRESS         REF BY
           =====                   =======         ======
           edit_xstatus_onkey      00010734 
               stack 1 = 00000000 ( 000000E0 )
    -------------------------------------------------------------------------
CODE
  Relative segment, address: CODE_AREA 000109B8 - 000109E7 (0x30 bytes), align: 2
  Segment part 59.            Intra module refs:   Segment part 38
           ENTRY                   ADDRESS         REF BY
           =====                   =======         ======
           edit_xstatus_ghook      000109B8 
               stack 1 = 00000000 ( 00000004 )
    -------------------------------------------------------------------------
DATA_I
  Relative segment, address: DATA_AREA 0000023C - 00000243 (0x8 bytes), align: 2
  Segment part 35.            Intra module refs:   edit_xstatus_ghook
    -------------------------------------------------------------------------
DATA_I
  Relative segment, address: DATA_AREA 00000244 - 0000028F (0x4c bytes), align: 2
  Segment part 37.            Intra module refs:   EditXStatus
           ENTRY                   ADDRESS         REF BY
           =====                   =======         ======
           edit_xstatus_desc       00000244 
           edit_xstatus_hdr        0000027C 
    -------------------------------------------------------------------------
CODE
  Relative segment, address: CODE_AREA 000109E8 - 00010D17 (0x330 bytes), align: 2
  Segment part 61.            Intra module refs:   xst_onkey
           LOCAL                   ADDRESS         
           =====                   =======         
           EditXStatus             000109E8 
               stack 1 = 00000000 ( 00000058 )
    -------------------------------------------------------------------------
CODE
  Relative segment, address: CODE_AREA 00010D18 - 00010E6B (0x154 bytes), align: 2
  Segment part 63.            Intra module refs:   Segment part 41
           LOCAL                   ADDRESS         
           =====                   =======         
           xst_onkey               00010D18 
               stack 1 = 00000000 ( 0000000C )
    -------------------------------------------------------------------------
CODE
  Relative segment, address: CODE_AREA 00010E6C - 00010E6F (0x4 bytes), align: 2
  Segment part 64.            Intra module refs:   st_onkey
                                                   xst_onkey
    -------------------------------------------------------------------------
CODE
  Relative segment, address: CODE_AREA 00010E70 - 00010EAF (0x40 bytes), align: 2
  Segment part 66.            Intra module refs:   Segment part 41
           LOCAL                   ADDRESS         
           =====                   =======         
           xst_ghook               00010E70 
               stack 1 = 00000000 ( 00000008 )
    -------------------------------------------------------------------------
CODE
  Relative segment, address: CODE_AREA 00010EB0 - 00011033 (0x184 bytes), align: 2
  Segment part 68.            Intra module refs:   Segment part 41
           LOCAL                   ADDRESS         
           =====                   =======         
           xst_itemh               00010EB0 
               stack 1 = 00000000 ( 000002D8 )
    -------------------------------------------------------------------------
CODE
  Relative segment, address: CODE_AREA 00011034 - 00011037 (0x4 bytes), align: 2
  Segment part 69.            Intra module refs:   st_icons_set
                                                   xst_itemh
    -------------------------------------------------------------------------
DATA_C
  Relative segment, address: CODE_AREA 00014A04 - 00014A1B (0x18 bytes), align: 2
  Segment part 39.            Intra module refs:   Segment part 40
    -------------------------------------------------------------------------
DATA_C
  Relative segment, address: CODE_AREA 00014A1C - 00014A23 (0x8 bytes), align: 2
  Segment part 40.            Intra module refs:   Segment part 41
    -------------------------------------------------------------------------
DATA_C
  Relative segment, address: CODE_AREA 00014A24 - 00014A67 (0x44 bytes), align: 2
  Segment part 41.            Intra module refs:   DispXStatusChangeMenu
    -------------------------------------------------------------------------
CODE
  Relative segment, address: CODE_AREA 00011038 - 000110A7 (0x70 bytes), align: 2
  Segment part 71.
           ENTRY                   ADDRESS         REF BY
           =====                   =======         ======
           DispXStatusChangeMenu   00011038        Segment part 37 (mainmenu)
               stack 1 = 00000000 ( 00000010 )
    -------------------------------------------------------------------------
CODE
  Relative segment, address: CODE_AREA 000110A8 - 000110AB (0x4 bytes), align: 2
  Segment part 72.            Intra module refs:   DispXStatusChangeMenu
                                                   xst_itemh
    -------------------------------------------------------------------------
CODE
  Relative segment, address: CODE_AREA 000110AC - 000110AF (0x4 bytes), align: 2
  Segment part 73.            Intra module refs:   DispXStatusChangeMenu
                                                   xst_onkey
    -------------------------------------------------------------------------
CODE
  Relative segment, address: CODE_AREA 000110B0 - 000111A3 (0xf4 bytes), align: 2
  Segment part 75.            Intra module refs:   xst_ghook
           ENTRY                   ADDRESS         REF BY
           =====                   =======         ======
           LoadXStatusText         000110B0        main (main)
               stack 1 = 00000000 ( 00000144 )
    -------------------------------------------------------------------------
CODE
  Relative segment, address: CODE_AREA 000111A4 - 00011227 (0x84 bytes), align: 2
  Segment part 77.            Intra module refs:   edit_xstatus_onkey
           ENTRY                   ADDRESS         REF BY
           =====                   =======         ======
           SaveXStatusText         000111A4 
               stack 1 = 00000000 ( 00000110 )
    -------------------------------------------------------------------------
CODE
  Relative segment, address: CODE_AREA 00011228 - 0001122B (0x4 bytes), align: 2
  Segment part 78.            Intra module refs:   LoadXStatusText
                                                   SaveXStatusText
    -------------------------------------------------------------------------
CODE
  Relative segment, address: CODE_AREA 0001122C - 0001122F (0x4 bytes), align: 2
  Segment part 79.            Intra module refs:   LoadXStatusText
                                                   SaveXStatusText
    -------------------------------------------------------------------------
CODE
  Relative segment, address: CODE_AREA 00011230 - 0001124B (0x1c bytes), align: 2
  Segment part 81.            Intra module refs:   LoadXStatusText
           ENTRY                   ADDRESS         REF BY
           =====                   =======         ======
           FreeXStatusText         00011230        maincsm_onclose (main)
               stack 1 = 00000000 ( 00000008 )
    -------------------------------------------------------------------------
CODE
  Relative segment, address: CODE_AREA 0001124C - 000112BB (0x70 bytes), align: 2
  Segment part 83.            Intra module refs:   EditXStatus
                                                   edit_xstatus_onkey
                                                   xst_itemh
           ENTRY                   ADDRESS         REF BY
           =====                   =======         ======
           GetXStatusStr           0001124C        set_my_xstatus (main)
    -------------------------------------------------------------------------
CODE
  Relative segment, address: CODE_AREA 000112BC - 000112BF (0x4 bytes), align: 2
  Segment part 84.            Intra module refs:   FreeXStatusText
                                                   GetXStatusStr
                                                   LoadXStatusText
                                                   SaveXStatusText
                                                   edit_xstatus_onkey
    -------------------------------------------------------------------------
DATA_ID
  Relative segment, address: CODE_AREA 0000021C - 00000233 (0x18 bytes), align: 2
  Segment part 32.            Intra module refs:   edit_x_sk
    -------------------------------------------------------------------------
DATA_ID
  Relative segment, address: CODE_AREA 00000234 - 0000023B (0x8 bytes), align: 2
  Segment part 34.            Intra module refs:   edit_x_skt
    -------------------------------------------------------------------------
DATA_ID
  Relative segment, address: CODE_AREA 0000023C - 00000243 (0x8 bytes), align: 2
  Segment part 36.            Intra module refs:   Segment part 35
    -------------------------------------------------------------------------
DATA_ID
  Relative segment, address: CODE_AREA 00000244 - 0000028F (0x4c bytes), align: 2
  Segment part 38.            Intra module refs:   Segment part 37

    *************************************************************************

  FILE NAME : D:\pasha\elf\_MY_PROJECT_\naticq_mod\auth.r79
  PROGRAM MODULE, NAME : auth

  SEGMENTS IN THE MODULE
  ======================
DATA_I
  Relative segment, address: DATA_AREA 00000290 - 000002AB (0x1c bytes), align: 2
  Segment part 3.             Intra module refs:   aa
    -------------------------------------------------------------------------
CODE
  Relative segment, address: CODE_AREA 000112C0 - 00011397 (0xd8 bytes), align: 2
  Segment part 6.
           ENTRY                   ADDRESS         REF BY
           =====                   =======         ======
           aa                      000112C0        get_answer (main)
               stack 1 = 00000000 ( 00000068 )
    -------------------------------------------------------------------------
CODE
  Relative segment, address: CODE_AREA 00011398 - 0001144B (0xb4 bytes), align: 2
  Segment part 8.
           ENTRY                   ADDRESS         REF BY
           =====                   =======         ======
           ab                      00011398        maincsm_onmessage (main)
               stack 1 = 00000000 ( 0000001C )
    -------------------------------------------------------------------------
CODE
  Relative segment, address: CODE_AREA 0001144C - 0001144F (0x4 bytes), align: 2
  Segment part 10.
           ENTRY                   ADDRESS         REF BY
           =====                   =======         ======
           ad                      0001144C        get_answer (main)
    -------------------------------------------------------------------------
DATA_ID
  Relative segment, address: CODE_AREA 00000290 - 000002AB (0x1c bytes), align: 2
  Segment part 4.             Intra module refs:   Segment part 3
    -------------------------------------------------------------------------
DATA_C
  Relative segment, address: CODE_AREA 00014A68 - 00014A73 (0xc bytes), align: 2
  Segment part 2.             Intra module refs:   ab

    *************************************************************************

  FILE NAME : D:\pasha\elf\_MY_PROJECT_\naticq_mod\print.r79
  PROGRAM MODULE, NAME : print

  SEGMENTS IN THE MODULE
  ======================
DATA_C
  Relative segment, address: CODE_AREA 00014A74 - 00014A7F (0xc bytes), align: 2
  Segment part 2.             Intra module refs:   FontPathInit
    -------------------------------------------------------------------------
DATA_C
  Relative segment, address: CODE_AREA 00014E4F - 00014E51 (0x3 bytes), align: 0
  Segment part 3.             Intra module refs:   Segment part 81
           ENTRY                   ADDRESS         REF BY
           =====                   =======         ======
           percent_t_for_print     00014E4F 
    -------------------------------------------------------------------------
DATA_C
  Relative segment, address: CODE_AREA 00014A80 - 00014AA3 (0x24 bytes), align: 2
  Segment part 4.             Intra module refs:   PrintLibInit
           ENTRY                   ADDRESS         REF BY
           =====                   =======         ======
           printLibVersion         00014A80 
    -------------------------------------------------------------------------
DATA_Z
  Relative segment, address: CODE_AREA 0001BB9C - 0001BB9F (0x4 bytes), align: 2
  Segment part 5.             Intra module refs:   Segment part 29
                                                   Segment part 87
           ENTRY                   ADDRESS         REF BY
           =====                   =======         ======
           fontPath                0001BB9C 
    -------------------------------------------------------------------------
DATA_Z
  Relative segment, address: CODE_AREA 0001BBA0 - 0001BBA3 (0x4 bytes), align: 2
  Segment part 6.             Intra module refs:   Segment part 59
                                                   Segment part 80
           ENTRY                   ADDRESS         REF BY
           =====                   =======         ======
           ws1_for_print           0001BBA0 
    -------------------------------------------------------------------------
DATA_Z
  Relative segment, address: CODE_AREA 0001BBA4 - 0001BBA7 (0x4 bytes), align: 2
  Segment part 7.             Intra module refs:   Segment part 57
                                                   Segment part 88
           ENTRY                   ADDRESS         REF BY
           =====                   =======         ======
           maxFontNum              0001BBA4 
    -------------------------------------------------------------------------
DATA_Z
  Relative segment, address: CODE_AREA 0001BBA8 - 0001BBAB (0x4 bytes), align: 2
  Segment part 8.             Intra module refs:   Segment part 84
           ENTRY                   ADDRESS         REF BY
           =====                   =======         ======
           currNum                 0001BBA8 
    -------------------------------------------------------------------------
DATA_Z
  Relative segment, address: CODE_AREA 0001BBAC - 0001BBAF (0x4 bytes), align: 2
  Segment part 9.             Intra module refs:   Segment part 79
           ENTRY                   ADDRESS         REF BY
           =====                   =======         ======
           scrollEdgeDelay         0001BBAC 
    -------------------------------------------------------------------------
DATA_Z
  Relative segment, address: CODE_AREA 0001C0C0 - 0001C0C0 (0x1 bytes), align: 0
  Segment part 10.            Intra module refs:   Segment part 91
           ENTRY                   ADDRESS         REF BY
           =====                   =======         ======
           printlib_isFontColorSet
                                   0001C0C0 
    -------------------------------------------------------------------------
DATA_Z
  Relative segment, address: CODE_AREA 0001BBB0 - 0001BBB3 (0x4 bytes), align: 2
  Segment part 11.            Intra module refs:   Segment part 92
           ENTRY                   ADDRESS         REF BY
           =====                   =======         ======
           printlib_fontColor      0001BBB0 
    -------------------------------------------------------------------------
DATA_Z
  Relative segment, address: CODE_AREA 0001BBB4 - 0001BBB7 (0x4 bytes), align: 2
  Segment part 12.            Intra module refs:   Segment part 93
           ENTRY                   ADDRESS         REF BY
           =====                   =======         ======
           printlib_bgrColor       0001BBB4 
    -------------------------------------------------------------------------
DATA_Z
  Relative segment, address: CODE_AREA 0001C0C1 - 0001C0C1 (0x1 bytes), align: 0
  Segment part 13.            Intra module refs:   Segment part 94
           ENTRY                   ADDRESS         REF BY
           =====                   =======         ======
           printlib_isOutline      0001C0C1 
    -------------------------------------------------------------------------
DATA_Z
  Relative segment, address: CODE_AREA 0001BBB8 - 0001C0B7 (0x500 bytes), align: 2
  Segment part 14.            Intra module refs:   Segment part 54
           ENTRY                   ADDRESS         REF BY
           =====                   =======         ======
           ycoord                  0001BBB8 
    -------------------------------------------------------------------------
CODE
  Relative segment, address: CODE_AREA 00011450 - 00011477 (0x28 bytes), align: 2
  Segment part 16.            Intra module refs:   FindDim
           ENTRY                   ADDRESS         REF BY
           =====                   =======         ======
           FillDim                 00011450 
    -------------------------------------------------------------------------
CODE
  Relative segment, address: CODE_AREA 00011478 - 00011507 (0x90 bytes), align: 2
  Segment part 18.            Intra module refs:   PrintField
                                                   PrintScrollField
           ENTRY                   ADDRESS         REF BY
           =====                   =======         ======
           FindDim                 00011478 
               stack 1 = 00000000 ( 00000018 )
    -------------------------------------------------------------------------
CODE
  Relative segment, address: CODE_AREA 00011508 - 0001155F (0x58 bytes), align: 2
  Segment part 20.            Intra module refs:   ClearField
                                                   ClearFieldData
                                                   PrintText
           ENTRY                   ADDRESS         REF BY
           =====                   =======         ======
           GetDim                  00011508 
    -------------------------------------------------------------------------
CODE
  Relative segment, address: CODE_AREA 00011560 - 000115AF (0x50 bytes), align: 2
  Segment part 22.            Intra module refs:   PrintLibInit
           ENTRY                   ADDRESS         REF BY
           =====                   =======         ======
           InitDynVar              00011560 
               stack 1 = 00000000 ( 0000000C )
    -------------------------------------------------------------------------
CODE
  Relative segment, address: CODE_AREA 000115B0 - 000115D3 (0x24 bytes), align: 2
  Segment part 24.            Intra module refs:   FreeDynVar
           ENTRY                   ADDRESS         REF BY
           =====                   =======         ======
           FreeDim                 000115B0 
               stack 1 = 00000000 ( 00000008 )
    -------------------------------------------------------------------------
CODE
  Relative segment, address: CODE_AREA 000115D4 - 0001160B (0x38 bytes), align: 2
  Segment part 26.            Intra module refs:   PrintLibFree
           ENTRY                   ADDRESS         REF BY
           =====                   =======         ======
           FreeDynVar              000115D4 
               stack 1 = 00000000 ( 00000008 )
    -------------------------------------------------------------------------
CODE
  Relative segment, address: CODE_AREA 0001160C - 0001174B (0x140 bytes), align: 2
  Segment part 28.            Intra module refs:   CalcChrWidth
                                                   CalcStrWidth
                                                   FontH
                                                   MyDrawString
           ENTRY                   ADDRESS         REF BY
           =====                   =======         ======
           Char2Img                0001160C 
               stack 1 = 00000000 ( 00000004 )
    -------------------------------------------------------------------------
CODE
  Relative segment, address: CODE_AREA 0001174C - 0001174F (0x4 bytes), align: 2
  Segment part 29.            Intra module refs:   Char2Img
                                                   InitDynVar
    -------------------------------------------------------------------------
CODE
  Relative segment, address: CODE_AREA 00011750 - 00011783 (0x34 bytes), align: 2
  Segment part 31.            Intra module refs:   PrintField
                                                   PrintText
           ENTRY                   ADDRESS         REF BY
           =====                   =======         ======
           FontH                   00011750 
               stack 1 = 00000000 ( 00000004 )
    -------------------------------------------------------------------------
CODE
  Relative segment, address: CODE_AREA 00011784 - 000117F7 (0x74 bytes), align: 2
  Segment part 35.            Intra module refs:   CalcScroll
                                                   PrintText
           ENTRY                   ADDRESS         REF BY
           =====                   =======         ======
           CalcChrWidth            00011784 
               stack 1 = 00000000 ( 00000010 )
    -------------------------------------------------------------------------
CODE
  Relative segment, address: CODE_AREA 000117F8 - 000118C3 (0xcc bytes), align: 2
  Segment part 37.            Intra module refs:   PrintField
           ENTRY                   ADDRESS         REF BY
           =====                   =======         ======
           CalcStrWidth            000117F8 
               stack 1 = 00000000 ( 00000018 )
    -------------------------------------------------------------------------
CODE
  Relative segment, address: CODE_AREA 000118C4 - 0001194B (0x88 bytes), align: 2
  Segment part 39.            Intra module refs:   PrintField
           ENTRY                   ADDRESS         REF BY
           =====                   =======         ======
           MyDrawString            000118C4 
               stack 1 = 00000000 ( 00000024 )
    -------------------------------------------------------------------------
CODE
  Relative segment, address: CODE_AREA 0001194C - 000119FB (0xb0 bytes), align: 2
  Segment part 43.            Intra module refs:   PrintText
           ENTRY                   ADDRESS         REF BY
           =====                   =======         ======
           ClearField              0001194C 
               stack 1 = 00000000 ( 0000001C )
    -------------------------------------------------------------------------
CODE
  Relative segment, address: CODE_AREA 000119FC - 00011A5F (0x64 bytes), align: 2
  Segment part 45.            Intra module refs:   PrintText
           ENTRY                   ADDRESS         REF BY
           =====                   =======         ======
           ClearFieldData          000119FC 
               stack 1 = 00000000 ( 00000008 )
    -------------------------------------------------------------------------
CODE
  Relative segment, address: CODE_AREA 00011A60 - 00011A63 (0x4 bytes), align: 2
  Segment part 54.            Intra module refs:   FindDim
                                                   FreeDynVar
                                                   GetDim
                                                   InitDynVar
    -------------------------------------------------------------------------
CODE
  Relative segment, address: CODE_AREA 00011A64 - 00011D2B (0x2c8 bytes), align: 2
  Segment part 56.            Intra module refs:   PrintScrollField
                                                   PrintText
           ENTRY                   ADDRESS         REF BY
           =====                   =======         ======
           PrintField              00011A64        DrawAutoMSG (main)
                                                   DrawOnlineTime (main)
                                                   DrawPing (main)
                                                   maincsm_onmessage (main)
               stack 1 = 00000000 ( 00000040 )
    -------------------------------------------------------------------------
CODE
  Relative segment, address: CODE_AREA 00011D2C - 00011D2F (0x4 bytes), align: 2
  Segment part 57.            Intra module refs:   CalcChrWidth
                                                   CalcStrWidth
                                                   Char2Img
                                                   FontH
                                                   InitDynVar
                                                   PrintField
    -------------------------------------------------------------------------
CODE
  Relative segment, address: CODE_AREA 00011D30 - 00011D33 (0x4 bytes), align: 2
  Segment part 58.            Intra module refs:   Char2Img
                                                   PrintField
    -------------------------------------------------------------------------
CODE
  Relative segment, address: CODE_AREA 00011D34 - 00011D37 (0x4 bytes), align: 2
  Segment part 59.            Intra module refs:   CalcChrWidth
                                                   CalcStrWidth
                                                   FreeDynVar
                                                   InitDynVar
                                                   PrintField
    -------------------------------------------------------------------------
CODE
  Relative segment, address: CODE_AREA 00011D38 - 00011D3B (0x4 bytes), align: 2
  Segment part 62.            Intra module refs:   ClearField
                                                   PrintField
    -------------------------------------------------------------------------
CODE
  Relative segment, address: CODE_AREA 00011D3C - 00011EAF (0x174 bytes), align: 2
  Segment part 72.            Intra module refs:   PrintScrollField
           ENTRY                   ADDRESS         REF BY
           =====                   =======         ======
           CalcScroll              00011D3C 
               stack 1 = 00000000 ( 00000028 )
    -------------------------------------------------------------------------
CODE
  Relative segment, address: CODE_AREA 00011EB0 - 00011F6F (0xc0 bytes), align: 2
  Segment part 74.            Intra module refs:   PrintText
           ENTRY                   ADDRESS         REF BY
           =====                   =======         ======
           PrintScrollField        00011EB0 
               stack 1 = 00000000 ( 00000044 )
    -------------------------------------------------------------------------
CODE
  Relative segment, address: CODE_AREA 00011F70 - 000121FF (0x290 bytes), align: 2
  Segment part 76.
           ENTRY                   ADDRESS         REF BY
           =====                   =======         ======
           PrintText               00011F70        new_redraw (main)
               stack 1 = 00000000 ( 0000024C )
    -------------------------------------------------------------------------
CODE
  Relative segment, address: CODE_AREA 00012200 - 0001224F (0x50 bytes), align: 2
  Segment part 78.
           ENTRY                   ADDRESS         REF BY
           =====                   =======         ======
           PrintLibInit            00012200        main (main)
                                                   maincsm_onmessage (main)
               stack 1 = 00000000 ( 00000004 )
    -------------------------------------------------------------------------
CODE
  Relative segment, address: CODE_AREA 00012250 - 00012253 (0x4 bytes), align: 2
  Segment part 79.            Intra module refs:   CalcScroll
                                                   PrintLibInit
    -------------------------------------------------------------------------
CODE
  Relative segment, address: CODE_AREA 00012254 - 00012257 (0x4 bytes), align: 2
  Segment part 80.            Intra module refs:   PrintLibInit
    -------------------------------------------------------------------------
CODE
  Relative segment, address: CODE_AREA 00012258 - 0001225B (0x4 bytes), align: 2
  Segment part 81.            Intra module refs:   CalcChrWidth
                                                   CalcStrWidth
                                                   PrintLibInit
    -------------------------------------------------------------------------
CODE
  Relative segment, address: CODE_AREA 0001225C - 000122EF (0x94 bytes), align: 2
  Segment part 83.
           ENTRY                   ADDRESS         REF BY
           =====                   =======         ======
           FontPathInit            0001225C        main (main)
                                                   maincsm_onmessage (main)
               stack 1 = 00000000 ( 0000001C )
    -------------------------------------------------------------------------
CODE
  Relative segment, address: CODE_AREA 000122F0 - 000122F3 (0x4 bytes), align: 2
  Segment part 84.            Intra module refs:   FontPathInit
                                                   PrintLibInit
    -------------------------------------------------------------------------
CODE
  Relative segment, address: CODE_AREA 000122F4 - 0001236B (0x78 bytes), align: 2
  Segment part 86.
           ENTRY                   ADDRESS         REF BY
           =====                   =======         ======
           PrintLibFree            000122F4        maincsm_onclose (main)
               stack 1 = 00000000 ( 00000014 )
    -------------------------------------------------------------------------
CODE
  Relative segment, address: CODE_AREA 0001236C - 0001236F (0x4 bytes), align: 2
  Segment part 87.            Intra module refs:   FontPathInit
                                                   PrintLibFree
                                                   PrintLibInit
    -------------------------------------------------------------------------
CODE
  Relative segment, address: CODE_AREA 00012370 - 00012373 (0x4 bytes), align: 2
  Segment part 88.            Intra module refs:   FontPathInit
                                                   PrintLibFree
                                                   PrintLibInit
                                                   PrintText
    -------------------------------------------------------------------------
CODE
  Relative segment, address: CODE_AREA 00012374 - 000123B7 (0x44 bytes), align: 2
  Segment part 90.
           ENTRY                   ADDRESS         REF BY
           =====                   =======         ======
           SetFontColor            00012374        main (main)
                                                   maincsm_onmessage (main)
               stack 1 = 00000000 ( 0000000C )
    -------------------------------------------------------------------------
CODE
  Relative segment, address: CODE_AREA 000123B8 - 000123BB (0x4 bytes), align: 2
  Segment part 91.            Intra module refs:   PrintField
                                                   PrintLibInit
                                                   SetFontColor
    -------------------------------------------------------------------------
CODE
  Relative segment, address: CODE_AREA 000123BC - 000123BF (0x4 bytes), align: 2
  Segment part 92.            Intra module refs:   PrintField
                                                   SetFontColor
    -------------------------------------------------------------------------
CODE
  Relative segment, address: CODE_AREA 000123C0 - 000123C3 (0x4 bytes), align: 2
  Segment part 93.            Intra module refs:   PrintField
                                                   SetFontColor
    -------------------------------------------------------------------------
CODE
  Relative segment, address: CODE_AREA 000123C4 - 000123C7 (0x4 bytes), align: 2
  Segment part 94.            Intra module refs:   PrintField
                                                   SetFontColor

    *************************************************************************

  FILE NAME : D:\pasha\elf\_MY_PROJECT_\naticq_mod\strings.r79
  PROGRAM MODULE, NAME : strings

  SEGMENTS IN THE MODULE
  ======================
CODE
  Relative segment, address: CODE_AREA 000123C8 - 0001241F (0x58 bytes), align: 2
  Segment part 5.
           ENTRY                   ADDRESS         REF BY
           =====                   =======         ======
           MakeGlobalString        000123C8        setup_ICONS (main)
               stack 1 = 00000000 ( 00000018 )
    -------------------------------------------------------------------------
CODE
  Relative segment, address: CODE_AREA 00012420 - 0001244F (0x30 bytes), align: 2
  Segment part 7.
           ENTRY                   ADDRESS         REF BY
           =====                   =======         ======
           strcmp_nocase           00012420        CompareContacts (cl_work)
                                                   maincsm_onmessage (main)
    -------------------------------------------------------------------------
DATA_C
  Relative segment, address: CODE_AREA 00014AA4 - 00014CFB (0x258 bytes), align: 2
  Segment part 2.             Intra module refs:   char16to8
           ENTRY                   ADDRESS         REF BY
           =====                   =======         ======
           unicode2char            00014AA4 
    -------------------------------------------------------------------------
DATA_C
  Relative segment, address: CODE_AREA 00014CFC - 00014DFB (0x100 bytes), align: 2
  Segment part 3.             Intra module refs:   char8to16
           ENTRY                   ADDRESS         REF BY
           =====                   =======         ======
           win2unicode             00014CFC 
    -------------------------------------------------------------------------
CODE
  Relative segment, address: CODE_AREA 00012450 - 0001246F (0x20 bytes), align: 2
  Segment part 9.             Intra module refs:   ascii2ws
           ENTRY                   ADDRESS         REF BY
           =====                   =======         ======
           char8to16               00012450        EditXStatus (status_change)
                                                   ParseAnswer (main)
                                                   ParseXStatusText (main)
                                                   ed_options_handler (main)
    -------------------------------------------------------------------------
CODE
  Relative segment, address: CODE_AREA 00012470 - 000124B3 (0x44 bytes), align: 2
  Segment part 11.            Intra module refs:   convWS_to_ANSI
           ENTRY                   ADDRESS         REF BY
           =====                   =======         ======
           char16to8               00012470        ExtractAnswer (main)
                                                   IsUrl (main)
                                                   acgd_onkey (manage_cl)
                                                   edit_xstatus_onkey (status_change)
                                                   input_awaymsg_onkey (main)
                                                   wstrstr (main)
    -------------------------------------------------------------------------
CODE
  Relative segment, address: CODE_AREA 000124B4 - 000124EB (0x38 bytes), align: 2
  Segment part 13.
           ENTRY                   ADDRESS         REF BY
           =====                   =======         ======
           ascii2ws                000124B4        AddMsgToChat (main)
                                                   CmdMenuItemHandler (main)
                                                   CreateAddContactGrpDialog (manage_cl)
                                                   CreateEditChat (main)
                                                   EditXStatus (status_change)
                                                   InputAwayMsg (main)
                                                   RenderPage (select_smile)
                                                   acgd_ghook (manage_cl)
                                                   ed_options_handler (main)
                                                   edchat_onkey (main)
                                                   show_on_contact (main)
                                                   show_pp_sender (main)
               stack 1 = 00000000 ( 0000000C )
    -------------------------------------------------------------------------
CODE
  Relative segment, address: CODE_AREA 000124EC - 0001253B (0x50 bytes), align: 2
  Segment part 15.
           ENTRY                   ADDRESS         REF BY
           =====                   =======         ======
           convWS_to_ANSI          000124EC        GetTags (player_tags)
               stack 1 = 00000000 ( 00000014 )

    *************************************************************************

  FILE NAME : D:\pasha\Embedded Workbench 4.0 Evaluation2\ARM\LIB\dl5tpainl8n.r79
  LIBRARY MODULE, NAME : ?errno

  SEGMENTS IN THE MODULE
  ======================
DATA_Z
  Relative segment, address: CODE_AREA 0001C0B8 - 0001C0BF (0x8 bytes), align: 2
  Segment part 2.             Intra module refs:   _Geterrno
           ENTRY                   ADDRESS         REF BY
           =====                   =======         ======
           _Errno                  0001C0BC 
           _Tls_setup__Errno       0001C0B8 
    -------------------------------------------------------------------------
CODE
  Relative segment, address: CODE_AREA 0001253C - 0001255F (0x24 bytes), align: 2
  Segment part 4.
           ENTRY                   ADDRESS         REF BY
           =====                   =======         ======
           _Geterrno               0001253C        _Stoul (?xstoul)
               stack 1 = 00000000 ( 00000008 )

    -------------------------------------------------------------------------
  LIBRARY MODULE, NAME : ?memchr

  SEGMENTS IN THE MODULE
  ======================
CODE
  Relative segment, address: CODE_AREA 00012560 - 0001258F (0x30 bytes), align: 2
  Segment part 5.
           ENTRY                   ADDRESS         REF BY
           =====                   =======         ======
           _Memchr                 00012560        _Stoul (?xstoul)

    -------------------------------------------------------------------------
  LIBRARY MODULE, NAME : ?strtoul

  SEGMENTS IN THE MODULE
  ======================
CODE
  Relative segment, address: CODE_AREA 00012590 - 0001259F (0x10 bytes), align: 2
  Segment part 3.
           ENTRY                   ADDRESS         REF BY
           =====                   =======         ======
           strtoul                 00012590        CheckComand2 (addon)
                                                   ParseUINS (configs)
                                                   initTags (player_tags)
               stack 1 = 00000000 ( 00000008 )

    -------------------------------------------------------------------------
  LIBRARY MODULE, NAME : ?xstoul

  SEGMENTS IN THE MODULE
  ======================
DATA_C
  Relative segment, address: CODE_AREA 00014DFC - 00014E4B (0x50 bytes), align: 2
  Segment part 2.             Intra module refs:   _Stoul
    -------------------------------------------------------------------------
CODE
  Relative segment, address: CODE_AREA 000125A0 - 0001274F (0x1b0 bytes), align: 2
  Segment part 4.
           ENTRY                   ADDRESS         REF BY
           =====                   =======         ======
           _Stoul                  000125A0        strtoul (?strtoul)
               stack 1 = 00000000 ( 00000030 )

    -------------------------------------------------------------------------
  LIBRARY MODULE, NAME : ?div_module

  SEGMENTS IN THE MODULE
  ======================
CODE
  Relative segment, address: CODE_AREA 00012750 - 0001275B (0xc bytes), align: 2
  Segment part 5.
           ENTRY                   ADDRESS         REF BY
           =====                   =======         ======
           ??divu32_a              00012750        _Stoul (?xstoul)
    -------------------------------------------------------------------------
CODE
  Relative segment, address: CODE_AREA 0001275C - 00012773 (0x18 bytes), align: 2
  Segment part 11.
           ENTRY                   ADDRESS         REF BY
           =====                   =======         ======
           ??div32_a               0001275C        method0 (main)
    -------------------------------------------------------------------------
CODE
  Relative segment, address: CODE_AREA 00012774 - 0001284B (0xd8 bytes), align: 2
  Segment part 12.            Intra module refs:   ??div32_a
                                                   ??divu32_a




                ****************************************
                *                                      *
                *            MODULE SUMMARY            *
                *                                      *
                ****************************************

Module              CODE   DATA
------              ----   ----
                   (Rel)  (Rel)
?div_module          252
?errno                44
?memchr               48
?strtoul              16
?xstoul              512
IMB                  108
ScreenShot           372
addon              2 584
auth                 440     28
cl_work            2 452
conf_loader          220      4
  + shared            12
configs            6 007      3
  + shared            12
func                   4
history            2 076
main              75 597    340
mainmenu           2 516     88
manage_cl          2 861     84
player_tags        1 336     20
print              5 321
screen_save        2 060      4
select_smile       1 936
smiles_loader      2 276
status_change      4 589    116
strings            1 228
N/A (alignment)
------           -------    ---
Total:           114 879    687


                ****************************************
                *                                      *
                *      SEGMENTS IN ADDRESS ORDER       *
                *                                      *
                ****************************************


SEGMENT              SPACE    START ADDRESS   END ADDRESS     SIZE  TYPE  ALIGN
=======              =====    =============   ===========     ====  ====  =====
ELFBEGIN             CODE_AREA           00000000                     rel    0
DATA_ID              CODE_AREA      00000000 - 000002AE         2AF   rel    2
START                CODE_AREA           000002AF                     dse    0
CODE                 CODE_AREA      000002B0 - 0001284B       1259C   rel    2
DATA_C               CODE_AREA      0001284C - 00014E51        2606   rel    2
INITTAB              CODE_AREA      00014E54 - 00014E6B          18   rel    2
DATA_Z               CODE_AREA      00014E6C - 0001C0C1        7256   rel    2
DATA_I               DATA_AREA      00000000 - 000002AE         2AF   rel    2

                ****************************************
                *                                      *
                *        END OF CROSS REFERENCE        *
                *                                      *
                ****************************************

 114 879 bytes of CODE memory
     687 bytes of DATA memory

Errors: none
Warnings: 3

